
target/riscv64imac-unknown-none-elf/debug/os:	file format ELF64-riscv


Disassembly of section .text:

ffffffff80200000 text_start:
ffffffff80200000: b7 f2 20 80          	lui	t0, 524815
ffffffff80200004: 7d 53                	addi	t1, zero, -1
ffffffff80200006: 02 13                	slli	t1, t1, 32
ffffffff80200008: b3 82 62 40          	sub	t0, t0, t1
ffffffff8020000c: 93 d2 c2 00          	srli	t0, t0, 12
ffffffff80200010: 7d 53                	addi	t1, zero, -1
ffffffff80200012: 7e 13                	slli	t1, t1, 63
ffffffff80200014: b3 e2 62 00          	or	t0, t0, t1
ffffffff80200018: 73 90 02 18          	csrw	satp, t0
ffffffff8020001c: 73 00 00 12          	sfence.vma
ffffffff80200020: 37 01 a2 80          	lui	sp, 526880
ffffffff80200024: 13 01 81 17          	addi	sp, sp, 376
ffffffff80200028: b7 32 20 80          	lui	t0, 524803
ffffffff8020002c: 93 82 a2 e4          	addi	t0, t0, -438
ffffffff80200030: 82 82                	jr	t0

ffffffff80200032 _ZN5riscv8register7sstatus4_set17h21246a57609ad249E:
ffffffff80200032: 41 11                	addi	sp, sp, -16
ffffffff80200034: 2a e4                	sd	a0, 8(sp)
ffffffff80200036: 73 20 05 10          	csrs	sstatus, a0
ffffffff8020003a: 41 01                	addi	sp, sp, 16
ffffffff8020003c: 82 80                	ret

ffffffff8020003e _ZN5riscv8register7sstatus7set_sum17h07a02e04ad3b898aE:
ffffffff8020003e: 41 11                	addi	sp, sp, -16
ffffffff80200040: 06 e4                	sd	ra, 8(sp)
ffffffff80200042: 37 05 04 00          	lui	a0, 64
ffffffff80200046: 97 00 00 00          	auipc	ra, 0
ffffffff8020004a: e7 80 c0 fe          	jalr	-20(ra)
ffffffff8020004e: 09 a0                	j	2
ffffffff80200050: a2 60                	ld	ra, 8(sp)
ffffffff80200052: 41 01                	addi	sp, sp, 16
ffffffff80200054: 82 80                	ret

ffffffff80200056 _ZN5alloc5alloc7dealloc17h766ae2f1a1d212c1E:
ffffffff80200056: 39 71                	addi	sp, sp, -64
ffffffff80200058: 06 fc                	sd	ra, 56(sp)
ffffffff8020005a: 2e f0                	sd	a1, 32(sp)
ffffffff8020005c: 32 f4                	sd	a2, 40(sp)
ffffffff8020005e: 2a f8                	sd	a0, 48(sp)
ffffffff80200060: 0c 10                	addi	a1, sp, 32
ffffffff80200062: 2a ec                	sd	a0, 24(sp)
ffffffff80200064: 2e 85                	add	a0, zero, a1
ffffffff80200066: 97 30 00 00          	auipc	ra, 3
ffffffff8020006a: e7 80 60 62          	jalr	1574(ra)
ffffffff8020006e: 2a e8                	sd	a0, 16(sp)
ffffffff80200070: 09 a0                	j	2
ffffffff80200072: 08 10                	addi	a0, sp, 32
ffffffff80200074: 97 30 00 00          	auipc	ra, 3
ffffffff80200078: e7 80 20 62          	jalr	1570(ra)
ffffffff8020007c: 2a e4                	sd	a0, 8(sp)
ffffffff8020007e: 09 a0                	j	2
ffffffff80200080: 62 65                	ld	a0, 24(sp)
ffffffff80200082: c2 65                	ld	a1, 16(sp)
ffffffff80200084: 22 66                	ld	a2, 8(sp)
ffffffff80200086: 97 30 00 00          	auipc	ra, 3
ffffffff8020008a: e7 80 20 68          	jalr	1666(ra)
ffffffff8020008e: 09 a0                	j	2
ffffffff80200090: e2 70                	ld	ra, 56(sp)
ffffffff80200092: 21 61                	addi	sp, sp, 64
ffffffff80200094: 82 80                	ret

ffffffff80200096 _ZN62_$LT$alloc..alloc..Global$u20$as$u20$core..alloc..AllocRef$GT$7dealloc17hd1ba7fccf7c8c9a2E:
ffffffff80200096: 5d 71                	addi	sp, sp, -80
ffffffff80200098: 86 e4                	sd	ra, 72(sp)
ffffffff8020009a: 32 f0                	sd	a2, 32(sp)
ffffffff8020009c: 36 f4                	sd	a3, 40(sp)
ffffffff8020009e: 2a fc                	sd	a0, 56(sp)
ffffffff802000a0: ae e0                	sd	a1, 64(sp)
ffffffff802000a2: 08 10                	addi	a0, sp, 32
ffffffff802000a4: 2e ec                	sd	a1, 24(sp)
ffffffff802000a6: 97 30 00 00          	auipc	ra, 3
ffffffff802000aa: e7 80 60 5e          	jalr	1510(ra)
ffffffff802000ae: 2a e8                	sd	a0, 16(sp)
ffffffff802000b0: 09 a0                	j	2
ffffffff802000b2: 01 45                	mv	a0, zero
ffffffff802000b4: c2 65                	ld	a1, 16(sp)
ffffffff802000b6: 63 94 a5 00          	bne	a1, a0, 8
ffffffff802000ba: 09 a0                	j	2
ffffffff802000bc: 0d a0                	j	34
ffffffff802000be: 62 65                	ld	a0, 24(sp)
ffffffff802000c0: 97 50 00 00          	auipc	ra, 5
ffffffff802000c4: e7 80 80 2b          	jalr	696(ra)
ffffffff802000c8: 2a e4                	sd	a0, 8(sp)
ffffffff802000ca: 09 a0                	j	2
ffffffff802000cc: 82 75                	ld	a1, 32(sp)
ffffffff802000ce: 22 76                	ld	a2, 40(sp)
ffffffff802000d0: 22 65                	ld	a0, 8(sp)
ffffffff802000d2: 97 00 00 00          	auipc	ra, 0
ffffffff802000d6: e7 80 40 f8          	jalr	-124(ra)
ffffffff802000da: 09 a0                	j	2
ffffffff802000dc: 09 a0                	j	2
ffffffff802000de: a6 60                	ld	ra, 72(sp)
ffffffff802000e0: 61 61                	addi	sp, sp, 80
ffffffff802000e2: 82 80                	ret

ffffffff802000e4 _ZN4core3fmt9Arguments16new_v1_formatted17h41ccd420352dbb40E:
ffffffff802000e4: 39 71                	addi	sp, sp, -64
ffffffff802000e6: 2e e8                	sd	a1, 16(sp)
ffffffff802000e8: 32 ec                	sd	a2, 24(sp)
ffffffff802000ea: 36 f0                	sd	a3, 32(sp)
ffffffff802000ec: 3a f4                	sd	a4, 40(sp)
ffffffff802000ee: 3e f8                	sd	a5, 48(sp)
ffffffff802000f0: 42 fc                	sd	a6, 56(sp)
ffffffff802000f2: 3e e0                	sd	a5, 0(sp)
ffffffff802000f4: 42 e4                	sd	a6, 8(sp)
ffffffff802000f6: 0c e1                	sd	a1, 0(a0)
ffffffff802000f8: 10 e5                	sd	a2, 8(a0)
ffffffff802000fa: 82 65                	ld	a1, 0(sp)
ffffffff802000fc: 22 66                	ld	a2, 8(sp)
ffffffff802000fe: 0c e9                	sd	a1, 16(a0)
ffffffff80200100: 10 ed                	sd	a2, 24(a0)
ffffffff80200102: 14 f1                	sd	a3, 32(a0)
ffffffff80200104: 18 f5                	sd	a4, 40(a0)
ffffffff80200106: 21 61                	addi	sp, sp, 64
ffffffff80200108: 82 80                	ret

ffffffff8020010a _ZN4core3fmt9Arguments6new_v117h81daab5dbbe1ddb9E:
ffffffff8020010a: 79 71                	addi	sp, sp, -48
ffffffff8020010c: 2e e8                	sd	a1, 16(sp)
ffffffff8020010e: 32 ec                	sd	a2, 24(sp)
ffffffff80200110: 36 f0                	sd	a3, 32(sp)
ffffffff80200112: 3a f4                	sd	a4, 40(sp)
ffffffff80200114: 81 47                	mv	a5, zero
ffffffff80200116: 3e e0                	sd	a5, 0(sp)
ffffffff80200118: 0c e1                	sd	a1, 0(a0)
ffffffff8020011a: 10 e5                	sd	a2, 8(a0)
ffffffff8020011c: 82 65                	ld	a1, 0(sp)
ffffffff8020011e: 22 66                	ld	a2, 8(sp)
ffffffff80200120: 0c e9                	sd	a1, 16(a0)
ffffffff80200122: 10 ed                	sd	a2, 24(a0)
ffffffff80200124: 14 f1                	sd	a3, 32(a0)
ffffffff80200126: 18 f5                	sd	a4, 40(a0)
ffffffff80200128: 45 61                	addi	sp, sp, 48
ffffffff8020012a: 82 80                	ret

ffffffff8020012c _ZN68_$LT$os..interrupt..context..Context$u20$as$u20$core..fmt..Debug$GT$3fmt17h2c1e87eda5994473E:
ffffffff8020012c: 19 71                	addi	sp, sp, -128
ffffffff8020012e: 86 fc                	sd	ra, 120(sp)
ffffffff80200130: aa e8                	sd	a0, 80(sp)
ffffffff80200132: ae ec                	sd	a1, 88(sp)
ffffffff80200134: 2a 86                	add	a2, zero, a0
ffffffff80200136: aa f0                	sd	a0, 96(sp)
ffffffff80200138: 93 06 05 10          	addi	a3, a0, 256
ffffffff8020013c: b6 f4                	sd	a3, 104(sp)
ffffffff8020013e: 13 05 85 10          	addi	a0, a0, 264
ffffffff80200142: aa f8                	sd	a0, 112(sp)

ffffffff80200144 .LBB0_6:
ffffffff80200144: 17 b7 00 00          	auipc	a4, 11
ffffffff80200148: 13 07 c7 eb          	addi	a4, a4, -324
ffffffff8020014c: 3c 10                	addi	a5, sp, 40
ffffffff8020014e: 1d 48                	addi	a6, zero, 7
ffffffff80200150: 2a f0                	sd	a0, 32(sp)
ffffffff80200152: 3e 85                	add	a0, zero, a5
ffffffff80200154: 32 ec                	sd	a2, 24(sp)
ffffffff80200156: 3a 86                	add	a2, zero, a4
ffffffff80200158: 36 e8                	sd	a3, 16(sp)
ffffffff8020015a: c2 86                	add	a3, zero, a6
ffffffff8020015c: 97 90 00 00          	auipc	ra, 9
ffffffff80200160: e7 80 00 6e          	jalr	1760(ra)
ffffffff80200164: 09 a0                	j	2
ffffffff80200166: 62 65                	ld	a0, 24(sp)
ffffffff80200168: 2a fc                	sd	a0, 56(sp)

ffffffff8020016a .LBB0_7:
ffffffff8020016a: 97 b5 00 00          	auipc	a1, 11
ffffffff8020016e: 93 85 d5 e9          	addi	a1, a1, -355

ffffffff80200172 .LBB0_8:
ffffffff80200172: 17 b7 00 00          	auipc	a4, 11
ffffffff80200176: 13 07 67 e9          	addi	a4, a4, -362
ffffffff8020017a: 28 10                	addi	a0, sp, 40
ffffffff8020017c: 05 46                	addi	a2, zero, 1
ffffffff8020017e: 34 18                	addi	a3, sp, 56
ffffffff80200180: 97 90 00 00          	auipc	ra, 9
ffffffff80200184: e7 80 80 93          	jalr	-1736(ra)
ffffffff80200188: 09 a0                	j	2
ffffffff8020018a: 42 65                	ld	a0, 16(sp)
ffffffff8020018c: aa e0                	sd	a0, 64(sp)

ffffffff8020018e .LBB0_9:
ffffffff8020018e: 97 b5 00 00          	auipc	a1, 11
ffffffff80200192: 93 85 a5 e9          	addi	a1, a1, -358

ffffffff80200196 .LBB0_10:
ffffffff80200196: 17 b7 00 00          	auipc	a4, 11
ffffffff8020019a: 13 07 a7 e9          	addi	a4, a4, -358
ffffffff8020019e: 28 10                	addi	a0, sp, 40
ffffffff802001a0: 1d 46                	addi	a2, zero, 7
ffffffff802001a2: 94 00                	addi	a3, sp, 64
ffffffff802001a4: 97 90 00 00          	auipc	ra, 9
ffffffff802001a8: e7 80 40 91          	jalr	-1772(ra)
ffffffff802001ac: 09 a0                	j	2
ffffffff802001ae: 02 75                	ld	a0, 32(sp)
ffffffff802001b0: aa e4                	sd	a0, 72(sp)

ffffffff802001b2 .LBB0_11:
ffffffff802001b2: 97 b5 00 00          	auipc	a1, 11
ffffffff802001b6: 93 85 a5 ea          	addi	a1, a1, -342

ffffffff802001ba .LBB0_12:
ffffffff802001ba: 17 b7 00 00          	auipc	a4, 11
ffffffff802001be: 13 07 e7 ea          	addi	a4, a4, -338
ffffffff802001c2: 28 10                	addi	a0, sp, 40
ffffffff802001c4: 11 46                	addi	a2, zero, 4
ffffffff802001c6: b4 00                	addi	a3, sp, 72
ffffffff802001c8: 97 90 00 00          	auipc	ra, 9
ffffffff802001cc: e7 80 00 8f          	jalr	-1808(ra)
ffffffff802001d0: 09 a0                	j	2
ffffffff802001d2: 28 10                	addi	a0, sp, 40
ffffffff802001d4: 97 90 00 00          	auipc	ra, 9
ffffffff802001d8: e7 80 c0 a3          	jalr	-1476(ra)
ffffffff802001dc: 2a e4                	sd	a0, 8(sp)
ffffffff802001de: 09 a0                	j	2
ffffffff802001e0: 22 65                	ld	a0, 8(sp)
ffffffff802001e2: e6 70                	ld	ra, 120(sp)
ffffffff802001e4: 09 61                	addi	sp, sp, 128
ffffffff802001e6: 82 80                	ret

ffffffff802001e8 _ZN4core5clone5impls52_$LT$impl$u20$core..clone..Clone$u20$for$u20$i32$GT$5clone17h0ed726adff90af7aE:
ffffffff802001e8: 41 11                	addi	sp, sp, -16
ffffffff802001ea: 2a e4                	sd	a0, 8(sp)
ffffffff802001ec: 08 41                	lw	a0, 0(a0)
ffffffff802001ee: 41 01                	addi	sp, sp, 16
ffffffff802001f0: 82 80                	ret

ffffffff802001f2 _ZN4core3ptr19swap_nonoverlapping17h13fa0a2636086c70E:
ffffffff802001f2: 1d 71                	addi	sp, sp, -96
ffffffff802001f4: 86 ec                	sd	ra, 88(sp)
ffffffff802001f6: 2a f0                	sd	a0, 32(sp)
ffffffff802001f8: 2e f4                	sd	a1, 40(sp)
ffffffff802001fa: 32 f8                	sd	a2, 48(sp)
ffffffff802001fc: aa 86                	add	a3, zero, a0
ffffffff802001fe: 2a fc                	sd	a0, 56(sp)
ffffffff80200200: 2e 85                	add	a0, zero, a1
ffffffff80200202: ae e0                	sd	a1, 64(sp)
ffffffff80200204: 91 45                	addi	a1, zero, 4
ffffffff80200206: ae e8                	sd	a1, 80(sp)
ffffffff80200208: 32 ec                	sd	a2, 24(sp)
ffffffff8020020a: 36 e8                	sd	a3, 16(sp)
ffffffff8020020c: 2a e4                	sd	a0, 8(sp)
ffffffff8020020e: 2e e0                	sd	a1, 0(sp)
ffffffff80200210: 09 a0                	j	2
ffffffff80200212: 02 65                	ld	a0, 0(sp)
ffffffff80200214: e2 65                	ld	a1, 24(sp)
ffffffff80200216: 33 06 b5 02          	<unknown>
ffffffff8020021a: b2 e4                	sd	a2, 72(sp)
ffffffff8020021c: 42 65                	ld	a0, 16(sp)
ffffffff8020021e: a2 65                	ld	a1, 8(sp)
ffffffff80200220: 97 10 00 00          	auipc	ra, 1
ffffffff80200224: e7 80 20 8f          	jalr	-1806(ra)
ffffffff80200228: 09 a0                	j	2
ffffffff8020022a: e6 60                	ld	ra, 88(sp)
ffffffff8020022c: 25 61                	addi	sp, sp, 96
ffffffff8020022e: 82 80                	ret

ffffffff80200230 _ZN4core3ptr23swap_nonoverlapping_one17h6f219cbf4d2fccf3E:
ffffffff80200230: 5d 71                	addi	sp, sp, -80
ffffffff80200232: 86 e4                	sd	ra, 72(sp)
ffffffff80200234: 2a f4                	sd	a0, 40(sp)
ffffffff80200236: 2e f8                	sd	a1, 48(sp)
ffffffff80200238: 11 46                	addi	a2, zero, 4
ffffffff8020023a: b2 e0                	sd	a2, 64(sp)
ffffffff8020023c: 2e ec                	sd	a1, 24(sp)
ffffffff8020023e: 2a e8                	sd	a0, 16(sp)
ffffffff80200240: 32 e4                	sd	a2, 8(sp)
ffffffff80200242: 09 a0                	j	2
ffffffff80200244: 13 05 00 02          	addi	a0, zero, 32
ffffffff80200248: a2 65                	ld	a1, 8(sp)
ffffffff8020024a: 63 eb a5 00          	bltu	a1, a0, 22
ffffffff8020024e: 09 a0                	j	2
ffffffff80200250: 05 46                	addi	a2, zero, 1
ffffffff80200252: 42 65                	ld	a0, 16(sp)
ffffffff80200254: e2 65                	ld	a1, 24(sp)
ffffffff80200256: 97 00 00 00          	auipc	ra, 0
ffffffff8020025a: e7 80 c0 f9          	jalr	-100(ra)
ffffffff8020025e: 15 a8                	j	52
ffffffff80200260: 42 65                	ld	a0, 16(sp)
ffffffff80200262: 97 00 00 00          	auipc	ra, 0
ffffffff80200266: e7 80 80 03          	jalr	56(ra)
ffffffff8020026a: aa 85                	add	a1, zero, a0
ffffffff8020026c: 2a de                	sw	a0, 60(sp)
ffffffff8020026e: 2e e0                	sd	a1, 0(sp)
ffffffff80200270: 09 a0                	j	2
ffffffff80200272: 05 46                	addi	a2, zero, 1
ffffffff80200274: 62 65                	ld	a0, 24(sp)
ffffffff80200276: c2 65                	ld	a1, 16(sp)
ffffffff80200278: 97 10 00 00          	auipc	ra, 1
ffffffff8020027c: e7 80 a0 26          	jalr	618(ra)
ffffffff80200280: 09 a0                	j	2
ffffffff80200282: 62 65                	ld	a0, 24(sp)
ffffffff80200284: 82 65                	ld	a1, 0(sp)
ffffffff80200286: 97 00 00 00          	auipc	ra, 0
ffffffff8020028a: e7 80 e0 04          	jalr	78(ra)
ffffffff8020028e: 09 a0                	j	2
ffffffff80200290: 11 a0                	j	4
ffffffff80200292: 09 a0                	j	2
ffffffff80200294: a6 60                	ld	ra, 72(sp)
ffffffff80200296: 61 61                	addi	sp, sp, 80
ffffffff80200298: 82 80                	ret

ffffffff8020029a _ZN4core3ptr4read17ha2a0eff42f133e0dE:
ffffffff8020029a: 5d 71                	addi	sp, sp, -80
ffffffff8020029c: 86 e4                	sd	ra, 72(sp)
ffffffff8020029e: 2a f0                	sd	a0, 32(sp)
ffffffff802002a0: b2 55                	lw	a1, 44(sp)
ffffffff802002a2: 2e ce                	sw	a1, 28(sp)
ffffffff802002a4: 2a e8                	sd	a0, 16(sp)
ffffffff802002a6: 09 a0                	j	2
ffffffff802002a8: 68 08                	addi	a0, sp, 28
ffffffff802002aa: 2a fc                	sd	a0, 56(sp)
ffffffff802002ac: aa e0                	sd	a0, 64(sp)
ffffffff802002ae: 09 a0                	j	2
ffffffff802002b0: 6c 08                	addi	a1, sp, 28
ffffffff802002b2: 05 46                	addi	a2, zero, 1
ffffffff802002b4: 42 65                	ld	a0, 16(sp)
ffffffff802002b6: 97 10 00 00          	auipc	ra, 1
ffffffff802002ba: e7 80 c0 22          	jalr	556(ra)
ffffffff802002be: 09 a0                	j	2
ffffffff802002c0: 03 65 c1 01          	lwu	a0, 28(sp)
ffffffff802002c4: 2a d8                	sw	a0, 48(sp)
ffffffff802002c6: 2a da                	sw	a0, 52(sp)
ffffffff802002c8: 2a e4                	sd	a0, 8(sp)
ffffffff802002ca: 09 a0                	j	2
ffffffff802002cc: 22 65                	ld	a0, 8(sp)
ffffffff802002ce: a6 60                	ld	ra, 72(sp)
ffffffff802002d0: 61 61                	addi	sp, sp, 80
ffffffff802002d2: 82 80                	ret

ffffffff802002d4 _ZN4core3ptr5write17ha925c5f182d34cfaE:
ffffffff802002d4: 01 11                	addi	sp, sp, -32
ffffffff802002d6: 2e 86                	add	a2, zero, a1
ffffffff802002d8: 2a e8                	sd	a0, 16(sp)
ffffffff802002da: 2e ce                	sw	a1, 28(sp)
ffffffff802002dc: 0c c1                	sw	a1, 0(a0)
ffffffff802002de: 05 61                	addi	sp, sp, 32
ffffffff802002e0: 82 80                	ret

ffffffff802002e2 _ZN4core4hint21unreachable_unchecked17h4ca1f1a6a773264eE:
ffffffff802002e2: 00 00                	unimp	

ffffffff802002e4 _ZN4core4hint9spin_loop17hc54caee49cc3286aE:
ffffffff802002e4: 82 80                	ret

ffffffff802002e6 _ZN56_$LT$os..console..Stdout$u20$as$u20$core..fmt..Write$GT$9write_str17h8f236efca97e7995E:
ffffffff802002e6: 11 71                	addi	sp, sp, -256
ffffffff802002e8: 86 fd                	sd	ra, 248(sp)
ffffffff802002ea: 2a ed                	sd	a0, 152(sp)
ffffffff802002ec: 2e f1                	sd	a1, 160(sp)
ffffffff802002ee: 32 f5                	sd	a2, 168(sp)
ffffffff802002f0: 01 45                	mv	a0, zero
ffffffff802002f2: aa d2                	sw	a0, 100(sp)
ffffffff802002f4: 2e 85                	add	a0, zero, a1
ffffffff802002f6: b2 85                	add	a1, zero, a2
ffffffff802002f8: 97 20 00 00          	auipc	ra, 2
ffffffff802002fc: e7 80 00 f2          	jalr	-224(ra)
ffffffff80200300: aa ec                	sd	a0, 88(sp)
ffffffff80200302: ae e8                	sd	a1, 80(sp)
ffffffff80200304: 09 a0                	j	2
ffffffff80200306: 66 65                	ld	a0, 88(sp)
ffffffff80200308: c6 65                	ld	a1, 80(sp)
ffffffff8020030a: 97 20 00 00          	auipc	ra, 2
ffffffff8020030e: e7 80 20 3f          	jalr	1010(ra)
ffffffff80200312: aa e4                	sd	a0, 72(sp)
ffffffff80200314: ae e0                	sd	a1, 64(sp)
ffffffff80200316: 09 a0                	j	2
ffffffff80200318: 26 65                	ld	a0, 72(sp)
ffffffff8020031a: aa f4                	sd	a0, 104(sp)
ffffffff8020031c: 86 65                	ld	a1, 64(sp)
ffffffff8020031e: ae f8                	sd	a1, 112(sp)
ffffffff80200320: 09 a0                	j	2
ffffffff80200322: a8 10                	addi	a0, sp, 104
ffffffff80200324: 97 20 00 00          	auipc	ra, 2
ffffffff80200328: e7 80 40 f3          	jalr	-204(ra)
ffffffff8020032c: 02 15                	slli	a0, a0, 32
ffffffff8020032e: 01 91                	srli	a0, a0, 32
ffffffff80200330: aa de                	sw	a0, 124(sp)
ffffffff80200332: 09 a0                	j	2
ffffffff80200334: 76 55                	lw	a0, 124(sp)
ffffffff80200336: b7 05 ef ff          	lui	a1, 1048304
ffffffff8020033a: 2e 95                	add	a0, a0, a1
ffffffff8020033c: 02 15                	slli	a0, a0, 32
ffffffff8020033e: 01 91                	srli	a0, a0, 32
ffffffff80200340: b3 35 a0 00          	snez	a1, a0
ffffffff80200344: 01 46                	mv	a2, zero
ffffffff80200346: 63 04 c5 00          	beq	a0, a2, 8
ffffffff8020034a: 09 a0                	j	2
ffffffff8020034c: 31 a0                	j	12
ffffffff8020034e: 01 45                	mv	a0, zero
ffffffff80200350: ee 70                	ld	ra, 248(sp)
ffffffff80200352: 11 61                	addi	sp, sp, 256
ffffffff80200354: 82 80                	ret
ffffffff80200356: 00 00                	unimp	
ffffffff80200358: 76 55                	lw	a0, 124(sp)
ffffffff8020035a: 2a db                	sw	a0, 180(sp)
ffffffff8020035c: 2a dd                	sw	a0, 184(sp)
ffffffff8020035e: 2a df                	sw	a0, 188(sp)
ffffffff80200360: cc 10                	addi	a1, sp, 100
ffffffff80200362: 11 46                	addi	a2, zero, 4
ffffffff80200364: 97 20 00 00          	auipc	ra, 2
ffffffff80200368: e7 80 e0 63          	jalr	1598(ra)
ffffffff8020036c: 2a fc                	sd	a0, 56(sp)
ffffffff8020036e: 2e f8                	sd	a1, 48(sp)
ffffffff80200370: 09 a0                	j	2
ffffffff80200372: 62 75                	ld	a0, 56(sp)
ffffffff80200374: aa f5                	sd	a0, 232(sp)
ffffffff80200376: c2 75                	ld	a1, 48(sp)
ffffffff80200378: ae f9                	sd	a1, 240(sp)
ffffffff8020037a: aa ed                	sd	a0, 216(sp)
ffffffff8020037c: ae f1                	sd	a1, 224(sp)
ffffffff8020037e: 2a f4                	sd	a0, 40(sp)
ffffffff80200380: 2e f0                	sd	a1, 32(sp)
ffffffff80200382: 09 a0                	j	2
ffffffff80200384: 22 75                	ld	a0, 40(sp)
ffffffff80200386: 82 75                	ld	a1, 32(sp)
ffffffff80200388: 97 10 00 00          	auipc	ra, 1
ffffffff8020038c: e7 80 00 ec          	jalr	-320(ra)
ffffffff80200390: 2a ec                	sd	a0, 24(sp)
ffffffff80200392: 2e e8                	sd	a1, 16(sp)
ffffffff80200394: 09 a0                	j	2
ffffffff80200396: 62 65                	ld	a0, 24(sp)
ffffffff80200398: c2 65                	ld	a1, 16(sp)
ffffffff8020039a: 97 10 00 00          	auipc	ra, 1
ffffffff8020039e: e7 80 60 fd          	jalr	-42(ra)
ffffffff802003a2: 2a e4                	sd	a0, 8(sp)
ffffffff802003a4: 2e e0                	sd	a1, 0(sp)
ffffffff802003a6: 09 a0                	j	2
ffffffff802003a8: 22 65                	ld	a0, 8(sp)
ffffffff802003aa: 2a e1                	sd	a0, 128(sp)
ffffffff802003ac: 82 65                	ld	a1, 0(sp)
ffffffff802003ae: 2e e5                	sd	a1, 136(sp)
ffffffff802003b0: 09 a0                	j	2
ffffffff802003b2: 08 01                	addi	a0, sp, 128
ffffffff802003b4: 97 10 00 00          	auipc	ra, 1
ffffffff802003b8: e7 80 60 fc          	jalr	-58(ra)
ffffffff802003bc: 2a e9                	sd	a0, 144(sp)
ffffffff802003be: 09 a0                	j	2
ffffffff802003c0: 4a 65                	ld	a0, 144(sp)
ffffffff802003c2: b3 35 a0 00          	snez	a1, a0
ffffffff802003c6: 01 46                	mv	a2, zero
ffffffff802003c8: 63 04 c5 00          	beq	a0, a2, 8
ffffffff802003cc: 09 a0                	j	2
ffffffff802003ce: 19 a0                	j	6
ffffffff802003d0: 89 bf                	j	-174
ffffffff802003d2: 00 00                	unimp	
ffffffff802003d4: 4a 65                	ld	a0, 144(sp)
ffffffff802003d6: aa e1                	sd	a0, 192(sp)
ffffffff802003d8: aa e5                	sd	a0, 200(sp)
ffffffff802003da: aa e9                	sd	a0, 208(sp)
ffffffff802003dc: 03 45 05 00          	lbu	a0, 0(a0)
ffffffff802003e0: 97 30 00 00          	auipc	ra, 3
ffffffff802003e4: e7 80 40 09          	jalr	148(ra)
ffffffff802003e8: 09 a0                	j	2
ffffffff802003ea: e1 b7                	j	-56

ffffffff802003ec _ZN2os7console5print17hfdc5ea768365a757E:
ffffffff802003ec: 5d 71                	addi	sp, sp, -80
ffffffff802003ee: 86 e4                	sd	ra, 72(sp)
ffffffff802003f0: 0c 75                	ld	a1, 40(a0)
ffffffff802003f2: ae e0                	sd	a1, 64(sp)
ffffffff802003f4: 0c 71                	ld	a1, 32(a0)
ffffffff802003f6: 2e fc                	sd	a1, 56(sp)
ffffffff802003f8: 0c 6d                	ld	a1, 24(a0)
ffffffff802003fa: 2e f8                	sd	a1, 48(sp)
ffffffff802003fc: 0c 69                	ld	a1, 16(a0)
ffffffff802003fe: 2e f4                	sd	a1, 40(sp)
ffffffff80200400: 0c 65                	ld	a1, 8(a0)
ffffffff80200402: 2e f0                	sd	a1, 32(sp)
ffffffff80200404: 08 61                	ld	a0, 0(a0)
ffffffff80200406: 2a ec                	sd	a0, 24(sp)
ffffffff80200408: 08 08                	addi	a0, sp, 16
ffffffff8020040a: 2c 08                	addi	a1, sp, 24
ffffffff8020040c: 97 20 00 00          	auipc	ra, 2
ffffffff80200410: e7 80 00 a6          	jalr	-1440(ra)
ffffffff80200414: 2a e4                	sd	a0, 8(sp)
ffffffff80200416: 09 a0                	j	2

ffffffff80200418 .LBB1_3:
ffffffff80200418: 97 b5 00 00          	auipc	a1, 11
ffffffff8020041c: 93 85 05 c8          	addi	a1, a1, -896
ffffffff80200420: 22 65                	ld	a0, 8(sp)
ffffffff80200422: 97 10 00 00          	auipc	ra, 1
ffffffff80200426: e7 80 a0 36          	jalr	874(ra)
ffffffff8020042a: 09 a0                	j	2
ffffffff8020042c: a6 60                	ld	ra, 72(sp)
ffffffff8020042e: 61 61                	addi	sp, sp, 80
ffffffff80200430: 82 80                	ret

ffffffff80200432 _ZN2os9interrupt5timer4init17h6b40f4f6a6d6e77dE:
ffffffff80200432: 41 11                	addi	sp, sp, -16
ffffffff80200434: 06 e4                	sd	ra, 8(sp)
ffffffff80200436: 97 00 00 00          	auipc	ra, 0
ffffffff8020043a: e7 80 a0 0d          	jalr	218(ra)
ffffffff8020043e: 09 a0                	j	2
ffffffff80200440: 97 00 00 00          	auipc	ra, 0
ffffffff80200444: e7 80 00 01          	jalr	16(ra)
ffffffff80200448: 09 a0                	j	2
ffffffff8020044a: a2 60                	ld	ra, 8(sp)
ffffffff8020044c: 41 01                	addi	sp, sp, 16
ffffffff8020044e: 82 80                	ret

ffffffff80200450 _ZN2os9interrupt5timer16set_next_timeout17h5c530abbe6636e63E:
ffffffff80200450: 01 11                	addi	sp, sp, -32
ffffffff80200452: 06 ec                	sd	ra, 24(sp)
ffffffff80200454: 97 20 00 00          	auipc	ra, 2
ffffffff80200458: e7 80 20 60          	jalr	1538(ra)
ffffffff8020045c: 2a e8                	sd	a0, 16(sp)
ffffffff8020045e: 09 a0                	j	2
ffffffff80200460: 61 65                	lui	a0, 24
ffffffff80200462: 1b 05 05 6a          	addiw	a0, a0, 1696
ffffffff80200466: c2 65                	ld	a1, 16(sp)
ffffffff80200468: 2e 95                	add	a0, a0, a1
ffffffff8020046a: 2a e4                	sd	a0, 8(sp)
ffffffff8020046c: 63 6c b5 00          	bltu	a0, a1, 24
ffffffff80200470: 09 a0                	j	2
ffffffff80200472: 22 65                	ld	a0, 8(sp)
ffffffff80200474: 97 30 00 00          	auipc	ra, 3
ffffffff80200478: e7 80 00 06          	jalr	96(ra)
ffffffff8020047c: 09 a0                	j	2
ffffffff8020047e: e2 60                	ld	ra, 24(sp)
ffffffff80200480: 05 61                	addi	sp, sp, 32
ffffffff80200482: 82 80                	ret

ffffffff80200484 .LBB1_5:
ffffffff80200484: 17 b5 00 00          	auipc	a0, 11
ffffffff80200488: 13 05 c5 c5          	addi	a0, a0, -932

ffffffff8020048c .LBB1_6:
ffffffff8020048c: 17 b6 00 00          	auipc	a2, 11
ffffffff80200490: 13 06 c6 c3          	addi	a2, a2, -964
ffffffff80200494: f1 45                	addi	a1, zero, 28
ffffffff80200496: 97 80 00 00          	auipc	ra, 8
ffffffff8020049a: e7 80 20 3d          	jalr	978(ra)
ffffffff8020049e: 00 00                	unimp	

ffffffff802004a0 _ZN2os9interrupt5timer4tick17h9bfdb00a126060b2E:
ffffffff802004a0: 41 11                	addi	sp, sp, -16
ffffffff802004a2: 06 e4                	sd	ra, 8(sp)
ffffffff802004a4: 97 00 00 00          	auipc	ra, 0
ffffffff802004a8: e7 80 c0 fa          	jalr	-84(ra)
ffffffff802004ac: 09 a0                	j	2

ffffffff802004ae .LBB2_4:
ffffffff802004ae: 17 05 01 00          	auipc	a0, 16
ffffffff802004b2: 13 05 25 b5          	addi	a0, a0, -1198
ffffffff802004b6: 08 61                	ld	a0, 0(a0)
ffffffff802004b8: 93 05 15 00          	addi	a1, a0, 1
ffffffff802004bc: 2e e0                	sd	a1, 0(sp)
ffffffff802004be: 63 ec a5 00          	bltu	a1, a0, 24
ffffffff802004c2: 09 a0                	j	2

ffffffff802004c4 .LBB2_5:
ffffffff802004c4: 17 05 01 00          	auipc	a0, 16
ffffffff802004c8: 13 05 c5 b3          	addi	a0, a0, -1220
ffffffff802004cc: 82 65                	ld	a1, 0(sp)
ffffffff802004ce: 0c e1                	sd	a1, 0(a0)
ffffffff802004d0: a2 60                	ld	ra, 8(sp)
ffffffff802004d2: 41 01                	addi	sp, sp, 16
ffffffff802004d4: 82 80                	ret

ffffffff802004d6 .LBB2_6:
ffffffff802004d6: 17 b5 00 00          	auipc	a0, 11
ffffffff802004da: 13 05 a5 c0          	addi	a0, a0, -1014

ffffffff802004de .LBB2_7:
ffffffff802004de: 17 b6 00 00          	auipc	a2, 11
ffffffff802004e2: 13 06 26 c2          	addi	a2, a2, -990
ffffffff802004e6: f1 45                	addi	a1, zero, 28
ffffffff802004e8: 97 80 00 00          	auipc	ra, 8
ffffffff802004ec: e7 80 00 38          	jalr	896(ra)
ffffffff802004f0: 00 00                	unimp	

ffffffff802004f2 _ZN42_$LT$$RF$T$u20$as$u20$core..fmt..Debug$GT$3fmt17h26cc1aafd7a24ec5E:
ffffffff802004f2: 01 11                	addi	sp, sp, -32
ffffffff802004f4: 06 ec                	sd	ra, 24(sp)
ffffffff802004f6: 2a e4                	sd	a0, 8(sp)
ffffffff802004f8: 2e e8                	sd	a1, 16(sp)
ffffffff802004fa: 08 61                	ld	a0, 0(a0)
ffffffff802004fc: 97 80 00 00          	auipc	ra, 8
ffffffff80200500: e7 80 e0 18          	jalr	398(ra)
ffffffff80200504: 2a e0                	sd	a0, 0(sp)
ffffffff80200506: 09 a0                	j	2
ffffffff80200508: 02 65                	ld	a0, 0(sp)
ffffffff8020050a: e2 60                	ld	ra, 24(sp)
ffffffff8020050c: 05 61                	addi	sp, sp, 32
ffffffff8020050e: 82 80                	ret

ffffffff80200510 _ZN5riscv8register3sie10set_stimer17h5124b0dbc8421eaaE:
ffffffff80200510: 41 11                	addi	sp, sp, -16
ffffffff80200512: 06 e4                	sd	ra, 8(sp)
ffffffff80200514: 13 05 00 02          	addi	a0, zero, 32
ffffffff80200518: 97 00 00 00          	auipc	ra, 0
ffffffff8020051c: e7 80 00 01          	jalr	16(ra)
ffffffff80200520: 09 a0                	j	2
ffffffff80200522: a2 60                	ld	ra, 8(sp)
ffffffff80200524: 41 01                	addi	sp, sp, 16
ffffffff80200526: 82 80                	ret

ffffffff80200528 _ZN5riscv8register3sie4_set17h7952f43ed382a375E:
ffffffff80200528: 41 11                	addi	sp, sp, -16
ffffffff8020052a: 2a e4                	sd	a0, 8(sp)
ffffffff8020052c: 73 20 45 10          	csrs	sie, a0
ffffffff80200530: 41 01                	addi	sp, sp, 16
ffffffff80200532: 82 80                	ret

ffffffff80200534 _ZN47_$LT$i32$u20$as$u20$core..iter..range..Step$GT$17forward_unchecked17h046b2b24317f79f8E:
ffffffff80200534: 79 71                	addi	sp, sp, -48
ffffffff80200536: 06 f4                	sd	ra, 40(sp)
ffffffff80200538: 2a 86                	add	a2, zero, a0
ffffffff8020053a: 2a ce                	sw	a0, 28(sp)
ffffffff8020053c: 2e f0                	sd	a1, 32(sp)
ffffffff8020053e: 32 e8                	sd	a2, 16(sp)
ffffffff80200540: 97 00 00 00          	auipc	ra, 0
ffffffff80200544: e7 80 c0 45          	jalr	1116(ra)
ffffffff80200548: 2a e4                	sd	a0, 8(sp)
ffffffff8020054a: 09 a0                	j	2
ffffffff8020054c: 22 65                	ld	a0, 8(sp)
ffffffff8020054e: a2 70                	ld	ra, 40(sp)
ffffffff80200550: 45 61                	addi	sp, sp, 48
ffffffff80200552: 82 80                	ret

ffffffff80200554 _ZN2os6memory5frame9allocator23FrameAllocator$LT$T$GT$3new17hf5b9f9a1b4c30a67E:
ffffffff80200554: 19 71                	addi	sp, sp, -128
ffffffff80200556: 86 fc                	sd	ra, 120(sp)
ffffffff80200558: 90 65                	ld	a2, 8(a1)
ffffffff8020055a: 32 fc                	sd	a2, 56(sp)
ffffffff8020055c: 90 61                	ld	a2, 0(a1)
ffffffff8020055e: 32 f8                	sd	a2, 48(sp)
ffffffff80200560: 10 10                	addi	a2, sp, 32
ffffffff80200562: 14 18                	addi	a3, sp, 48
ffffffff80200564: 2a e8                	sd	a0, 16(sp)
ffffffff80200566: 32 85                	add	a0, zero, a2
ffffffff80200568: 2e e4                	sd	a1, 8(sp)
ffffffff8020056a: b6 85                	add	a1, zero, a3
ffffffff8020056c: 97 20 00 00          	auipc	ra, 2
ffffffff80200570: e7 80 00 f5          	jalr	-176(ra)
ffffffff80200574: 09 a0                	j	2
ffffffff80200576: 02 75                	ld	a0, 32(sp)
ffffffff80200578: 2a ec                	sd	a0, 24(sp)
ffffffff8020057a: 22 65                	ld	a0, 8(sp)
ffffffff8020057c: 0c 61                	ld	a1, 0(a0)
ffffffff8020057e: ae f4                	sd	a1, 104(sp)
ffffffff80200580: 0c 65                	ld	a1, 8(a0)
ffffffff80200582: ae f8                	sd	a1, 112(sp)
ffffffff80200584: a8 08                	addi	a0, sp, 88
ffffffff80200586: ac 10                	addi	a1, sp, 104
ffffffff80200588: 97 20 00 00          	auipc	ra, 2
ffffffff8020058c: e7 80 40 f3          	jalr	-204(ra)
ffffffff80200590: 09 a0                	j	2
ffffffff80200592: a8 08                	addi	a0, sp, 88
ffffffff80200594: 97 20 00 00          	auipc	ra, 2
ffffffff80200598: e7 80 80 f8          	jalr	-120(ra)
ffffffff8020059c: 2a e0                	sd	a0, 0(sp)
ffffffff8020059e: 09 a0                	j	2
ffffffff802005a0: 88 00                	addi	a0, sp, 64
ffffffff802005a2: 82 65                	ld	a1, 0(sp)
ffffffff802005a4: 97 50 00 00          	auipc	ra, 5
ffffffff802005a8: e7 80 20 79          	jalr	1938(ra)
ffffffff802005ac: 09 a0                	j	2
ffffffff802005ae: 62 65                	ld	a0, 24(sp)
ffffffff802005b0: c2 65                	ld	a1, 16(sp)
ffffffff802005b2: 88 e1                	sd	a0, 0(a1)
ffffffff802005b4: 06 65                	ld	a0, 64(sp)
ffffffff802005b6: 88 e5                	sd	a0, 8(a1)
ffffffff802005b8: 26 65                	ld	a0, 72(sp)
ffffffff802005ba: 88 e9                	sd	a0, 16(a1)
ffffffff802005bc: 46 65                	ld	a0, 80(sp)
ffffffff802005be: 88 ed                	sd	a0, 24(a1)
ffffffff802005c0: e6 70                	ld	ra, 120(sp)
ffffffff802005c2: 09 61                	addi	sp, sp, 128
ffffffff802005c4: 82 80                	ret

ffffffff802005c6 _ZN2os6memory5frame9allocator23FrameAllocator$LT$T$GT$5alloc17haeac6980c30fb253E:
ffffffff802005c6: 5d 71                	addi	sp, sp, -80
ffffffff802005c8: 86 e4                	sd	ra, 72(sp)
ffffffff802005ca: 2e f0                	sd	a1, 32(sp)
ffffffff802005cc: a1 05                	addi	a1, a1, 8
ffffffff802005ce: 2a ec                	sd	a0, 24(sp)
ffffffff802005d0: 2e 85                	add	a0, zero, a1
ffffffff802005d2: 97 60 00 00          	auipc	ra, 6
ffffffff802005d6: e7 80 00 b0          	jalr	-1280(ra)
ffffffff802005da: 2a e8                	sd	a0, 16(sp)
ffffffff802005dc: 2e e4                	sd	a1, 8(sp)
ffffffff802005de: 09 a0                	j	2

ffffffff802005e0 .LBB1_4:
ffffffff802005e0: 97 b6 00 00          	auipc	a3, 11
ffffffff802005e4: 93 86 86 b3          	addi	a3, a3, -1224
ffffffff802005e8: 28 10                	addi	a0, sp, 40
ffffffff802005ea: 79 47                	addi	a4, zero, 30
ffffffff802005ec: c2 65                	ld	a1, 16(sp)
ffffffff802005ee: 22 66                	ld	a2, 8(sp)
ffffffff802005f0: 97 00 00 00          	auipc	ra, 0
ffffffff802005f4: e7 80 60 77          	jalr	1910(ra)
ffffffff802005f8: 09 a0                	j	2
ffffffff802005fa: 08 10                	addi	a0, sp, 32
ffffffff802005fc: aa e0                	sd	a0, 64(sp)
ffffffff802005fe: 2c 10                	addi	a1, sp, 40
ffffffff80200600: 62 66                	ld	a2, 24(sp)
ffffffff80200602: 2a e0                	sd	a0, 0(sp)
ffffffff80200604: 32 85                	add	a0, zero, a2
ffffffff80200606: 02 66                	ld	a2, 0(sp)
ffffffff80200608: 97 10 00 00          	auipc	ra, 1
ffffffff8020060c: e7 80 e0 10          	jalr	270(ra)
ffffffff80200610: 09 a0                	j	2
ffffffff80200612: a6 60                	ld	ra, 72(sp)
ffffffff80200614: 61 61                	addi	sp, sp, 80
ffffffff80200616: 82 80                	ret

ffffffff80200618 _ZN2os6memory5frame9allocator23FrameAllocator$LT$T$GT$5alloc28_$u7b$$u7b$closure$u7d$$u7d$17h61c842e602e16216E:
ffffffff80200618: 39 71                	addi	sp, sp, -64
ffffffff8020061a: 06 fc                	sd	ra, 56(sp)
ffffffff8020061c: 2a f0                	sd	a0, 32(sp)
ffffffff8020061e: 2e f4                	sd	a1, 40(sp)
ffffffff80200620: 08 61                	ld	a0, 0(a0)
ffffffff80200622: 08 61                	ld	a0, 0(a0)
ffffffff80200624: 2a ec                	sd	a0, 24(sp)
ffffffff80200626: 97 00 00 00          	auipc	ra, 0
ffffffff8020062a: e7 80 c0 1e          	jalr	492(ra)
ffffffff8020062e: 2a f8                	sd	a0, 48(sp)
ffffffff80200630: 2a e8                	sd	a0, 16(sp)
ffffffff80200632: 09 a0                	j	2
ffffffff80200634: 42 65                	ld	a0, 16(sp)
ffffffff80200636: 2a e4                	sd	a0, 8(sp)
ffffffff80200638: e2 70                	ld	ra, 56(sp)
ffffffff8020063a: 21 61                	addi	sp, sp, 64
ffffffff8020063c: 82 80                	ret

ffffffff8020063e _ZN2os6memory5frame9allocator23FrameAllocator$LT$T$GT$7dealloc17h59a49880ffbd2aadE:
ffffffff8020063e: 5d 71                	addi	sp, sp, -80
ffffffff80200640: 86 e4                	sd	ra, 72(sp)
ffffffff80200642: 2a f8                	sd	a0, 48(sp)
ffffffff80200644: 2e fc                	sd	a1, 56(sp)
ffffffff80200646: 13 06 85 00          	addi	a2, a0, 8
ffffffff8020064a: 2a ec                	sd	a0, 24(sp)
ffffffff8020064c: 2e 85                	add	a0, zero, a1
ffffffff8020064e: 32 e8                	sd	a2, 16(sp)
ffffffff80200650: 97 10 00 00          	auipc	ra, 1
ffffffff80200654: e7 80 60 89          	jalr	-1898(ra)
ffffffff80200658: aa e0                	sd	a0, 64(sp)
ffffffff8020065a: 2a f0                	sd	a0, 32(sp)
ffffffff8020065c: 09 a0                	j	2
ffffffff8020065e: 62 65                	ld	a0, 24(sp)
ffffffff80200660: 0c 61                	ld	a1, 0(a0)
ffffffff80200662: 2e f4                	sd	a1, 40(sp)
ffffffff80200664: 02 75                	ld	a0, 32(sp)
ffffffff80200666: 97 00 00 00          	auipc	ra, 0
ffffffff8020066a: e7 80 20 1e          	jalr	482(ra)
ffffffff8020066e: 2a e4                	sd	a0, 8(sp)
ffffffff80200670: 09 a0                	j	2
ffffffff80200672: 42 65                	ld	a0, 16(sp)
ffffffff80200674: a2 65                	ld	a1, 8(sp)
ffffffff80200676: 97 60 00 00          	auipc	ra, 6
ffffffff8020067a: e7 80 c0 ce          	jalr	-788(ra)
ffffffff8020067e: 09 a0                	j	2
ffffffff80200680: a6 60                	ld	ra, 72(sp)
ffffffff80200682: 61 61                	addi	sp, sp, 80
ffffffff80200684: 82 80                	ret

ffffffff80200686 _ZN89_$LT$os..memory..frame..allocator..FRAME_ALLOCATOR$u20$as$u20$core..ops..deref..Deref$GT$5deref17h60defe4a78aaa330E:
ffffffff80200686: 01 11                	addi	sp, sp, -32
ffffffff80200688: 06 ec                	sd	ra, 24(sp)
ffffffff8020068a: 2a e4                	sd	a0, 8(sp)

ffffffff8020068c .LBB0_2:
ffffffff8020068c: 17 05 01 00          	auipc	a0, 16
ffffffff80200690: 13 05 c5 97          	addi	a0, a0, -1668
ffffffff80200694: 2a e8                	sd	a0, 16(sp)
ffffffff80200696: 97 20 00 00          	auipc	ra, 2
ffffffff8020069a: e7 80 20 57          	jalr	1394(ra)
ffffffff8020069e: 2a e0                	sd	a0, 0(sp)
ffffffff802006a0: 09 a0                	j	2
ffffffff802006a2: 02 65                	ld	a0, 0(sp)
ffffffff802006a4: e2 60                	ld	ra, 24(sp)
ffffffff802006a6: 05 61                	addi	sp, sp, 32
ffffffff802006a8: 82 80                	ret

ffffffff802006aa _ZN119_$LT$os..memory..address..PhysicalAddress$u20$as$u20$core..convert..From$LT$os..memory..address..VirtualAddress$GT$$GT$4from17h107e66be47485f5fE:
ffffffff802006aa: 01 11                	addi	sp, sp, -32
ffffffff802006ac: 2a e8                	sd	a0, 16(sp)
ffffffff802006ae: 2a e4                	sd	a0, 8(sp)
ffffffff802006b0: 85 45                	addi	a1, zero, 1
ffffffff802006b2: 82 15                	slli	a1, a1, 32
ffffffff802006b4: aa 95                	add	a1, a1, a0
ffffffff802006b6: 2e e0                	sd	a1, 0(sp)
ffffffff802006b8: 63 67 b5 00          	bltu	a0, a1, 14
ffffffff802006bc: 09 a0                	j	2
ffffffff802006be: 02 65                	ld	a0, 0(sp)
ffffffff802006c0: 2a ec                	sd	a0, 24(sp)
ffffffff802006c2: 05 61                	addi	sp, sp, 32
ffffffff802006c4: 82 80                	ret

ffffffff802006c6 .LBB0_3:
ffffffff802006c6: 17 b5 00 00          	auipc	a0, 11
ffffffff802006ca: 13 05 a5 aa          	addi	a0, a0, -1366

ffffffff802006ce .LBB0_4:
ffffffff802006ce: 17 b6 00 00          	auipc	a2, 11
ffffffff802006d2: 13 06 26 a8          	addi	a2, a2, -1406
ffffffff802006d6: 93 05 10 02          	addi	a1, zero, 33
ffffffff802006da: 97 80 00 00          	auipc	ra, 8
ffffffff802006de: e7 80 e0 18          	jalr	398(ra)
ffffffff802006e2: 00 00                	unimp	

ffffffff802006e4 _ZN123_$LT$os..memory..address..PhysicalAddress$u20$as$u20$core..convert..From$LT$os..memory..address..PhysicalPageNumber$GT$$GT$4from17hbc57958b1c925a11E:
ffffffff802006e4: 01 11                	addi	sp, sp, -32
ffffffff802006e6: 2a e8                	sd	a0, 16(sp)
ffffffff802006e8: 2a e4                	sd	a0, 8(sp)
ffffffff802006ea: 85 45                	addi	a1, zero, 1
ffffffff802006ec: d2 15                	slli	a1, a1, 52
ffffffff802006ee: fd 15                	addi	a1, a1, -1
ffffffff802006f0: e9 8d                	and	a1, a1, a0
ffffffff802006f2: 13 16 c5 00          	slli	a2, a0, 12
ffffffff802006f6: 32 e0                	sd	a2, 0(sp)
ffffffff802006f8: 63 97 a5 00          	bne	a1, a0, 14
ffffffff802006fc: 09 a0                	j	2
ffffffff802006fe: 02 65                	ld	a0, 0(sp)
ffffffff80200700: 2a ec                	sd	a0, 24(sp)
ffffffff80200702: 05 61                	addi	sp, sp, 32
ffffffff80200704: 82 80                	ret

ffffffff80200706 .LBB1_3:
ffffffff80200706: 17 b5 00 00          	auipc	a0, 11
ffffffff8020070a: 13 05 a5 aa          	addi	a0, a0, -1366

ffffffff8020070e .LBB1_4:
ffffffff8020070e: 17 b6 00 00          	auipc	a2, 11
ffffffff80200712: 13 06 a6 a8          	addi	a2, a2, -1398
ffffffff80200716: 93 05 10 02          	addi	a1, zero, 33
ffffffff8020071a: 97 80 00 00          	auipc	ra, 8
ffffffff8020071e: e7 80 e0 14          	jalr	334(ra)
ffffffff80200722: 00 00                	unimp	

ffffffff80200724 _ZN2os6memory7address18PhysicalPageNumber5floor17h53e355441dcb2ca7E:
ffffffff80200724: 01 11                	addi	sp, sp, -32
ffffffff80200726: 2a e8                	sd	a0, 16(sp)
ffffffff80200728: 2a e4                	sd	a0, 8(sp)
ffffffff8020072a: 31 81                	srli	a0, a0, 12
ffffffff8020072c: 2a ec                	sd	a0, 24(sp)
ffffffff8020072e: 05 61                	addi	sp, sp, 32
ffffffff80200730: 82 80                	ret

ffffffff80200732 _ZN2os6memory7address18PhysicalPageNumber4ceil17h07925acf1ba8ccdfE:
ffffffff80200732: 01 11                	addi	sp, sp, -32
ffffffff80200734: 2a e8                	sd	a0, 16(sp)
ffffffff80200736: 2a e4                	sd	a0, 8(sp)
ffffffff80200738: 93 55 c5 00          	srli	a1, a0, 12
ffffffff8020073c: 05 66                	lui	a2, 1
ffffffff8020073e: 7d 36                	addiw	a2, a2, -1
ffffffff80200740: 71 8d                	and	a0, a0, a2
ffffffff80200742: 33 35 a0 00          	snez	a0, a0
ffffffff80200746: 2e 95                	add	a0, a0, a1
ffffffff80200748: 81 45                	mv	a1, zero
ffffffff8020074a: 2a e0                	sd	a0, 0(sp)
ffffffff8020074c: 91 e5                	bnez	a1, 12
ffffffff8020074e: 09 a0                	j	2
ffffffff80200750: 02 65                	ld	a0, 0(sp)
ffffffff80200752: 2a ec                	sd	a0, 24(sp)
ffffffff80200754: 05 61                	addi	sp, sp, 32
ffffffff80200756: 82 80                	ret

ffffffff80200758 .LBB3_3:
ffffffff80200758: 17 b5 00 00          	auipc	a0, 11
ffffffff8020075c: 13 05 85 a8          	addi	a0, a0, -1400

ffffffff80200760 .LBB3_4:
ffffffff80200760: 17 b6 00 00          	auipc	a2, 11
ffffffff80200764: 13 06 86 a3          	addi	a2, a2, -1480
ffffffff80200768: f1 45                	addi	a1, zero, 28
ffffffff8020076a: 97 80 00 00          	auipc	ra, 8
ffffffff8020076e: e7 80 e0 0f          	jalr	254(ra)
ffffffff80200772: 00 00                	unimp	

ffffffff80200774 _ZN75_$LT$os..memory..address..PhysicalAddress$u20$as$u20$core..fmt..Display$GT$3fmt17ha0e3a546eb2642c4E:
ffffffff80200774: 55 71                	addi	sp, sp, -208
ffffffff80200776: 86 e5                	sd	ra, 200(sp)
ffffffff80200778: 2a f5                	sd	a0, 168(sp)
ffffffff8020077a: 2e f9                	sd	a1, 176(sp)

ffffffff8020077c .LBB4_5:
ffffffff8020077c: 17 b6 00 00          	auipc	a2, 11
ffffffff80200780: 13 06 46 ab          	addi	a2, a2, -1356
ffffffff80200784: 10 62                	ld	a2, 0(a2)

ffffffff80200786 .LBB4_6:
ffffffff80200786: 97 b6 00 00          	auipc	a3, 11
ffffffff8020078a: 93 86 26 ad          	addi	a3, a3, -1326
ffffffff8020078e: 94 62                	ld	a3, 0(a3)
ffffffff80200790: 36 ed                	sd	a3, 152(sp)
ffffffff80200792: 2a f1                	sd	a0, 160(sp)
ffffffff80200794: 36 fd                	sd	a3, 184(sp)
ffffffff80200796: 2a 87                	add	a4, zero, a0
ffffffff80200798: aa e1                	sd	a0, 192(sp)

ffffffff8020079a .LBB4_7:
ffffffff8020079a: 17 45 00 00          	auipc	a0, 4
ffffffff8020079e: 13 05 e5 57          	addi	a0, a0, 1406
ffffffff802007a2: aa e0                	sd	a0, 64(sp)
ffffffff802007a4: 36 85                	add	a0, zero, a3
ffffffff802007a6: 86 66                	ld	a3, 64(sp)
ffffffff802007a8: 2e fc                	sd	a1, 56(sp)
ffffffff802007aa: b6 85                	add	a1, zero, a3
ffffffff802007ac: 32 f8                	sd	a2, 48(sp)
ffffffff802007ae: 3a f4                	sd	a4, 40(sp)
ffffffff802007b0: 97 40 00 00          	auipc	ra, 4
ffffffff802007b4: e7 80 40 59          	jalr	1428(ra)
ffffffff802007b8: 2a f0                	sd	a0, 32(sp)
ffffffff802007ba: 2e ec                	sd	a1, 24(sp)
ffffffff802007bc: 09 a0                	j	2

ffffffff802007be .LBB4_8:
ffffffff802007be: 97 a5 00 00          	auipc	a1, 10
ffffffff802007c2: 93 85 85 af          	addi	a1, a1, -1288
ffffffff802007c6: 22 75                	ld	a0, 40(sp)
ffffffff802007c8: 97 20 00 00          	auipc	ra, 2
ffffffff802007cc: e7 80 60 9c          	jalr	-1594(ra)
ffffffff802007d0: 2a e8                	sd	a0, 16(sp)
ffffffff802007d2: 2e e4                	sd	a1, 8(sp)
ffffffff802007d4: 09 a0                	j	2
ffffffff802007d6: 02 75                	ld	a0, 32(sp)
ffffffff802007d8: aa fc                	sd	a0, 120(sp)
ffffffff802007da: e2 65                	ld	a1, 24(sp)
ffffffff802007dc: 2e e1                	sd	a1, 128(sp)
ffffffff802007de: 42 66                	ld	a2, 16(sp)
ffffffff802007e0: 32 e5                	sd	a2, 136(sp)
ffffffff802007e2: a2 66                	ld	a3, 8(sp)
ffffffff802007e4: 36 e9                	sd	a3, 144(sp)
ffffffff802007e6: a8 00                	addi	a0, sp, 72
ffffffff802007e8: 0d 46                	addi	a2, zero, 3
ffffffff802007ea: b4 18                	addi	a3, sp, 120
ffffffff802007ec: 09 47                	addi	a4, zero, 2
ffffffff802007ee: c2 75                	ld	a1, 48(sp)
ffffffff802007f0: 97 00 00 00          	auipc	ra, 0
ffffffff802007f4: e7 80 a0 91          	jalr	-1766(ra)
ffffffff802007f8: 09 a0                	j	2
ffffffff802007fa: ac 00                	addi	a1, sp, 72
ffffffff802007fc: 62 75                	ld	a0, 56(sp)
ffffffff802007fe: 97 90 00 00          	auipc	ra, 9
ffffffff80200802: e7 80 40 ff          	jalr	-12(ra)
ffffffff80200806: 2a e0                	sd	a0, 0(sp)
ffffffff80200808: 09 a0                	j	2
ffffffff8020080a: 02 65                	ld	a0, 0(sp)
ffffffff8020080c: ae 60                	ld	ra, 200(sp)
ffffffff8020080e: 69 61                	addi	sp, sp, 208
ffffffff80200810: 82 80                	ret

ffffffff80200812 _ZN94_$LT$os..memory..address..PhysicalPageNumber$u20$as$u20$core..ops..arith..Add$LT$usize$GT$$GT$3add17he57c4c5fad01a5e3E:
ffffffff80200812: 79 71                	addi	sp, sp, -48
ffffffff80200814: 2a ec                	sd	a0, 24(sp)
ffffffff80200816: 2a e8                	sd	a0, 16(sp)
ffffffff80200818: 2e f4                	sd	a1, 40(sp)
ffffffff8020081a: aa 95                	add	a1, a1, a0
ffffffff8020081c: 2e e4                	sd	a1, 8(sp)
ffffffff8020081e: 63 e7 a5 00          	bltu	a1, a0, 14
ffffffff80200822: 09 a0                	j	2
ffffffff80200824: 22 65                	ld	a0, 8(sp)
ffffffff80200826: 2a f0                	sd	a0, 32(sp)
ffffffff80200828: 45 61                	addi	sp, sp, 48
ffffffff8020082a: 82 80                	ret

ffffffff8020082c .LBB5_3:
ffffffff8020082c: 17 b5 00 00          	auipc	a0, 11
ffffffff80200830: 13 05 45 9b          	addi	a0, a0, -1612

ffffffff80200834 .LBB5_4:
ffffffff80200834: 17 b6 00 00          	auipc	a2, 11
ffffffff80200838: 13 06 c6 a2          	addi	a2, a2, -1492
ffffffff8020083c: f1 45                	addi	a1, zero, 28
ffffffff8020083e: 97 80 00 00          	auipc	ra, 8
ffffffff80200842: e7 80 a0 02          	jalr	42(ra)
ffffffff80200846: 00 00                	unimp	

ffffffff80200848 _ZN81_$LT$os..memory..address..PhysicalPageNumber$u20$as$u20$core..ops..arith..Sub$GT$3sub17h60c82c29040b2d35E:
ffffffff80200848: 79 71                	addi	sp, sp, -48
ffffffff8020084a: 2a ec                	sd	a0, 24(sp)
ffffffff8020084c: 2a e8                	sd	a0, 16(sp)
ffffffff8020084e: 2e f4                	sd	a1, 40(sp)
ffffffff80200850: 2e f0                	sd	a1, 32(sp)
ffffffff80200852: b3 05 b5 40          	sub	a1, a0, a1
ffffffff80200856: 2e e4                	sd	a1, 8(sp)
ffffffff80200858: 63 66 b5 00          	bltu	a0, a1, 12
ffffffff8020085c: 09 a0                	j	2
ffffffff8020085e: 22 65                	ld	a0, 8(sp)
ffffffff80200860: 45 61                	addi	sp, sp, 48
ffffffff80200862: 82 80                	ret

ffffffff80200864 .LBB6_3:
ffffffff80200864: 17 b5 00 00          	auipc	a0, 11
ffffffff80200868: 13 05 c5 90          	addi	a0, a0, -1780

ffffffff8020086c .LBB6_4:
ffffffff8020086c: 17 b6 00 00          	auipc	a2, 11
ffffffff80200870: 13 06 46 9f          	addi	a2, a2, -1548
ffffffff80200874: 93 05 10 02          	addi	a1, zero, 33
ffffffff80200878: 97 80 00 00          	auipc	ra, 8
ffffffff8020087c: e7 80 00 ff          	jalr	-16(ra)
ffffffff80200880: 00 00                	unimp	

ffffffff80200882 _ZN2os6memory7address102_$LT$impl$u20$core..convert..From$LT$os..memory..address..PhysicalPageNumber$GT$$u20$for$u20$usize$GT$4from17he0f4ffd185fcccf2E:
ffffffff80200882: 41 11                	addi	sp, sp, -16
ffffffff80200884: 2a e4                	sd	a0, 8(sp)
ffffffff80200886: 2a e0                	sd	a0, 0(sp)
ffffffff80200888: 41 01                	addi	sp, sp, 16
ffffffff8020088a: 82 80                	ret

ffffffff8020088c _ZN4spin5mutex14Mutex$LT$T$GT$11obtain_lock17h46f27ce835d5f517E:
ffffffff8020088c: 39 71                	addi	sp, sp, -64
ffffffff8020088e: 06 fc                	sd	ra, 56(sp)
ffffffff80200890: 2a f8                	sd	a0, 48(sp)
ffffffff80200892: 2a f4                	sd	a0, 40(sp)
ffffffff80200894: 09 a0                	j	2
ffffffff80200896: 01 45                	mv	a0, zero
ffffffff80200898: 05 46                	addi	a2, zero, 1
ffffffff8020089a: 89 46                	addi	a3, zero, 2
ffffffff8020089c: a2 75                	ld	a1, 40(sp)
ffffffff8020089e: 2a f0                	sd	a0, 32(sp)
ffffffff802008a0: 2e 85                	add	a0, zero, a1
ffffffff802008a2: 82 75                	ld	a1, 32(sp)
ffffffff802008a4: 97 30 00 00          	auipc	ra, 3
ffffffff802008a8: e7 80 60 88          	jalr	-1914(ra)
ffffffff802008ac: 2a ec                	sd	a0, 24(sp)
ffffffff802008ae: 09 a0                	j	2
ffffffff802008b0: 01 45                	mv	a0, zero
ffffffff802008b2: e2 65                	ld	a1, 24(sp)
ffffffff802008b4: 63 96 a5 00          	bne	a1, a0, 12
ffffffff802008b8: 09 a0                	j	2
ffffffff802008ba: e2 70                	ld	ra, 56(sp)
ffffffff802008bc: 21 61                	addi	sp, sp, 64
ffffffff802008be: 82 80                	ret
ffffffff802008c0: 01 45                	mv	a0, zero
ffffffff802008c2: a2 75                	ld	a1, 40(sp)
ffffffff802008c4: 2a e8                	sd	a0, 16(sp)
ffffffff802008c6: 2e 85                	add	a0, zero, a1
ffffffff802008c8: c2 65                	ld	a1, 16(sp)
ffffffff802008ca: 97 30 00 00          	auipc	ra, 3
ffffffff802008ce: e7 80 40 9a          	jalr	-1628(ra)
ffffffff802008d2: 2a e4                	sd	a0, 8(sp)
ffffffff802008d4: 09 a0                	j	2
ffffffff802008d6: 22 65                	ld	a0, 8(sp)
ffffffff802008d8: 19 e1                	bnez	a0, 6
ffffffff802008da: 09 a0                	j	2
ffffffff802008dc: 6d bf                	j	-70
ffffffff802008de: 97 30 00 00          	auipc	ra, 3
ffffffff802008e2: e7 80 a0 b1          	jalr	-1254(ra)
ffffffff802008e6: 09 a0                	j	2
ffffffff802008e8: e1 bf                	j	-40

ffffffff802008ea _ZN4spin5mutex14Mutex$LT$T$GT$3new17hb3098106e95cc34dE:
ffffffff802008ea: 59 71                	addi	sp, sp, -112
ffffffff802008ec: 86 f4                	sd	ra, 104(sp)
ffffffff802008ee: 01 46                	mv	a2, zero
ffffffff802008f0: 2a e8                	sd	a0, 16(sp)
ffffffff802008f2: 32 85                	add	a0, zero, a2
ffffffff802008f4: 2e e4                	sd	a1, 8(sp)
ffffffff802008f6: 97 30 00 00          	auipc	ra, 3
ffffffff802008fa: e7 80 40 95          	jalr	-1708(ra)
ffffffff802008fe: a3 03 a1 06          	sb	a0, 103(sp)
ffffffff80200902: 23 0c a1 00          	sb	a0, 24(sp)
ffffffff80200906: 09 a0                	j	2
ffffffff80200908: 22 65                	ld	a0, 8(sp)
ffffffff8020090a: 0c 6d                	ld	a1, 24(a0)
ffffffff8020090c: ae ec                	sd	a1, 88(sp)
ffffffff8020090e: 0c 69                	ld	a1, 16(a0)
ffffffff80200910: ae e8                	sd	a1, 80(sp)
ffffffff80200912: 0c 65                	ld	a1, 8(a0)
ffffffff80200914: ae e4                	sd	a1, 72(sp)
ffffffff80200916: 0c 61                	ld	a1, 0(a0)
ffffffff80200918: ae e0                	sd	a1, 64(sp)
ffffffff8020091a: 08 10                	addi	a0, sp, 32
ffffffff8020091c: 8c 00                	addi	a1, sp, 64
ffffffff8020091e: 97 30 00 00          	auipc	ra, 3
ffffffff80200922: e7 80 e0 be          	jalr	-1042(ra)
ffffffff80200926: 09 a0                	j	2
ffffffff80200928: 03 05 81 01          	lb	a0, 24(sp)
ffffffff8020092c: c2 65                	ld	a1, 16(sp)
ffffffff8020092e: 23 80 a5 00          	sb	a0, 0(a1)
ffffffff80200932: 02 75                	ld	a0, 32(sp)
ffffffff80200934: 88 e5                	sd	a0, 8(a1)
ffffffff80200936: 22 75                	ld	a0, 40(sp)
ffffffff80200938: 88 e9                	sd	a0, 16(a1)
ffffffff8020093a: 42 75                	ld	a0, 48(sp)
ffffffff8020093c: 88 ed                	sd	a0, 24(a1)
ffffffff8020093e: 62 75                	ld	a0, 56(sp)
ffffffff80200940: 88 f1                	sd	a0, 32(a1)
ffffffff80200942: a6 70                	ld	ra, 104(sp)
ffffffff80200944: 65 61                	addi	sp, sp, 112
ffffffff80200946: 82 80                	ret

ffffffff80200948 _ZN4spin5mutex14Mutex$LT$T$GT$4lock17h8425a1a9383e74e5E:
ffffffff80200948: 39 71                	addi	sp, sp, -64
ffffffff8020094a: 06 fc                	sd	ra, 56(sp)
ffffffff8020094c: 2a f8                	sd	a0, 48(sp)
ffffffff8020094e: 2a ec                	sd	a0, 24(sp)
ffffffff80200950: 97 00 00 00          	auipc	ra, 0
ffffffff80200954: e7 80 c0 f3          	jalr	-196(ra)
ffffffff80200958: 09 a0                	j	2
ffffffff8020095a: 62 65                	ld	a0, 24(sp)
ffffffff8020095c: e2 65                	ld	a1, 24(sp)
ffffffff8020095e: 13 86 85 00          	addi	a2, a1, 8
ffffffff80200962: 2a e8                	sd	a0, 16(sp)
ffffffff80200964: 32 85                	add	a0, zero, a2
ffffffff80200966: 97 30 00 00          	auipc	ra, 3
ffffffff8020096a: e7 80 e0 b9          	jalr	-1122(ra)
ffffffff8020096e: 2a e4                	sd	a0, 8(sp)
ffffffff80200970: 09 a0                	j	2
ffffffff80200972: 42 65                	ld	a0, 16(sp)
ffffffff80200974: 2a f0                	sd	a0, 32(sp)
ffffffff80200976: a2 65                	ld	a1, 8(sp)
ffffffff80200978: 2e f4                	sd	a1, 40(sp)
ffffffff8020097a: e2 70                	ld	ra, 56(sp)
ffffffff8020097c: 21 61                	addi	sp, sp, 64
ffffffff8020097e: 82 80                	ret

ffffffff80200980 _ZN79_$LT$spin..mutex..MutexGuard$LT$T$GT$$u20$as$u20$core..ops..deref..DerefMut$GT$9deref_mut17h39f069deac2bb34aE:
ffffffff80200980: 41 11                	addi	sp, sp, -16
ffffffff80200982: 2a e4                	sd	a0, 8(sp)
ffffffff80200984: 08 65                	ld	a0, 8(a0)
ffffffff80200986: 41 01                	addi	sp, sp, 16
ffffffff80200988: 82 80                	ret

ffffffff8020098a _ZN4core3num12NonZeroUsize13new_unchecked17h678ef534b69b4ce2E:
ffffffff8020098a: 41 11                	addi	sp, sp, -16
ffffffff8020098c: 2a e4                	sd	a0, 8(sp)
ffffffff8020098e: 2a e0                	sd	a0, 0(sp)
ffffffff80200990: 41 01                	addi	sp, sp, 16
ffffffff80200992: 82 80                	ret

ffffffff80200994 _ZN4core3num12NonZeroUsize3get17he38f46ef644898fdE:
ffffffff80200994: 41 11                	addi	sp, sp, -16
ffffffff80200996: 2a e4                	sd	a0, 8(sp)
ffffffff80200998: 41 01                	addi	sp, sp, 16
ffffffff8020099a: 82 80                	ret

ffffffff8020099c _ZN4core3num21_$LT$impl$u20$i32$GT$13unchecked_add17hdd9eabd1fdd0ae63E:
ffffffff8020099c: 01 11                	addi	sp, sp, -32
ffffffff8020099e: 2e 86                	add	a2, zero, a1
ffffffff802009a0: aa 86                	add	a3, zero, a0
ffffffff802009a2: 2a ca                	sw	a0, 20(sp)
ffffffff802009a4: 2e cc                	sw	a1, 24(sp)
ffffffff802009a6: 2e 95                	add	a0, a0, a1
ffffffff802009a8: 2a ce                	sw	a0, 28(sp)
ffffffff802009aa: 02 15                	slli	a0, a0, 32
ffffffff802009ac: 01 91                	srli	a0, a0, 32
ffffffff802009ae: 2a e4                	sd	a0, 8(sp)
ffffffff802009b0: 09 a0                	j	2
ffffffff802009b2: 22 65                	ld	a0, 8(sp)
ffffffff802009b4: 05 61                	addi	sp, sp, 32
ffffffff802009b6: 82 80                	ret

ffffffff802009b8 _ZN2os6memory4heap4init17h7d250ef6f3e396f4E:
ffffffff802009b8: 79 71                	addi	sp, sp, -48
ffffffff802009ba: 06 f4                	sd	ra, 40(sp)

ffffffff802009bc .LBB0_7:
ffffffff802009bc: 17 f5 80 00          	auipc	a0, 2063
ffffffff802009c0: 13 05 45 68          	addi	a0, a0, 1668
ffffffff802009c4: 97 40 00 00          	auipc	ra, 4
ffffffff802009c8: e7 80 a0 87          	jalr	-1926(ra)
ffffffff802009cc: 2a e8                	sd	a0, 16(sp)
ffffffff802009ce: 09 a0                	j	2
ffffffff802009d0: 42 65                	ld	a0, 16(sp)
ffffffff802009d2: 97 50 00 00          	auipc	ra, 5
ffffffff802009d6: e7 80 c0 f7          	jalr	-132(ra)
ffffffff802009da: 2a ec                	sd	a0, 24(sp)
ffffffff802009dc: 2e f0                	sd	a1, 32(sp)
ffffffff802009de: 09 a0                	j	2
ffffffff802009e0: 28 08                	addi	a0, sp, 24
ffffffff802009e2: 97 50 00 00          	auipc	ra, 5
ffffffff802009e6: e7 80 00 fc          	jalr	-64(ra)
ffffffff802009ea: 2a e4                	sd	a0, 8(sp)
ffffffff802009ec: 09 a0                	j	2

ffffffff802009ee .LBB0_8:
ffffffff802009ee: 17 f5 00 00          	auipc	a0, 15
ffffffff802009f2: 13 05 25 65          	addi	a0, a0, 1618
ffffffff802009f6: b7 05 80 00          	lui	a1, 2048
ffffffff802009fa: 97 10 00 00          	auipc	ra, 1
ffffffff802009fe: e7 80 40 8f          	jalr	-1804(ra)
ffffffff80200a02: 2a e0                	sd	a0, 0(sp)
ffffffff80200a04: 09 a0                	j	2
ffffffff80200a06: 37 06 80 00          	lui	a2, 2048
ffffffff80200a0a: 22 65                	ld	a0, 8(sp)
ffffffff80200a0c: 82 65                	ld	a1, 0(sp)
ffffffff80200a0e: 97 30 00 00          	auipc	ra, 3
ffffffff80200a12: e7 80 40 fe          	jalr	-28(ra)
ffffffff80200a16: 09 a0                	j	2
ffffffff80200a18: 28 08                	addi	a0, sp, 24
ffffffff80200a1a: 97 50 00 00          	auipc	ra, 5
ffffffff80200a1e: e7 80 a0 18          	jalr	394(ra)
ffffffff80200a22: 09 a0                	j	2
ffffffff80200a24: a2 70                	ld	ra, 40(sp)
ffffffff80200a26: 45 61                	addi	sp, sp, 48
ffffffff80200a28: 82 80                	ret

ffffffff80200a2a rust_oom:
ffffffff80200a2a: 41 11                	addi	sp, sp, -16
ffffffff80200a2c: 2a e0                	sd	a0, 0(sp)
ffffffff80200a2e: 2e e4                	sd	a1, 8(sp)

ffffffff80200a30 .LBB1_1:
ffffffff80200a30: 17 b5 00 00          	auipc	a0, 11
ffffffff80200a34: 13 05 85 84          	addi	a0, a0, -1976

ffffffff80200a38 .LBB1_2:
ffffffff80200a38: 17 b6 00 00          	auipc	a2, 11
ffffffff80200a3c: 13 06 06 86          	addi	a2, a2, -1952
ffffffff80200a40: ad 45                	addi	a1, zero, 11
ffffffff80200a42: 97 80 00 00          	auipc	ra, 8
ffffffff80200a46: e7 80 60 e2          	jalr	-474(ra)
ffffffff80200a4a: 00 00                	unimp	

ffffffff80200a4c __rg_alloc:
ffffffff80200a4c: 79 71                	addi	sp, sp, -48
ffffffff80200a4e: 06 f4                	sd	ra, 40(sp)
ffffffff80200a50: 2a ec                	sd	a0, 24(sp)
ffffffff80200a52: 2e f0                	sd	a1, 32(sp)
ffffffff80200a54: 97 30 00 00          	auipc	ra, 3
ffffffff80200a58: e7 80 20 c1          	jalr	-1006(ra)
ffffffff80200a5c: 2a e8                	sd	a0, 16(sp)
ffffffff80200a5e: 2e e4                	sd	a1, 8(sp)
ffffffff80200a60: 09 a0                	j	2

ffffffff80200a62 .LBB2_3:
ffffffff80200a62: 17 f5 80 00          	auipc	a0, 2063
ffffffff80200a66: 13 05 e5 5d          	addi	a0, a0, 1502
ffffffff80200a6a: c2 65                	ld	a1, 16(sp)
ffffffff80200a6c: 22 66                	ld	a2, 8(sp)
ffffffff80200a6e: 97 30 00 00          	auipc	ra, 3
ffffffff80200a72: e7 80 80 7d          	jalr	2008(ra)
ffffffff80200a76: 2a e0                	sd	a0, 0(sp)
ffffffff80200a78: 09 a0                	j	2
ffffffff80200a7a: 02 65                	ld	a0, 0(sp)
ffffffff80200a7c: a2 70                	ld	ra, 40(sp)
ffffffff80200a7e: 45 61                	addi	sp, sp, 48
ffffffff80200a80: 82 80                	ret

ffffffff80200a82 __rg_dealloc:
ffffffff80200a82: 39 71                	addi	sp, sp, -64
ffffffff80200a84: 06 fc                	sd	ra, 56(sp)
ffffffff80200a86: 2a f0                	sd	a0, 32(sp)
ffffffff80200a88: 2e f4                	sd	a1, 40(sp)
ffffffff80200a8a: 32 f8                	sd	a2, 48(sp)
ffffffff80200a8c: 2a ec                	sd	a0, 24(sp)
ffffffff80200a8e: 2e 85                	add	a0, zero, a1
ffffffff80200a90: b2 85                	add	a1, zero, a2
ffffffff80200a92: 97 30 00 00          	auipc	ra, 3
ffffffff80200a96: e7 80 40 bd          	jalr	-1068(ra)
ffffffff80200a9a: 2a e8                	sd	a0, 16(sp)
ffffffff80200a9c: 2e e4                	sd	a1, 8(sp)
ffffffff80200a9e: 09 a0                	j	2

ffffffff80200aa0 .LBB3_3:
ffffffff80200aa0: 17 f5 80 00          	auipc	a0, 2063
ffffffff80200aa4: 13 05 05 5a          	addi	a0, a0, 1440
ffffffff80200aa8: e2 65                	ld	a1, 24(sp)
ffffffff80200aaa: 42 66                	ld	a2, 16(sp)
ffffffff80200aac: a2 66                	ld	a3, 8(sp)
ffffffff80200aae: 97 40 00 00          	auipc	ra, 4
ffffffff80200ab2: e7 80 60 82          	jalr	-2010(ra)
ffffffff80200ab6: 09 a0                	j	2
ffffffff80200ab8: e2 70                	ld	ra, 56(sp)
ffffffff80200aba: 21 61                	addi	sp, sp, 64
ffffffff80200abc: 82 80                	ret

ffffffff80200abe __rg_alloc_zeroed:
ffffffff80200abe: 79 71                	addi	sp, sp, -48
ffffffff80200ac0: 06 f4                	sd	ra, 40(sp)
ffffffff80200ac2: 2a ec                	sd	a0, 24(sp)
ffffffff80200ac4: 2e f0                	sd	a1, 32(sp)
ffffffff80200ac6: 97 30 00 00          	auipc	ra, 3
ffffffff80200aca: e7 80 00 ba          	jalr	-1120(ra)
ffffffff80200ace: 2a e8                	sd	a0, 16(sp)
ffffffff80200ad0: 2e e4                	sd	a1, 8(sp)
ffffffff80200ad2: 09 a0                	j	2

ffffffff80200ad4 .LBB5_3:
ffffffff80200ad4: 17 f5 80 00          	auipc	a0, 2063
ffffffff80200ad8: 13 05 c5 56          	addi	a0, a0, 1388
ffffffff80200adc: c2 65                	ld	a1, 16(sp)
ffffffff80200ade: 22 66                	ld	a2, 8(sp)
ffffffff80200ae0: 97 10 00 00          	auipc	ra, 1
ffffffff80200ae4: e7 80 80 7a          	jalr	1960(ra)
ffffffff80200ae8: 2a e0                	sd	a0, 0(sp)
ffffffff80200aea: 09 a0                	j	2
ffffffff80200aec: 02 65                	ld	a0, 0(sp)
ffffffff80200aee: a2 70                	ld	ra, 40(sp)
ffffffff80200af0: 45 61                	addi	sp, sp, 48
ffffffff80200af2: 82 80                	ret

ffffffff80200af4 _ZN50_$LT$$RF$mut$u20$T$u20$as$u20$core..fmt..Debug$GT$3fmt17h105159e7bafd4263E:
ffffffff80200af4: 01 11                	addi	sp, sp, -32
ffffffff80200af6: 06 ec                	sd	ra, 24(sp)
ffffffff80200af8: 2a e4                	sd	a0, 8(sp)
ffffffff80200afa: 2e e8                	sd	a1, 16(sp)
ffffffff80200afc: 08 61                	ld	a0, 0(a0)
ffffffff80200afe: 97 f0 ff ff          	auipc	ra, 1048575
ffffffff80200b02: e7 80 e0 62          	jalr	1582(ra)
ffffffff80200b06: 2a e0                	sd	a0, 0(sp)
ffffffff80200b08: 09 a0                	j	2
ffffffff80200b0a: 02 65                	ld	a0, 0(sp)
ffffffff80200b0c: e2 60                	ld	ra, 24(sp)
ffffffff80200b0e: 05 61                	addi	sp, sp, 32
ffffffff80200b10: 82 80                	ret

ffffffff80200b12 _ZN4core3ptr25swap_nonoverlapping_bytes17h9e160810b56ab676E:
ffffffff80200b12: 09 71                	addi	sp, sp, -384
ffffffff80200b14: 86 fe                	sd	ra, 376(sp)
ffffffff80200b16: a2 fa                	sd	s0, 368(sp)
ffffffff80200b18: 00 03                	addi	s0, sp, 384
ffffffff80200b1a: 13 71 01 fe          	andi	sp, sp, -32
ffffffff80200b1e: aa f9                	sd	a0, 240(sp)
ffffffff80200b20: ae fd                	sd	a1, 248(sp)
ffffffff80200b22: 32 e2                	sd	a2, 256(sp)
ffffffff80200b24: 93 06 00 02          	addi	a3, zero, 32
ffffffff80200b28: b6 e6                	sd	a3, 328(sp)
ffffffff80200b2a: 36 e6                	sd	a3, 264(sp)
ffffffff80200b2c: 32 e5                	sd	a2, 136(sp)
ffffffff80200b2e: 2e e1                	sd	a1, 128(sp)
ffffffff80200b30: aa fc                	sd	a0, 120(sp)
ffffffff80200b32: b6 f8                	sd	a3, 112(sp)
ffffffff80200b34: 09 a0                	j	2
ffffffff80200b36: 01 45                	mv	a0, zero
ffffffff80200b38: 2a ed                	sd	a0, 152(sp)
ffffffff80200b3a: 09 a0                	j	2
ffffffff80200b3c: 6a 65                	ld	a0, 152(sp)
ffffffff80200b3e: c6 75                	ld	a1, 112(sp)
ffffffff80200b40: 2e 95                	add	a0, a0, a1
ffffffff80200b42: 2a 66                	ld	a2, 136(sp)
ffffffff80200b44: 63 78 a6 00          	bgeu	a2, a0, 16
ffffffff80200b48: 09 a0                	j	2
ffffffff80200b4a: 6a 65                	ld	a0, 152(sp)
ffffffff80200b4c: aa 65                	ld	a1, 136(sp)
ffffffff80200b4e: 63 6e b5 06          	bltu	a0, a1, 124
ffffffff80200b52: 9d a8                	j	118
ffffffff80200b54: 09 a0                	j	2
ffffffff80200b56: 08 11                	addi	a0, sp, 160
ffffffff80200b58: aa f2                	sd	a0, 352(sp)
ffffffff80200b5a: aa f6                	sd	a0, 360(sp)
ffffffff80200b5c: 09 a0                	j	2
ffffffff80200b5e: 08 11                	addi	a0, sp, 160
ffffffff80200b60: 2a ea                	sd	a0, 272(sp)
ffffffff80200b62: ea 65                	ld	a1, 152(sp)
ffffffff80200b64: 66 76                	ld	a2, 120(sp)
ffffffff80200b66: aa f4                	sd	a0, 104(sp)
ffffffff80200b68: 32 85                	add	a0, zero, a2
ffffffff80200b6a: 97 40 00 00          	auipc	ra, 4
ffffffff80200b6e: e7 80 00 75          	jalr	1872(ra)
ffffffff80200b72: aa 85                	add	a1, zero, a0
ffffffff80200b74: 2a ee                	sd	a0, 280(sp)
ffffffff80200b76: ae f0                	sd	a1, 96(sp)
ffffffff80200b78: 09 a0                	j	2
ffffffff80200b7a: ea 65                	ld	a1, 152(sp)
ffffffff80200b7c: 0a 65                	ld	a0, 128(sp)
ffffffff80200b7e: 97 40 00 00          	auipc	ra, 4
ffffffff80200b82: e7 80 c0 73          	jalr	1852(ra)
ffffffff80200b86: aa 85                	add	a1, zero, a0
ffffffff80200b88: 2a f2                	sd	a0, 288(sp)
ffffffff80200b8a: ae ec                	sd	a1, 88(sp)
ffffffff80200b8c: 09 a0                	j	2
ffffffff80200b8e: 06 75                	ld	a0, 96(sp)
ffffffff80200b90: a6 75                	ld	a1, 104(sp)
ffffffff80200b92: 46 76                	ld	a2, 112(sp)
ffffffff80200b94: 97 40 00 00          	auipc	ra, 4
ffffffff80200b98: e7 80 c0 11          	jalr	284(ra)
ffffffff80200b9c: 09 a0                	j	2
ffffffff80200b9e: 66 65                	ld	a0, 88(sp)
ffffffff80200ba0: 86 75                	ld	a1, 96(sp)
ffffffff80200ba2: 46 76                	ld	a2, 112(sp)
ffffffff80200ba4: 97 40 00 00          	auipc	ra, 4
ffffffff80200ba8: e7 80 c0 10          	jalr	268(ra)
ffffffff80200bac: 09 a0                	j	2
ffffffff80200bae: 26 75                	ld	a0, 104(sp)
ffffffff80200bb0: e6 65                	ld	a1, 88(sp)
ffffffff80200bb2: 46 76                	ld	a2, 112(sp)
ffffffff80200bb4: 97 40 00 00          	auipc	ra, 4
ffffffff80200bb8: e7 80 c0 0f          	jalr	252(ra)
ffffffff80200bbc: 09 a0                	j	2
ffffffff80200bbe: 6a 65                	ld	a0, 152(sp)
ffffffff80200bc0: c6 75                	ld	a1, 112(sp)
ffffffff80200bc2: 2e 95                	add	a0, a0, a1
ffffffff80200bc4: 2a ed                	sd	a0, 152(sp)
ffffffff80200bc6: 9d bf                	j	-138
ffffffff80200bc8: bd a8                	j	126
ffffffff80200bca: 09 a0                	j	2
ffffffff80200bcc: 6a 65                	ld	a0, 152(sp)
ffffffff80200bce: aa 65                	ld	a1, 136(sp)
ffffffff80200bd0: 33 85 a5 40          	sub	a0, a1, a0
ffffffff80200bd4: 2a f6                	sd	a0, 296(sp)
ffffffff80200bd6: 90 09                	addi	a2, sp, 208
ffffffff80200bd8: b2 ea                	sd	a2, 336(sp)
ffffffff80200bda: b2 ee                	sd	a2, 344(sp)
ffffffff80200bdc: aa e8                	sd	a0, 80(sp)
ffffffff80200bde: b2 e4                	sd	a2, 72(sp)
ffffffff80200be0: 09 a0                	j	2
ffffffff80200be2: 26 65                	ld	a0, 72(sp)
ffffffff80200be4: a6 65                	ld	a1, 72(sp)
ffffffff80200be6: 2e fa                	sd	a1, 304(sp)
ffffffff80200be8: ea 65                	ld	a1, 152(sp)
ffffffff80200bea: 66 76                	ld	a2, 120(sp)
ffffffff80200bec: aa e0                	sd	a0, 64(sp)
ffffffff80200bee: 32 85                	add	a0, zero, a2
ffffffff80200bf0: 97 40 00 00          	auipc	ra, 4
ffffffff80200bf4: e7 80 a0 6c          	jalr	1738(ra)
ffffffff80200bf8: aa 85                	add	a1, zero, a0
ffffffff80200bfa: 2a fe                	sd	a0, 312(sp)
ffffffff80200bfc: 2e fc                	sd	a1, 56(sp)
ffffffff80200bfe: 09 a0                	j	2
ffffffff80200c00: ea 65                	ld	a1, 152(sp)
ffffffff80200c02: 0a 65                	ld	a0, 128(sp)
ffffffff80200c04: 97 40 00 00          	auipc	ra, 4
ffffffff80200c08: e7 80 60 6b          	jalr	1718(ra)
ffffffff80200c0c: aa 85                	add	a1, zero, a0
ffffffff80200c0e: aa e2                	sd	a0, 320(sp)
ffffffff80200c10: 2e f8                	sd	a1, 48(sp)
ffffffff80200c12: 09 a0                	j	2
ffffffff80200c14: 62 75                	ld	a0, 56(sp)
ffffffff80200c16: 86 65                	ld	a1, 64(sp)
ffffffff80200c18: 46 66                	ld	a2, 80(sp)
ffffffff80200c1a: 97 40 00 00          	auipc	ra, 4
ffffffff80200c1e: e7 80 60 09          	jalr	150(ra)
ffffffff80200c22: 09 a0                	j	2
ffffffff80200c24: 42 75                	ld	a0, 48(sp)
ffffffff80200c26: e2 75                	ld	a1, 56(sp)
ffffffff80200c28: 46 66                	ld	a2, 80(sp)
ffffffff80200c2a: 97 40 00 00          	auipc	ra, 4
ffffffff80200c2e: e7 80 60 08          	jalr	134(ra)
ffffffff80200c32: 09 a0                	j	2
ffffffff80200c34: 06 65                	ld	a0, 64(sp)
ffffffff80200c36: c2 75                	ld	a1, 48(sp)
ffffffff80200c38: 46 66                	ld	a2, 80(sp)
ffffffff80200c3a: 97 40 00 00          	auipc	ra, 4
ffffffff80200c3e: e7 80 60 07          	jalr	118(ra)
ffffffff80200c42: 09 a0                	j	2
ffffffff80200c44: 09 a0                	j	2
ffffffff80200c46: 13 01 04 e8          	addi	sp, s0, -384
ffffffff80200c4a: 56 74                	ld	s0, 368(sp)
ffffffff80200c4c: f6 70                	ld	ra, 376(sp)
ffffffff80200c4e: 19 61                	addi	sp, sp, 384
ffffffff80200c50: 82 80                	ret

ffffffff80200c52 _ZN50_$LT$T$u20$as$u20$core..convert..From$LT$T$GT$$GT$4from17h741566a7b2c5e09eE:
ffffffff80200c52: 01 11                	addi	sp, sp, -32
ffffffff80200c54: 2a e8                	sd	a0, 16(sp)
ffffffff80200c56: 2a e4                	sd	a0, 8(sp)
ffffffff80200c58: 2a ec                	sd	a0, 24(sp)
ffffffff80200c5a: 05 61                	addi	sp, sp, 32
ffffffff80200c5c: 82 80                	ret

ffffffff80200c5e _ZN50_$LT$T$u20$as$u20$core..convert..Into$LT$U$GT$$GT$4into17h4a016efb741ae5f1E:
ffffffff80200c5e: 79 71                	addi	sp, sp, -48
ffffffff80200c60: 06 f4                	sd	ra, 40(sp)
ffffffff80200c62: 2a e4                	sd	a0, 8(sp)
ffffffff80200c64: 2a e0                	sd	a0, 0(sp)
ffffffff80200c66: 2a ec                	sd	a0, 24(sp)
ffffffff80200c68: 97 00 00 00          	auipc	ra, 0
ffffffff80200c6c: e7 80 c0 a7          	jalr	-1412(ra)
ffffffff80200c70: 2a f0                	sd	a0, 32(sp)
ffffffff80200c72: 2a e8                	sd	a0, 16(sp)
ffffffff80200c74: 09 a0                	j	2
ffffffff80200c76: 42 65                	ld	a0, 16(sp)
ffffffff80200c78: a2 70                	ld	ra, 40(sp)
ffffffff80200c7a: 45 61                	addi	sp, sp, 48
ffffffff80200c7c: 82 80                	ret

ffffffff80200c7e _ZN50_$LT$T$u20$as$u20$core..convert..Into$LT$U$GT$$GT$4into17h92f5bc09a686d4e7E:
ffffffff80200c7e: 79 71                	addi	sp, sp, -48
ffffffff80200c80: 06 f4                	sd	ra, 40(sp)
ffffffff80200c82: 2a ec                	sd	a0, 24(sp)
ffffffff80200c84: 2a e8                	sd	a0, 16(sp)
ffffffff80200c86: 2a f0                	sd	a0, 32(sp)
ffffffff80200c88: 97 00 00 00          	auipc	ra, 0
ffffffff80200c8c: e7 80 a0 bf          	jalr	-1030(ra)
ffffffff80200c90: 2a e4                	sd	a0, 8(sp)
ffffffff80200c92: 09 a0                	j	2
ffffffff80200c94: 22 65                	ld	a0, 8(sp)
ffffffff80200c96: a2 70                	ld	ra, 40(sp)
ffffffff80200c98: 45 61                	addi	sp, sp, 48
ffffffff80200c9a: 82 80                	ret

ffffffff80200c9c _ZN50_$LT$T$u20$as$u20$core..convert..Into$LT$U$GT$$GT$4into17hef3801ccf9f90280E:
ffffffff80200c9c: 79 71                	addi	sp, sp, -48
ffffffff80200c9e: 06 f4                	sd	ra, 40(sp)
ffffffff80200ca0: 2a e4                	sd	a0, 8(sp)
ffffffff80200ca2: 2a e0                	sd	a0, 0(sp)
ffffffff80200ca4: 2a ec                	sd	a0, 24(sp)
ffffffff80200ca6: 97 00 00 00          	auipc	ra, 0
ffffffff80200caa: e7 80 c0 fa          	jalr	-84(ra)
ffffffff80200cae: 2a f0                	sd	a0, 32(sp)
ffffffff80200cb0: 2a e8                	sd	a0, 16(sp)
ffffffff80200cb2: 09 a0                	j	2
ffffffff80200cb4: 42 65                	ld	a0, 16(sp)
ffffffff80200cb6: a2 70                	ld	ra, 40(sp)
ffffffff80200cb8: 45 61                	addi	sp, sp, 48
ffffffff80200cba: 82 80                	ret

ffffffff80200cbc _ZN4core6option15Option$LT$T$GT$3map17h1803a3d3f084e399E:
ffffffff80200cbc: 79 71                	addi	sp, sp, -48
ffffffff80200cbe: 06 f4                	sd	ra, 40(sp)
ffffffff80200cc0: 2e 86                	add	a2, zero, a1
ffffffff80200cc2: aa 86                	add	a3, zero, a0
ffffffff80200cc4: 2a c4                	sw	a0, 8(sp)
ffffffff80200cc6: 2e c6                	sw	a1, 12(sp)
ffffffff80200cc8: 85 45                	addi	a1, zero, 1
ffffffff80200cca: a3 0f b1 00          	sb	a1, 31(sp)
ffffffff80200cce: 02 15                	slli	a0, a0, 32
ffffffff80200cd0: 01 91                	srli	a0, a0, 32
ffffffff80200cd2: 81 45                	mv	a1, zero
ffffffff80200cd4: 63 04 b5 00          	beq	a0, a1, 8
ffffffff80200cd8: 09 a0                	j	2
ffffffff80200cda: 31 a0                	j	12
ffffffff80200cdc: 37 05 11 00          	lui	a0, 272
ffffffff80200ce0: 2a ca                	sw	a0, 20(sp)
ffffffff80200ce2: 1d a8                	j	54
ffffffff80200ce4: 00 00                	unimp	
ffffffff80200ce6: 32 45                	lw	a0, 12(sp)
ffffffff80200ce8: 2a d2                	sw	a0, 36(sp)
ffffffff80200cea: 81 45                	mv	a1, zero
ffffffff80200cec: a3 0f b1 00          	sb	a1, 31(sp)
ffffffff80200cf0: 2a cc                	sw	a0, 24(sp)
ffffffff80200cf2: 97 20 00 00          	auipc	ra, 2
ffffffff80200cf6: e7 80 40 a1          	jalr	-1516(ra)
ffffffff80200cfa: 02 15                	slli	a0, a0, 32
ffffffff80200cfc: 01 91                	srli	a0, a0, 32
ffffffff80200cfe: 2a e0                	sd	a0, 0(sp)
ffffffff80200d00: 09 a0                	j	2
ffffffff80200d02: 02 65                	ld	a0, 0(sp)
ffffffff80200d04: 2a ca                	sw	a0, 20(sp)
ffffffff80200d06: 09 a8                	j	18
ffffffff80200d08: 52 45                	lw	a0, 20(sp)
ffffffff80200d0a: a2 70                	ld	ra, 40(sp)
ffffffff80200d0c: 45 61                	addi	sp, sp, 48
ffffffff80200d0e: 82 80                	ret
ffffffff80200d10: 01 45                	mv	a0, zero
ffffffff80200d12: a3 0f a1 00          	sb	a0, 31(sp)
ffffffff80200d16: cd bf                	j	-14
ffffffff80200d18: 03 45 f1 01          	lbu	a0, 31(sp)
ffffffff80200d1c: 05 89                	andi	a0, a0, 1
ffffffff80200d1e: 6d f9                	bnez	a0, -14
ffffffff80200d20: e5 b7                	j	-24

ffffffff80200d22 _ZN4core6option15Option$LT$T$GT$5ok_or17h4b7d7ca7e345a29bE:
ffffffff80200d22: 79 71                	addi	sp, sp, -48
ffffffff80200d24: 2a e4                	sd	a0, 8(sp)
ffffffff80200d26: 85 45                	addi	a1, zero, 1
ffffffff80200d28: a3 0f b1 00          	sb	a1, 31(sp)
ffffffff80200d2c: b3 35 a0 00          	snez	a1, a0
ffffffff80200d30: 01 46                	mv	a2, zero
ffffffff80200d32: 63 04 c5 00          	beq	a0, a2, 8
ffffffff80200d36: 09 a0                	j	2
ffffffff80200d38: 39 a0                	j	14
ffffffff80200d3a: 01 45                	mv	a0, zero
ffffffff80200d3c: a3 0f a1 00          	sb	a0, 31(sp)
ffffffff80200d40: 2a e8                	sd	a0, 16(sp)
ffffffff80200d42: 31 a0                	j	12
ffffffff80200d44: 00 00                	unimp	
ffffffff80200d46: 22 65                	ld	a0, 8(sp)
ffffffff80200d48: 2a f4                	sd	a0, 40(sp)
ffffffff80200d4a: 2a e8                	sd	a0, 16(sp)
ffffffff80200d4c: 09 a0                	j	2
ffffffff80200d4e: 03 45 f1 01          	lbu	a0, 31(sp)
ffffffff80200d52: 05 89                	andi	a0, a0, 1
ffffffff80200d54: 09 e5                	bnez	a0, 10
ffffffff80200d56: 09 a0                	j	2
ffffffff80200d58: 42 65                	ld	a0, 16(sp)
ffffffff80200d5a: 45 61                	addi	sp, sp, 48
ffffffff80200d5c: 82 80                	ret
ffffffff80200d5e: 01 45                	mv	a0, zero
ffffffff80200d60: a3 0f a1 00          	sb	a0, 31(sp)
ffffffff80200d64: d5 bf                	j	-12

ffffffff80200d66 _ZN4core6option15Option$LT$T$GT$5ok_or17h8563d0534196ba42E:
ffffffff80200d66: 5d 71                	addi	sp, sp, -80
ffffffff80200d68: 2e f0                	sd	a1, 32(sp)
ffffffff80200d6a: 32 f4                	sd	a2, 40(sp)
ffffffff80200d6c: 36 fc                	sd	a3, 56(sp)
ffffffff80200d6e: ba e0                	sd	a4, 64(sp)
ffffffff80200d70: 05 46                	addi	a2, zero, 1
ffffffff80200d72: a3 0b c1 02          	sb	a2, 55(sp)
ffffffff80200d76: 2e 86                	add	a2, zero, a1
ffffffff80200d78: 81 47                	mv	a5, zero
ffffffff80200d7a: 3a ec                	sd	a4, 24(sp)
ffffffff80200d7c: 36 e8                	sd	a3, 16(sp)
ffffffff80200d7e: 2a e4                	sd	a0, 8(sp)
ffffffff80200d80: 63 84 f5 00          	beq	a1, a5, 8
ffffffff80200d84: 09 a0                	j	2
ffffffff80200d86: 29 a8                	j	26
ffffffff80200d88: 01 45                	mv	a0, zero
ffffffff80200d8a: a3 0b a1 02          	sb	a0, 55(sp)
ffffffff80200d8e: 42 65                	ld	a0, 16(sp)
ffffffff80200d90: a2 65                	ld	a1, 8(sp)
ffffffff80200d92: 88 e5                	sd	a0, 8(a1)
ffffffff80200d94: 62 66                	ld	a2, 24(sp)
ffffffff80200d96: 90 e9                	sd	a2, 16(a1)
ffffffff80200d98: 85 46                	addi	a3, zero, 1
ffffffff80200d9a: 94 e1                	sd	a3, 0(a1)
ffffffff80200d9c: 09 a8                	j	18
ffffffff80200d9e: 00 00                	unimp	
ffffffff80200da0: 22 75                	ld	a0, 40(sp)
ffffffff80200da2: aa e4                	sd	a0, 72(sp)
ffffffff80200da4: a2 65                	ld	a1, 8(sp)
ffffffff80200da6: 88 e5                	sd	a0, 8(a1)
ffffffff80200da8: 01 45                	mv	a0, zero
ffffffff80200daa: 88 e1                	sd	a0, 0(a1)
ffffffff80200dac: 09 a0                	j	2
ffffffff80200dae: 03 45 71 03          	lbu	a0, 55(sp)
ffffffff80200db2: 05 89                	andi	a0, a0, 1
ffffffff80200db4: 01 e5                	bnez	a0, 8
ffffffff80200db6: 09 a0                	j	2
ffffffff80200db8: 61 61                	addi	sp, sp, 80
ffffffff80200dba: 82 80                	ret
ffffffff80200dbc: 01 45                	mv	a0, zero
ffffffff80200dbe: a3 0b a1 02          	sb	a0, 55(sp)
ffffffff80200dc2: dd bf                	j	-10

ffffffff80200dc4 _ZN4core6option15Option$LT$T$GT$6as_ref17h40a4139f97daa39eE:
ffffffff80200dc4: 01 11                	addi	sp, sp, -32
ffffffff80200dc6: 2a e8                	sd	a0, 16(sp)
ffffffff80200dc8: 0c 61                	ld	a1, 0(a0)
ffffffff80200dca: 01 46                	mv	a2, zero
ffffffff80200dcc: 2a e0                	sd	a0, 0(sp)
ffffffff80200dce: 63 84 c5 00          	beq	a1, a2, 8
ffffffff80200dd2: 09 a0                	j	2
ffffffff80200dd4: 29 a0                	j	10
ffffffff80200dd6: 01 45                	mv	a0, zero
ffffffff80200dd8: 2a e4                	sd	a0, 8(sp)
ffffffff80200dda: 01 a8                	j	16
ffffffff80200ddc: 00 00                	unimp	
ffffffff80200dde: 02 65                	ld	a0, 0(sp)
ffffffff80200de0: 93 05 85 00          	addi	a1, a0, 8
ffffffff80200de4: 2e ec                	sd	a1, 24(sp)
ffffffff80200de6: 2e e4                	sd	a1, 8(sp)
ffffffff80200de8: 09 a0                	j	2
ffffffff80200dea: 22 65                	ld	a0, 8(sp)
ffffffff80200dec: 05 61                	addi	sp, sp, 32
ffffffff80200dee: 82 80                	ret

ffffffff80200df0 _ZN4core6option15Option$LT$T$GT$6as_ref17h63257b832ffae735E:
ffffffff80200df0: 01 11                	addi	sp, sp, -32
ffffffff80200df2: 2a e8                	sd	a0, 16(sp)
ffffffff80200df4: 0c 61                	ld	a1, 0(a0)
ffffffff80200df6: 01 46                	mv	a2, zero
ffffffff80200df8: 2a e0                	sd	a0, 0(sp)
ffffffff80200dfa: 63 84 c5 00          	beq	a1, a2, 8
ffffffff80200dfe: 09 a0                	j	2
ffffffff80200e00: 29 a0                	j	10
ffffffff80200e02: 01 45                	mv	a0, zero
ffffffff80200e04: 2a e4                	sd	a0, 8(sp)
ffffffff80200e06: 01 a8                	j	16
ffffffff80200e08: 00 00                	unimp	
ffffffff80200e0a: 02 65                	ld	a0, 0(sp)
ffffffff80200e0c: 93 05 85 00          	addi	a1, a0, 8
ffffffff80200e10: 2e ec                	sd	a1, 24(sp)
ffffffff80200e12: 2e e4                	sd	a1, 8(sp)
ffffffff80200e14: 09 a0                	j	2
ffffffff80200e16: 22 65                	ld	a0, 8(sp)
ffffffff80200e18: 05 61                	addi	sp, sp, 32
ffffffff80200e1a: 82 80                	ret

ffffffff80200e1c _ZN4core6option15Option$LT$T$GT$6unwrap17hc222b7d3916652cbE:
ffffffff80200e1c: 01 11                	addi	sp, sp, -32
ffffffff80200e1e: 2a e8                	sd	a0, 16(sp)
ffffffff80200e20: 33 36 a0 00          	snez	a2, a0
ffffffff80200e24: 81 46                	mv	a3, zero
ffffffff80200e26: 2e e4                	sd	a1, 8(sp)
ffffffff80200e28: 63 04 d5 00          	beq	a0, a3, 8
ffffffff80200e2c: 09 a0                	j	2
ffffffff80200e2e: 31 a8                	j	28

ffffffff80200e30 .LBB5_5:
ffffffff80200e30: 17 a5 00 00          	auipc	a0, 10
ffffffff80200e34: 13 05 05 48          	addi	a0, a0, 1152
ffffffff80200e38: 93 05 b0 02          	addi	a1, zero, 43
ffffffff80200e3c: 22 66                	ld	a2, 8(sp)
ffffffff80200e3e: 97 80 00 00          	auipc	ra, 8
ffffffff80200e42: e7 80 a0 a2          	jalr	-1494(ra)
ffffffff80200e46: 00 00                	unimp	
ffffffff80200e48: 00 00                	unimp	
ffffffff80200e4a: 42 65                	ld	a0, 16(sp)
ffffffff80200e4c: 2a ec                	sd	a0, 24(sp)
ffffffff80200e4e: 05 61                	addi	sp, sp, 32
ffffffff80200e50: 82 80                	ret

ffffffff80200e52 _ZN69_$LT$core..option..Option$LT$T$GT$$u20$as$u20$core..ops..try..Try$GT$10from_error17haa2ab8ad36b4bf70E:
ffffffff80200e52: 41 11                	addi	sp, sp, -16
ffffffff80200e54: 01 45                	mv	a0, zero
ffffffff80200e56: 2a c0                	sw	a0, 0(sp)
ffffffff80200e58: 92 45                	lw	a1, 4(sp)
ffffffff80200e5a: 41 01                	addi	sp, sp, 16
ffffffff80200e5c: 82 80                	ret

ffffffff80200e5e _ZN69_$LT$core..option..Option$LT$T$GT$$u20$as$u20$core..ops..try..Try$GT$11into_result17h3e6f2a1278e5e95dE:
ffffffff80200e5e: 01 11                	addi	sp, sp, -32
ffffffff80200e60: 06 ec                	sd	ra, 24(sp)
ffffffff80200e62: 2a e8                	sd	a0, 16(sp)
ffffffff80200e64: 97 00 00 00          	auipc	ra, 0
ffffffff80200e68: e7 80 e0 eb          	jalr	-322(ra)
ffffffff80200e6c: 2a e4                	sd	a0, 8(sp)
ffffffff80200e6e: 09 a0                	j	2
ffffffff80200e70: 22 65                	ld	a0, 8(sp)
ffffffff80200e72: e2 60                	ld	ra, 24(sp)
ffffffff80200e74: 05 61                	addi	sp, sp, 32
ffffffff80200e76: 82 80                	ret

ffffffff80200e78 _ZN2os6memory4init17h9a80da9bfa25f967E:
ffffffff80200e78: 39 71                	addi	sp, sp, -64
ffffffff80200e7a: 06 fc                	sd	ra, 56(sp)
ffffffff80200e7c: 97 00 00 00          	auipc	ra, 0
ffffffff80200e80: e7 80 c0 b3          	jalr	-1220(ra)
ffffffff80200e84: 09 a0                	j	2
ffffffff80200e86: 97 f0 ff ff          	auipc	ra, 1048575
ffffffff80200e8a: e7 80 80 1b          	jalr	440(ra)
ffffffff80200e8e: 09 a0                	j	2

ffffffff80200e90 .LBB0_5:
ffffffff80200e90: 17 a5 00 00          	auipc	a0, 10
ffffffff80200e94: 13 05 85 47          	addi	a0, a0, 1144
ffffffff80200e98: 0c 61                	ld	a1, 0(a0)

ffffffff80200e9a .LBB0_6:
ffffffff80200e9a: 17 a5 00 00          	auipc	a0, 10
ffffffff80200e9e: 13 05 65 47          	addi	a0, a0, 1142
ffffffff80200ea2: 14 61                	ld	a3, 0(a0)
ffffffff80200ea4: 28 00                	addi	a0, sp, 8
ffffffff80200ea6: 05 46                	addi	a2, zero, 1
ffffffff80200ea8: 01 47                	mv	a4, zero
ffffffff80200eaa: 97 f0 ff ff          	auipc	ra, 1048575
ffffffff80200eae: e7 80 00 26          	jalr	608(ra)
ffffffff80200eb2: 09 a0                	j	2
ffffffff80200eb4: 28 00                	addi	a0, sp, 8
ffffffff80200eb6: 97 f0 ff ff          	auipc	ra, 1048575
ffffffff80200eba: e7 80 60 53          	jalr	1334(ra)
ffffffff80200ebe: 09 a0                	j	2
ffffffff80200ec0: e2 70                	ld	ra, 56(sp)
ffffffff80200ec2: 21 61                	addi	sp, sp, 64
ffffffff80200ec4: 82 80                	ret

ffffffff80200ec6 _ZN2os6memory5frame13frame_tracker12FrameTracker7address17hc60b8c79a27ff184E:
ffffffff80200ec6: 79 71                	addi	sp, sp, -48
ffffffff80200ec8: 06 f4                	sd	ra, 40(sp)
ffffffff80200eca: 2a ec                	sd	a0, 24(sp)
ffffffff80200ecc: 08 61                	ld	a0, 0(a0)
ffffffff80200ece: 2a e8                	sd	a0, 16(sp)
ffffffff80200ed0: 97 00 00 00          	auipc	ra, 0
ffffffff80200ed4: e7 80 e0 d8          	jalr	-626(ra)
ffffffff80200ed8: 2a f0                	sd	a0, 32(sp)
ffffffff80200eda: 2a e4                	sd	a0, 8(sp)
ffffffff80200edc: 09 a0                	j	2
ffffffff80200ede: 22 65                	ld	a0, 8(sp)
ffffffff80200ee0: a2 70                	ld	ra, 40(sp)
ffffffff80200ee2: 45 61                	addi	sp, sp, 48
ffffffff80200ee4: 82 80                	ret

ffffffff80200ee6 _ZN2os6memory5frame13frame_tracker12FrameTracker11page_number17hb4d0a8444ecceeddE:
ffffffff80200ee6: 41 11                	addi	sp, sp, -16
ffffffff80200ee8: 2a e4                	sd	a0, 8(sp)
ffffffff80200eea: 08 61                	ld	a0, 0(a0)
ffffffff80200eec: 2a e0                	sd	a0, 0(sp)
ffffffff80200eee: 41 01                	addi	sp, sp, 16
ffffffff80200ef0: 82 80                	ret
ffffffff80200ef2: 00 00                	unimp	

ffffffff80200ef4 __interrupt:
ffffffff80200ef4: 73 11 01 14          	csrrw	sp, sscratch, sp
ffffffff80200ef8: 6d 71                	addi	sp, sp, -272
ffffffff80200efa: 06 e4                	sd	ra, 8(sp)
ffffffff80200efc: f3 20 00 14          	csrr	ra, sscratch
ffffffff80200f00: 06 e8                	sd	ra, 16(sp)
ffffffff80200f02: 0e ec                	sd	gp, 24(sp)
ffffffff80200f04: 12 f0                	sd	tp, 32(sp)
ffffffff80200f06: 16 f4                	sd	t0, 40(sp)
ffffffff80200f08: 1a f8                	sd	t1, 48(sp)
ffffffff80200f0a: 1e fc                	sd	t2, 56(sp)
ffffffff80200f0c: a2 e0                	sd	s0, 64(sp)
ffffffff80200f0e: a6 e4                	sd	s1, 72(sp)
ffffffff80200f10: aa e8                	sd	a0, 80(sp)
ffffffff80200f12: ae ec                	sd	a1, 88(sp)
ffffffff80200f14: b2 f0                	sd	a2, 96(sp)
ffffffff80200f16: b6 f4                	sd	a3, 104(sp)
ffffffff80200f18: ba f8                	sd	a4, 112(sp)
ffffffff80200f1a: be fc                	sd	a5, 120(sp)
ffffffff80200f1c: 42 e1                	sd	a6, 128(sp)
ffffffff80200f1e: 46 e5                	sd	a7, 136(sp)
ffffffff80200f20: 4a e9                	sd	s2, 144(sp)
ffffffff80200f22: 4e ed                	sd	s3, 152(sp)
ffffffff80200f24: 52 f1                	sd	s4, 160(sp)
ffffffff80200f26: 56 f5                	sd	s5, 168(sp)
ffffffff80200f28: 5a f9                	sd	s6, 176(sp)
ffffffff80200f2a: 5e fd                	sd	s7, 184(sp)
ffffffff80200f2c: e2 e1                	sd	s8, 192(sp)
ffffffff80200f2e: e6 e5                	sd	s9, 200(sp)
ffffffff80200f30: ea e9                	sd	s10, 208(sp)
ffffffff80200f32: ee ed                	sd	s11, 216(sp)
ffffffff80200f34: f2 f1                	sd	t3, 224(sp)
ffffffff80200f36: f6 f5                	sd	t4, 232(sp)
ffffffff80200f38: fa f9                	sd	t5, 240(sp)
ffffffff80200f3a: fe fd                	sd	t6, 248(sp)
ffffffff80200f3c: f3 22 00 10          	csrr	t0, sstatus
ffffffff80200f40: 73 23 10 14          	csrr	t1, sepc
ffffffff80200f44: 16 e2                	sd	t0, 256(sp)
ffffffff80200f46: 1a e6                	sd	t1, 264(sp)
ffffffff80200f48: 0a 85                	add	a0, zero, sp
ffffffff80200f4a: f3 25 20 14          	csrr	a1, scause
ffffffff80200f4e: 73 26 30 14          	csrr	a2, stval
ffffffff80200f52: ef 00 a0 07          	jal	122

ffffffff80200f56 __restore:
ffffffff80200f56: 2a 81                	add	sp, zero, a0
ffffffff80200f58: 92 62                	ld	t0, 256(sp)
ffffffff80200f5a: 32 63                	ld	t1, 264(sp)
ffffffff80200f5c: 73 90 02 10          	csrw	sstatus, t0
ffffffff80200f60: 73 10 13 14          	csrw	sepc, t1
ffffffff80200f64: 93 02 01 11          	addi	t0, sp, 272
ffffffff80200f68: 73 90 02 14          	csrw	sscratch, t0
ffffffff80200f6c: a2 60                	ld	ra, 8(sp)
ffffffff80200f6e: e2 61                	ld	gp, 24(sp)
ffffffff80200f70: 02 72                	ld	tp, 32(sp)
ffffffff80200f72: a2 72                	ld	t0, 40(sp)
ffffffff80200f74: 42 73                	ld	t1, 48(sp)
ffffffff80200f76: e2 73                	ld	t2, 56(sp)
ffffffff80200f78: 06 64                	ld	s0, 64(sp)
ffffffff80200f7a: a6 64                	ld	s1, 72(sp)
ffffffff80200f7c: 46 65                	ld	a0, 80(sp)
ffffffff80200f7e: e6 65                	ld	a1, 88(sp)
ffffffff80200f80: 06 76                	ld	a2, 96(sp)
ffffffff80200f82: a6 76                	ld	a3, 104(sp)
ffffffff80200f84: 46 77                	ld	a4, 112(sp)
ffffffff80200f86: e6 77                	ld	a5, 120(sp)
ffffffff80200f88: 0a 68                	ld	a6, 128(sp)
ffffffff80200f8a: aa 68                	ld	a7, 136(sp)
ffffffff80200f8c: 4a 69                	ld	s2, 144(sp)
ffffffff80200f8e: ea 69                	ld	s3, 152(sp)
ffffffff80200f90: 0a 7a                	ld	s4, 160(sp)
ffffffff80200f92: aa 7a                	ld	s5, 168(sp)
ffffffff80200f94: 4a 7b                	ld	s6, 176(sp)
ffffffff80200f96: ea 7b                	ld	s7, 184(sp)
ffffffff80200f98: 0e 6c                	ld	s8, 192(sp)
ffffffff80200f9a: ae 6c                	ld	s9, 200(sp)
ffffffff80200f9c: 4e 6d                	ld	s10, 208(sp)
ffffffff80200f9e: ee 6d                	ld	s11, 216(sp)
ffffffff80200fa0: 0e 7e                	ld	t3, 224(sp)
ffffffff80200fa2: ae 7e                	ld	t4, 232(sp)
ffffffff80200fa4: 4e 7f                	ld	t5, 240(sp)
ffffffff80200fa6: ee 7f                	ld	t6, 248(sp)
ffffffff80200fa8: 42 61                	ld	sp, 16(sp)
ffffffff80200faa: 73 00 20 10          	sret	

ffffffff80200fae _ZN2os9interrupt7handler4init17hecef8d0c284477fbE:
ffffffff80200fae: 41 11                	addi	sp, sp, -16
ffffffff80200fb0: 06 e4                	sd	ra, 8(sp)

ffffffff80200fb2 .LBB0_2:
ffffffff80200fb2: 17 05 00 00          	auipc	a0, 0
ffffffff80200fb6: 13 05 25 f4          	addi	a0, a0, -190
ffffffff80200fba: 81 45                	mv	a1, zero
ffffffff80200fbc: 97 00 00 00          	auipc	ra, 0
ffffffff80200fc0: e7 80 20 22          	jalr	546(ra)
ffffffff80200fc4: 09 a0                	j	2
ffffffff80200fc6: a2 60                	ld	ra, 8(sp)
ffffffff80200fc8: 41 01                	addi	sp, sp, 16
ffffffff80200fca: 82 80                	ret

ffffffff80200fcc handle_interrupt:
ffffffff80200fcc: 5d 71                	addi	sp, sp, -80
ffffffff80200fce: 86 e4                	sd	ra, 72(sp)
ffffffff80200fd0: 2e f0                	sd	a1, 32(sp)
ffffffff80200fd2: 2a fc                	sd	a0, 56(sp)
ffffffff80200fd4: b2 e0                	sd	a2, 64(sp)
ffffffff80200fd6: 0c 10                	addi	a1, sp, 32
ffffffff80200fd8: 2a ec                	sd	a0, 24(sp)
ffffffff80200fda: 2e 85                	add	a0, zero, a1
ffffffff80200fdc: 32 e8                	sd	a2, 16(sp)
ffffffff80200fde: 97 20 00 00          	auipc	ra, 2
ffffffff80200fe2: e7 80 40 60          	jalr	1540(ra)
ffffffff80200fe6: 23 08 a1 02          	sb	a0, 48(sp)
ffffffff80200fea: a3 08 b1 02          	sb	a1, 49(sp)
ffffffff80200fee: 09 a0                	j	2
ffffffff80200ff0: 03 45 01 03          	lbu	a0, 48(sp)
ffffffff80200ff4: 93 75 15 00          	andi	a1, a0, 1
ffffffff80200ff8: 01 46                	mv	a2, zero
ffffffff80200ffa: 2a e4                	sd	a0, 8(sp)
ffffffff80200ffc: 63 88 c5 00          	beq	a1, a2, 16
ffffffff80201000: 09 a0                	j	2
ffffffff80201002: 05 45                	addi	a0, zero, 1
ffffffff80201004: a2 65                	ld	a1, 8(sp)
ffffffff80201006: 63 81 a5 02          	beq	a1, a0, 34
ffffffff8020100a: 39 a0                	j	14
ffffffff8020100c: 03 45 11 03          	lbu	a0, 49(sp)
ffffffff80201010: 8d 45                	addi	a1, zero, 3
ffffffff80201012: 63 08 b5 02          	beq	a0, a1, 48
ffffffff80201016: 09 a0                	j	2
ffffffff80201018: 82 75                	ld	a1, 32(sp)
ffffffff8020101a: 62 65                	ld	a0, 24(sp)
ffffffff8020101c: 42 66                	ld	a2, 16(sp)
ffffffff8020101e: 97 00 00 00          	auipc	ra, 0
ffffffff80201022: e7 80 a0 0e          	jalr	234(ra)
ffffffff80201026: 2d a0                	j	42
ffffffff80201028: 03 45 11 03          	lbu	a0, 49(sp)
ffffffff8020102c: 8d 45                	addi	a1, zero, 3
ffffffff8020102e: e3 15 b5 fe          	bne	a0, a1, -22
ffffffff80201032: 09 a0                	j	2
ffffffff80201034: 62 65                	ld	a0, 24(sp)
ffffffff80201036: 97 00 00 00          	auipc	ra, 0
ffffffff8020103a: e7 80 20 02          	jalr	34(ra)
ffffffff8020103e: 09 a0                	j	2
ffffffff80201040: 09 a8                	j	18
ffffffff80201042: 62 65                	ld	a0, 24(sp)
ffffffff80201044: 97 00 00 00          	auipc	ra, 0
ffffffff80201048: e7 80 e0 0a          	jalr	174(ra)
ffffffff8020104c: 09 a0                	j	2
ffffffff8020104e: 11 a0                	j	4
ffffffff80201050: 09 a0                	j	2
ffffffff80201052: a6 60                	ld	ra, 72(sp)
ffffffff80201054: 61 61                	addi	sp, sp, 80
ffffffff80201056: 82 80                	ret

ffffffff80201058 _ZN2os9interrupt7handler10breakpoint17hb7f3d5e39d0b1b74E:
ffffffff80201058: 75 71                	addi	sp, sp, -144
ffffffff8020105a: 06 e5                	sd	ra, 136(sp)
ffffffff8020105c: aa fc                	sd	a0, 120(sp)

ffffffff8020105e .LBB2_6:
ffffffff8020105e: 97 a5 00 00          	auipc	a1, 10
ffffffff80201062: 93 85 25 31          	addi	a1, a1, 786
ffffffff80201066: 8c 61                	ld	a1, 0(a1)
ffffffff80201068: 13 06 85 10          	addi	a2, a0, 264
ffffffff8020106c: b2 f8                	sd	a2, 112(sp)
ffffffff8020106e: 32 e1                	sd	a2, 128(sp)

ffffffff80201070 .LBB2_7:
ffffffff80201070: 97 96 00 00          	auipc	a3, 9
ffffffff80201074: 93 86 66 24          	addi	a3, a3, 582
ffffffff80201078: 2a f4                	sd	a0, 40(sp)
ffffffff8020107a: 32 85                	add	a0, zero, a2
ffffffff8020107c: 2e f0                	sd	a1, 32(sp)
ffffffff8020107e: b6 85                	add	a1, zero, a3
ffffffff80201080: 97 10 00 00          	auipc	ra, 1
ffffffff80201084: e7 80 e0 10          	jalr	270(ra)
ffffffff80201088: 2a ec                	sd	a0, 24(sp)
ffffffff8020108a: 2e e8                	sd	a1, 16(sp)
ffffffff8020108c: 09 a0                	j	2
ffffffff8020108e: 62 65                	ld	a0, 24(sp)
ffffffff80201090: aa f0                	sd	a0, 96(sp)
ffffffff80201092: c2 65                	ld	a1, 16(sp)
ffffffff80201094: ae f4                	sd	a1, 104(sp)
ffffffff80201096: 08 18                	addi	a0, sp, 48
ffffffff80201098: 09 46                	addi	a2, zero, 2
ffffffff8020109a: 94 10                	addi	a3, sp, 96
ffffffff8020109c: 05 47                	addi	a4, zero, 1
ffffffff8020109e: 82 75                	ld	a1, 32(sp)
ffffffff802010a0: 97 f0 ff ff          	auipc	ra, 1048575
ffffffff802010a4: e7 80 a0 06          	jalr	106(ra)
ffffffff802010a8: 09 a0                	j	2
ffffffff802010aa: 08 18                	addi	a0, sp, 48
ffffffff802010ac: 97 f0 ff ff          	auipc	ra, 1048575
ffffffff802010b0: e7 80 00 34          	jalr	832(ra)
ffffffff802010b4: 09 a0                	j	2
ffffffff802010b6: 22 75                	ld	a0, 40(sp)
ffffffff802010b8: 83 35 85 10          	ld	a1, 264(a0)
ffffffff802010bc: 13 86 25 00          	addi	a2, a1, 2
ffffffff802010c0: 32 e4                	sd	a2, 8(sp)
ffffffff802010c2: 63 6a b6 00          	bltu	a2, a1, 20
ffffffff802010c6: 09 a0                	j	2
ffffffff802010c8: 22 65                	ld	a0, 8(sp)
ffffffff802010ca: a2 75                	ld	a1, 40(sp)
ffffffff802010cc: 23 b4 a5 10          	sd	a0, 264(a1)
ffffffff802010d0: aa 60                	ld	ra, 136(sp)
ffffffff802010d2: 49 61                	addi	sp, sp, 144
ffffffff802010d4: 82 80                	ret

ffffffff802010d6 .LBB2_8:
ffffffff802010d6: 17 a5 00 00          	auipc	a0, 10
ffffffff802010da: 13 05 a5 2d          	addi	a0, a0, 730

ffffffff802010de .LBB2_9:
ffffffff802010de: 17 a6 00 00          	auipc	a2, 10
ffffffff802010e2: 13 06 26 2b          	addi	a2, a2, 690
ffffffff802010e6: f1 45                	addi	a1, zero, 28
ffffffff802010e8: 97 70 00 00          	auipc	ra, 7
ffffffff802010ec: e7 80 00 78          	jalr	1920(ra)
ffffffff802010f0: 00 00                	unimp	

ffffffff802010f2 _ZN2os9interrupt7handler16supervisor_timer17h59aaec6261c6f005E:
ffffffff802010f2: 41 11                	addi	sp, sp, -16
ffffffff802010f4: 06 e4                	sd	ra, 8(sp)
ffffffff802010f6: 2a e0                	sd	a0, 0(sp)
ffffffff802010f8: 97 f0 ff ff          	auipc	ra, 1048575
ffffffff802010fc: e7 80 80 3a          	jalr	936(ra)
ffffffff80201100: 09 a0                	j	2
ffffffff80201102: a2 60                	ld	ra, 8(sp)
ffffffff80201104: 41 01                	addi	sp, sp, 16
ffffffff80201106: 82 80                	ret

ffffffff80201108 _ZN2os9interrupt7handler5fault17h2079ad118d912aefE:
ffffffff80201108: 11 71                	addi	sp, sp, -256
ffffffff8020110a: 86 fd                	sd	ra, 248(sp)
ffffffff8020110c: aa e4                	sd	a0, 72(sp)
ffffffff8020110e: ae e8                	sd	a1, 80(sp)
ffffffff80201110: b2 ec                	sd	a2, 88(sp)

ffffffff80201112 .LBB4_6:
ffffffff80201112: 17 a5 00 00          	auipc	a0, 10
ffffffff80201116: 13 05 65 32          	addi	a0, a0, 806
ffffffff8020111a: 0c 61                	ld	a1, 0(a0)
ffffffff8020111c: 88 08                	addi	a0, sp, 80
ffffffff8020111e: ae e0                	sd	a1, 64(sp)
ffffffff80201120: 97 20 00 00          	auipc	ra, 2
ffffffff80201124: e7 80 20 4c          	jalr	1218(ra)
ffffffff80201128: 23 0c a1 0c          	sb	a0, 216(sp)
ffffffff8020112c: a3 0c b1 0c          	sb	a1, 217(sp)
ffffffff80201130: 09 a0                	j	2
ffffffff80201132: a8 09                	addi	a0, sp, 216
ffffffff80201134: aa e1                	sd	a0, 192(sp)
ffffffff80201136: ac 00                	addi	a1, sp, 72
ffffffff80201138: ae e5                	sd	a1, 200(sp)
ffffffff8020113a: b0 08                	addi	a2, sp, 88
ffffffff8020113c: b2 e9                	sd	a2, 208(sp)
ffffffff8020113e: aa f1                	sd	a0, 224(sp)
ffffffff80201140: ae f5                	sd	a1, 232(sp)
ffffffff80201142: b2 f9                	sd	a2, 240(sp)

ffffffff80201144 .LBB4_7:
ffffffff80201144: 97 76 00 00          	auipc	a3, 7
ffffffff80201148: 93 86 26 fd          	addi	a3, a3, -46
ffffffff8020114c: 2e fc                	sd	a1, 56(sp)
ffffffff8020114e: b6 85                	add	a1, zero, a3
ffffffff80201150: 32 f8                	sd	a2, 48(sp)
ffffffff80201152: 97 10 00 00          	auipc	ra, 1
ffffffff80201156: e7 80 a0 01          	jalr	26(ra)
ffffffff8020115a: 2a f4                	sd	a0, 40(sp)
ffffffff8020115c: 2e f0                	sd	a1, 32(sp)
ffffffff8020115e: 09 a0                	j	2

ffffffff80201160 .LBB4_8:
ffffffff80201160: 97 05 00 00          	auipc	a1, 0
ffffffff80201164: 93 85 45 99          	addi	a1, a1, -1644
ffffffff80201168: 62 75                	ld	a0, 56(sp)
ffffffff8020116a: 97 10 00 00          	auipc	ra, 1
ffffffff8020116e: e7 80 00 fe          	jalr	-32(ra)
ffffffff80201172: 2a ec                	sd	a0, 24(sp)
ffffffff80201174: 2e e8                	sd	a1, 16(sp)
ffffffff80201176: 09 a0                	j	2

ffffffff80201178 .LBB4_9:
ffffffff80201178: 97 95 00 00          	auipc	a1, 9
ffffffff8020117c: 93 85 e5 13          	addi	a1, a1, 318
ffffffff80201180: 42 75                	ld	a0, 48(sp)
ffffffff80201182: 97 10 00 00          	auipc	ra, 1
ffffffff80201186: e7 80 c0 00          	jalr	12(ra)
ffffffff8020118a: 2a e4                	sd	a0, 8(sp)
ffffffff8020118c: 2e e0                	sd	a1, 0(sp)
ffffffff8020118e: 09 a0                	j	2
ffffffff80201190: 22 75                	ld	a0, 40(sp)
ffffffff80201192: 2a e9                	sd	a0, 144(sp)
ffffffff80201194: 82 75                	ld	a1, 32(sp)
ffffffff80201196: 2e ed                	sd	a1, 152(sp)
ffffffff80201198: 62 66                	ld	a2, 24(sp)
ffffffff8020119a: 32 f1                	sd	a2, 160(sp)
ffffffff8020119c: c2 66                	ld	a3, 16(sp)
ffffffff8020119e: 36 f5                	sd	a3, 168(sp)
ffffffff802011a0: 22 67                	ld	a4, 8(sp)
ffffffff802011a2: 3a f9                	sd	a4, 176(sp)
ffffffff802011a4: 82 67                	ld	a5, 0(sp)
ffffffff802011a6: 3e fd                	sd	a5, 184(sp)

ffffffff802011a8 .LBB4_10:
ffffffff802011a8: 17 a8 00 00          	auipc	a6, 10
ffffffff802011ac: 13 08 08 34          	addi	a6, a6, 832
ffffffff802011b0: 83 37 08 00          	ld	a5, 0(a6)
ffffffff802011b4: 88 10                	addi	a0, sp, 96
ffffffff802011b6: 14 09                	addi	a3, sp, 144
ffffffff802011b8: 0d 48                	addi	a6, zero, 3
ffffffff802011ba: 86 65                	ld	a1, 64(sp)
ffffffff802011bc: 42 86                	add	a2, zero, a6
ffffffff802011be: 42 87                	add	a4, zero, a6
ffffffff802011c0: 97 f0 ff ff          	auipc	ra, 1048575
ffffffff802011c4: e7 80 40 f2          	jalr	-220(ra)
ffffffff802011c8: 09 a0                	j	2

ffffffff802011ca .LBB4_11:
ffffffff802011ca: 97 a5 00 00          	auipc	a1, 10
ffffffff802011ce: 93 85 65 32          	addi	a1, a1, 806
ffffffff802011d2: 88 10                	addi	a0, sp, 96
ffffffff802011d4: 97 70 00 00          	auipc	ra, 7
ffffffff802011d8: e7 80 00 70          	jalr	1792(ra)
ffffffff802011dc: 00 00                	unimp	

ffffffff802011de _ZN5riscv8register5stvec5write17h9dc6828939414963E:
ffffffff802011de: 01 11                	addi	sp, sp, -32
ffffffff802011e0: 06 ec                	sd	ra, 24(sp)
ffffffff802011e2: 2e 86                	add	a2, zero, a1
ffffffff802011e4: 2a e4                	sd	a0, 8(sp)
ffffffff802011e6: a3 0b b1 00          	sb	a1, 23(sp)
ffffffff802011ea: aa 95                	add	a1, a1, a0
ffffffff802011ec: 2e e0                	sd	a1, 0(sp)
ffffffff802011ee: 63 ec a5 00          	bltu	a1, a0, 24
ffffffff802011f2: 09 a0                	j	2
ffffffff802011f4: 02 65                	ld	a0, 0(sp)
ffffffff802011f6: 97 00 00 00          	auipc	ra, 0
ffffffff802011fa: e7 80 c0 02          	jalr	44(ra)
ffffffff802011fe: 09 a0                	j	2
ffffffff80201200: e2 60                	ld	ra, 24(sp)
ffffffff80201202: 05 61                	addi	sp, sp, 32
ffffffff80201204: 82 80                	ret

ffffffff80201206 .LBB0_4:
ffffffff80201206: 17 a5 00 00          	auipc	a0, 10
ffffffff8020120a: 13 05 a5 37          	addi	a0, a0, 890

ffffffff8020120e .LBB0_5:
ffffffff8020120e: 17 a6 00 00          	auipc	a2, 10
ffffffff80201212: 13 06 26 35          	addi	a2, a2, 850
ffffffff80201216: f1 45                	addi	a1, zero, 28
ffffffff80201218: 97 70 00 00          	auipc	ra, 7
ffffffff8020121c: e7 80 00 65          	jalr	1616(ra)
ffffffff80201220: 00 00                	unimp	

ffffffff80201222 _ZN5riscv8register5stvec6_write17hdcdad7143f60c338E:
ffffffff80201222: 41 11                	addi	sp, sp, -16
ffffffff80201224: 2a e4                	sd	a0, 8(sp)
ffffffff80201226: 73 10 55 10          	csrw	stvec, a0
ffffffff8020122a: 41 01                	addi	sp, sp, 16
ffffffff8020122c: 82 80                	ret

ffffffff8020122e _ZN4core5slice29_$LT$impl$u20$$u5b$T$u5d$$GT$10as_mut_ptr17hf26710beaec7bf3eE:
ffffffff8020122e: 41 11                	addi	sp, sp, -16
ffffffff80201230: 2a e0                	sd	a0, 0(sp)
ffffffff80201232: 2e e4                	sd	a1, 8(sp)
ffffffff80201234: 41 01                	addi	sp, sp, 16
ffffffff80201236: 82 80                	ret

ffffffff80201238 _ZN4core5slice29_$LT$impl$u20$$u5b$T$u5d$$GT$3len17h1fa0f9e92b133e27E:
ffffffff80201238: 01 11                	addi	sp, sp, -32
ffffffff8020123a: 2a e8                	sd	a0, 16(sp)
ffffffff8020123c: 2e ec                	sd	a1, 24(sp)
ffffffff8020123e: 2a e0                	sd	a0, 0(sp)
ffffffff80201240: 2e e4                	sd	a1, 8(sp)
ffffffff80201242: 2e 85                	add	a0, zero, a1
ffffffff80201244: 05 61                	addi	sp, sp, 32
ffffffff80201246: 82 80                	ret

ffffffff80201248 _ZN4core5slice29_$LT$impl$u20$$u5b$T$u5d$$GT$4iter17h66b88a12f47378c1E:
ffffffff80201248: 75 71                	addi	sp, sp, -144
ffffffff8020124a: 06 e5                	sd	ra, 136(sp)
ffffffff8020124c: aa f4                	sd	a0, 104(sp)
ffffffff8020124e: ae f8                	sd	a1, 112(sp)
ffffffff80201250: aa e0                	sd	a0, 64(sp)
ffffffff80201252: 2e fc                	sd	a1, 56(sp)
ffffffff80201254: 97 00 00 00          	auipc	ra, 0
ffffffff80201258: e7 80 a0 09          	jalr	154(ra)
ffffffff8020125c: aa 85                	add	a1, zero, a0
ffffffff8020125e: aa fc                	sd	a0, 120(sp)
ffffffff80201260: 2e f8                	sd	a1, 48(sp)
ffffffff80201262: 09 a0                	j	2
ffffffff80201264: 42 75                	ld	a0, 48(sp)
ffffffff80201266: 97 00 00 00          	auipc	ra, 0
ffffffff8020126a: e7 80 20 59          	jalr	1426(ra)
ffffffff8020126e: 09 a0                	j	2
ffffffff80201270: 09 a0                	j	2
ffffffff80201272: 05 45                	addi	a0, zero, 1
ffffffff80201274: 2a e1                	sd	a0, 128(sp)
ffffffff80201276: 2a f4                	sd	a0, 40(sp)
ffffffff80201278: 09 a0                	j	2
ffffffff8020127a: 01 45                	mv	a0, zero
ffffffff8020127c: a2 75                	ld	a1, 40(sp)
ffffffff8020127e: 63 8b a5 00          	beq	a1, a0, 22
ffffffff80201282: 09 a0                	j	2
ffffffff80201284: 06 65                	ld	a0, 64(sp)
ffffffff80201286: e2 75                	ld	a1, 56(sp)
ffffffff80201288: 97 00 00 00          	auipc	ra, 0
ffffffff8020128c: e7 80 00 fb          	jalr	-80(ra)
ffffffff80201290: 2a f0                	sd	a0, 32(sp)
ffffffff80201292: 25 a0                	j	40
ffffffff80201294: 06 65                	ld	a0, 64(sp)
ffffffff80201296: e2 75                	ld	a1, 56(sp)
ffffffff80201298: 97 00 00 00          	auipc	ra, 0
ffffffff8020129c: e7 80 00 fa          	jalr	-96(ra)
ffffffff802012a0: 2a ec                	sd	a0, 24(sp)
ffffffff802012a2: 09 a0                	j	2
ffffffff802012a4: 42 75                	ld	a0, 48(sp)
ffffffff802012a6: e2 65                	ld	a1, 24(sp)
ffffffff802012a8: 97 70 00 00          	auipc	ra, 7
ffffffff802012ac: e7 80 20 44          	jalr	1090(ra)
ffffffff802012b0: 2a e8                	sd	a0, 16(sp)
ffffffff802012b2: 09 a0                	j	2
ffffffff802012b4: 42 65                	ld	a0, 16(sp)
ffffffff802012b6: aa ec                	sd	a0, 88(sp)
ffffffff802012b8: 11 a8                	j	20
ffffffff802012ba: 42 75                	ld	a0, 48(sp)
ffffffff802012bc: 82 75                	ld	a1, 32(sp)
ffffffff802012be: 97 00 00 00          	auipc	ra, 0
ffffffff802012c2: e7 80 a0 50          	jalr	1290(ra)
ffffffff802012c6: aa ec                	sd	a0, 88(sp)
ffffffff802012c8: 09 a0                	j	2
ffffffff802012ca: 09 a0                	j	2
ffffffff802012cc: 42 75                	ld	a0, 48(sp)
ffffffff802012ce: 97 40 00 00          	auipc	ra, 4
ffffffff802012d2: e7 80 00 06          	jalr	96(ra)
ffffffff802012d6: 2a e4                	sd	a0, 8(sp)
ffffffff802012d8: 09 a0                	j	2
ffffffff802012da: 66 65                	ld	a0, 88(sp)
ffffffff802012dc: a2 65                	ld	a1, 8(sp)
ffffffff802012de: ae e4                	sd	a1, 72(sp)
ffffffff802012e0: aa e8                	sd	a0, 80(sp)
ffffffff802012e2: 2a e0                	sd	a0, 0(sp)
ffffffff802012e4: 2e 85                	add	a0, zero, a1
ffffffff802012e6: 82 65                	ld	a1, 0(sp)
ffffffff802012e8: aa 60                	ld	ra, 136(sp)
ffffffff802012ea: 49 61                	addi	sp, sp, 144
ffffffff802012ec: 82 80                	ret

ffffffff802012ee _ZN4core5slice29_$LT$impl$u20$$u5b$T$u5d$$GT$6as_ptr17h17e67dc37b3a9f5dE:
ffffffff802012ee: 41 11                	addi	sp, sp, -16
ffffffff802012f0: 2a e0                	sd	a0, 0(sp)
ffffffff802012f2: 2e e4                	sd	a1, 8(sp)
ffffffff802012f4: 41 01                	addi	sp, sp, 16
ffffffff802012f6: 82 80                	ret

ffffffff802012f8 _ZN4core5slice74_$LT$impl$u20$core..ops..index..Index$LT$I$GT$$u20$for$u20$$u5b$T$u5d$$GT$5index17hb6f0f67e0c09f1f5E:
ffffffff802012f8: 79 71                	addi	sp, sp, -48
ffffffff802012fa: 06 f4                	sd	ra, 40(sp)
ffffffff802012fc: 2a e8                	sd	a0, 16(sp)
ffffffff802012fe: 2e ec                	sd	a1, 24(sp)
ffffffff80201300: 97 10 00 00          	auipc	ra, 1
ffffffff80201304: e7 80 60 0c          	jalr	198(ra)
ffffffff80201308: 2a e4                	sd	a0, 8(sp)
ffffffff8020130a: 2e e0                	sd	a1, 0(sp)
ffffffff8020130c: 09 a0                	j	2
ffffffff8020130e: 22 65                	ld	a0, 8(sp)
ffffffff80201310: 82 65                	ld	a1, 0(sp)
ffffffff80201312: a2 70                	ld	ra, 40(sp)
ffffffff80201314: 45 61                	addi	sp, sp, 48
ffffffff80201316: 82 80                	ret

ffffffff80201318 _ZN4core5slice77_$LT$impl$u20$core..ops..index..IndexMut$LT$I$GT$$u20$for$u20$$u5b$T$u5d$$GT$9index_mut17hcd2116e91c60a3c7E:
ffffffff80201318: 79 71                	addi	sp, sp, -48
ffffffff8020131a: 06 f4                	sd	ra, 40(sp)
ffffffff8020131c: 2a e8                	sd	a0, 16(sp)
ffffffff8020131e: 2e ec                	sd	a1, 24(sp)
ffffffff80201320: 97 10 00 00          	auipc	ra, 1
ffffffff80201324: e7 80 00 0b          	jalr	176(ra)
ffffffff80201328: 2a e4                	sd	a0, 8(sp)
ffffffff8020132a: 2e e0                	sd	a1, 0(sp)
ffffffff8020132c: 09 a0                	j	2
ffffffff8020132e: 22 65                	ld	a0, 8(sp)
ffffffff80201330: 82 65                	ld	a1, 0(sp)
ffffffff80201332: a2 70                	ld	ra, 40(sp)
ffffffff80201334: 45 61                	addi	sp, sp, 48
ffffffff80201336: 82 80                	ret

ffffffff80201338 _ZN4core5slice77_$LT$impl$u20$core..ops..index..IndexMut$LT$I$GT$$u20$for$u20$$u5b$T$u5d$$GT$9index_mut17heea581314c590627E:
ffffffff80201338: 39 71                	addi	sp, sp, -64
ffffffff8020133a: 06 fc                	sd	ra, 56(sp)
ffffffff8020133c: 2a f0                	sd	a0, 32(sp)
ffffffff8020133e: 2e f4                	sd	a1, 40(sp)
ffffffff80201340: 32 f8                	sd	a2, 48(sp)
ffffffff80201342: 2a ec                	sd	a0, 24(sp)
ffffffff80201344: 32 85                	add	a0, zero, a2
ffffffff80201346: 62 66                	ld	a2, 24(sp)
ffffffff80201348: 2e e8                	sd	a1, 16(sp)
ffffffff8020134a: b2 85                	add	a1, zero, a2
ffffffff8020134c: 42 66                	ld	a2, 16(sp)
ffffffff8020134e: 97 10 00 00          	auipc	ra, 1
ffffffff80201352: e7 80 00 fc          	jalr	-64(ra)
ffffffff80201356: 2a e4                	sd	a0, 8(sp)
ffffffff80201358: 2e e0                	sd	a1, 0(sp)
ffffffff8020135a: 09 a0                	j	2
ffffffff8020135c: 22 65                	ld	a0, 8(sp)
ffffffff8020135e: 82 65                	ld	a1, 0(sp)
ffffffff80201360: e2 70                	ld	ra, 56(sp)
ffffffff80201362: 21 61                	addi	sp, sp, 64
ffffffff80201364: 82 80                	ret

ffffffff80201366 _ZN63_$LT$I$u20$as$u20$core..iter..traits..collect..IntoIterator$GT$9into_iter17h2e3f05ee1ecfcb31E:
ffffffff80201366: 41 11                	addi	sp, sp, -16
ffffffff80201368: 2a e0                	sd	a0, 0(sp)
ffffffff8020136a: 2e e4                	sd	a1, 8(sp)
ffffffff8020136c: 41 01                	addi	sp, sp, 16
ffffffff8020136e: 82 80                	ret

ffffffff80201370 _ZN63_$LT$I$u20$as$u20$core..iter..traits..collect..IntoIterator$GT$9into_iter17hf8cd609e8a0b4e05E:
ffffffff80201370: 41 11                	addi	sp, sp, -16
ffffffff80201372: 2a e0                	sd	a0, 0(sp)
ffffffff80201374: 2e e4                	sd	a1, 8(sp)
ffffffff80201376: 41 01                	addi	sp, sp, 16
ffffffff80201378: 82 80                	ret

ffffffff8020137a _ZN85_$LT$core..slice..Iter$LT$T$GT$$u20$as$u20$core..iter..traits..iterator..Iterator$GT$4next17h67b303a1f1b8c124E:
ffffffff8020137a: 19 71                	addi	sp, sp, -128
ffffffff8020137c: 86 fc                	sd	ra, 120(sp)
ffffffff8020137e: aa e0                	sd	a0, 64(sp)
ffffffff80201380: 0c 61                	ld	a1, 0(a0)
ffffffff80201382: 2a f8                	sd	a0, 48(sp)
ffffffff80201384: 2e 85                	add	a0, zero, a1
ffffffff80201386: 97 40 00 00          	auipc	ra, 4
ffffffff8020138a: e7 80 20 ff          	jalr	-14(ra)
ffffffff8020138e: 2a f4                	sd	a0, 40(sp)
ffffffff80201390: 09 a0                	j	2
ffffffff80201392: 22 75                	ld	a0, 40(sp)
ffffffff80201394: 97 40 00 00          	auipc	ra, 4
ffffffff80201398: e7 80 c0 f6          	jalr	-148(ra)
ffffffff8020139c: 09 a0                	j	2
ffffffff8020139e: 09 a0                	j	2
ffffffff802013a0: 05 45                	addi	a0, zero, 1
ffffffff802013a2: aa e4                	sd	a0, 72(sp)
ffffffff802013a4: 2a f0                	sd	a0, 32(sp)
ffffffff802013a6: 09 a0                	j	2
ffffffff802013a8: 01 45                	mv	a0, zero
ffffffff802013aa: 82 75                	ld	a1, 32(sp)
ffffffff802013ac: 63 94 a5 00          	bne	a1, a0, 8
ffffffff802013b0: 09 a0                	j	2
ffffffff802013b2: 11 a8                	j	20
ffffffff802013b4: 42 75                	ld	a0, 48(sp)
ffffffff802013b6: 08 65                	ld	a0, 8(a0)
ffffffff802013b8: 97 00 00 00          	auipc	ra, 0
ffffffff802013bc: e7 80 00 44          	jalr	1088(ra)
ffffffff802013c0: 09 a0                	j	2
ffffffff802013c2: 09 a0                	j	2
ffffffff802013c4: 09 a0                	j	2
ffffffff802013c6: 42 75                	ld	a0, 48(sp)
ffffffff802013c8: 08 61                	ld	a0, 0(a0)
ffffffff802013ca: 97 40 00 00          	auipc	ra, 4
ffffffff802013ce: e7 80 e0 fa          	jalr	-82(ra)
ffffffff802013d2: 2a ec                	sd	a0, 24(sp)
ffffffff802013d4: 09 a0                	j	2
ffffffff802013d6: 42 75                	ld	a0, 48(sp)
ffffffff802013d8: 0c 65                	ld	a1, 8(a0)
ffffffff802013da: 62 66                	ld	a2, 24(sp)
ffffffff802013dc: 63 0b b6 06          	beq	a2, a1, 118
ffffffff802013e0: 09 a0                	j	2
ffffffff802013e2: 42 75                	ld	a0, 48(sp)
ffffffff802013e4: aa ec                	sd	a0, 88(sp)
ffffffff802013e6: 85 45                	addi	a1, zero, 1
ffffffff802013e8: ae f0                	sd	a1, 96(sp)
ffffffff802013ea: ae f8                	sd	a1, 112(sp)
ffffffff802013ec: 81 45                	mv	a1, zero
ffffffff802013ee: 9d ed                	bnez	a1, 62
ffffffff802013f0: 09 a0                	j	2
ffffffff802013f2: 42 75                	ld	a0, 48(sp)
ffffffff802013f4: 08 61                	ld	a0, 0(a0)
ffffffff802013f6: 97 40 00 00          	auipc	ra, 4
ffffffff802013fa: e7 80 20 f8          	jalr	-126(ra)
ffffffff802013fe: aa f4                	sd	a0, 104(sp)
ffffffff80201400: c2 75                	ld	a1, 48(sp)
ffffffff80201402: 90 61                	ld	a2, 0(a1)
ffffffff80201404: 2a e8                	sd	a0, 16(sp)
ffffffff80201406: 32 85                	add	a0, zero, a2
ffffffff80201408: 97 40 00 00          	auipc	ra, 4
ffffffff8020140c: e7 80 00 f7          	jalr	-144(ra)
ffffffff80201410: 85 45                	addi	a1, zero, 1
ffffffff80201412: 97 40 00 00          	auipc	ra, 4
ffffffff80201416: e7 80 40 ec          	jalr	-316(ra)
ffffffff8020141a: 97 40 00 00          	auipc	ra, 4
ffffffff8020141e: e7 80 40 f1          	jalr	-236(ra)
ffffffff80201422: c2 75                	ld	a1, 48(sp)
ffffffff80201424: 88 e1                	sd	a0, 0(a1)
ffffffff80201426: 42 65                	ld	a0, 16(sp)
ffffffff80201428: aa e8                	sd	a0, 80(sp)
ffffffff8020142a: 0d a0                	j	34
ffffffff8020142c: 42 75                	ld	a0, 48(sp)
ffffffff8020142e: 08 65                	ld	a0, 8(a0)
ffffffff80201430: fd 55                	addi	a1, zero, -1
ffffffff80201432: 97 70 00 00          	auipc	ra, 7
ffffffff80201436: e7 80 40 2d          	jalr	724(ra)
ffffffff8020143a: c2 75                	ld	a1, 48(sp)
ffffffff8020143c: 88 e5                	sd	a0, 8(a1)
ffffffff8020143e: 88 61                	ld	a0, 0(a1)
ffffffff80201440: 97 40 00 00          	auipc	ra, 4
ffffffff80201444: e7 80 80 f3          	jalr	-200(ra)
ffffffff80201448: aa e8                	sd	a0, 80(sp)
ffffffff8020144a: 09 a0                	j	2
ffffffff8020144c: 46 65                	ld	a0, 80(sp)
ffffffff8020144e: 2a e4                	sd	a0, 8(sp)
ffffffff80201450: 21 a0                	j	8
ffffffff80201452: 01 45                	mv	a0, zero
ffffffff80201454: 2a fc                	sd	a0, 56(sp)
ffffffff80201456: 21 a0                	j	8
ffffffff80201458: 22 65                	ld	a0, 8(sp)
ffffffff8020145a: 2a fc                	sd	a0, 56(sp)
ffffffff8020145c: 09 a0                	j	2
ffffffff8020145e: 62 75                	ld	a0, 56(sp)
ffffffff80201460: e6 70                	ld	ra, 120(sp)
ffffffff80201462: 09 61                	addi	sp, sp, 128
ffffffff80201464: 82 80                	ret

ffffffff80201466 _ZN45_$LT$usize$u20$as$u20$bit_field..BitField$GT$7get_bit17h723892bd249d7082E:
ffffffff80201466: 79 71                	addi	sp, sp, -48
ffffffff80201468: 2a f0                	sd	a0, 32(sp)
ffffffff8020146a: 2e f4                	sd	a1, 40(sp)
ffffffff8020146c: 13 06 f0 03          	addi	a2, zero, 63
ffffffff80201470: 2e ec                	sd	a1, 24(sp)
ffffffff80201472: 2a e8                	sd	a0, 16(sp)
ffffffff80201474: 63 61 b6 02          	bltu	a2, a1, 34
ffffffff80201478: 09 a0                	j	2
ffffffff8020147a: 42 65                	ld	a0, 16(sp)
ffffffff8020147c: 0c 61                	ld	a1, 0(a0)
ffffffff8020147e: 62 66                	ld	a2, 24(sp)
ffffffff80201480: 93 76 06 fc          	andi	a3, a2, -64
ffffffff80201484: 05 47                	addi	a4, zero, 1
ffffffff80201486: 33 17 c7 00          	sll	a4, a4, a2
ffffffff8020148a: 81 47                	mv	a5, zero
ffffffff8020148c: 2e e4                	sd	a1, 8(sp)
ffffffff8020148e: 3a e0                	sd	a4, 0(sp)
ffffffff80201490: 63 9a f6 02          	bne	a3, a5, 52
ffffffff80201494: 05 a0                	j	32

ffffffff80201496 .LBB0_5:
ffffffff80201496: 17 a5 00 00          	auipc	a0, 10
ffffffff8020149a: 13 05 65 10          	addi	a0, a0, 262

ffffffff8020149e .LBB0_6:
ffffffff8020149e: 17 a6 00 00          	auipc	a2, 10
ffffffff802014a2: 13 06 26 1a          	addi	a2, a2, 418
ffffffff802014a6: 93 05 80 02          	addi	a1, zero, 40
ffffffff802014aa: 97 70 00 00          	auipc	ra, 7
ffffffff802014ae: e7 80 e0 3b          	jalr	958(ra)
ffffffff802014b2: 00 00                	unimp	
ffffffff802014b4: 22 65                	ld	a0, 8(sp)
ffffffff802014b6: 82 65                	ld	a1, 0(sp)
ffffffff802014b8: 33 76 b5 00          	and	a2, a0, a1
ffffffff802014bc: 33 35 c0 00          	snez	a0, a2
ffffffff802014c0: 45 61                	addi	sp, sp, 48
ffffffff802014c2: 82 80                	ret

ffffffff802014c4 .LBB0_7:
ffffffff802014c4: 17 a5 00 00          	auipc	a0, 10
ffffffff802014c8: 13 05 c5 20          	addi	a0, a0, 524

ffffffff802014cc .LBB0_8:
ffffffff802014cc: 17 a6 00 00          	auipc	a2, 10
ffffffff802014d0: 13 06 c6 1e          	addi	a2, a2, 492
ffffffff802014d4: 93 05 30 02          	addi	a1, zero, 35
ffffffff802014d8: 97 70 00 00          	auipc	ra, 7
ffffffff802014dc: e7 80 00 39          	jalr	912(ra)
ffffffff802014e0: 00 00                	unimp	

ffffffff802014e2 _ZN4core10intrinsics19copy_nonoverlapping17hf96709d8e6029685E:
ffffffff802014e2: 79 71                	addi	sp, sp, -48
ffffffff802014e4: 06 f4                	sd	ra, 40(sp)
ffffffff802014e6: 2a e8                	sd	a0, 16(sp)
ffffffff802014e8: 2e ec                	sd	a1, 24(sp)
ffffffff802014ea: 32 f0                	sd	a2, 32(sp)
ffffffff802014ec: 0a 06                	slli	a2, a2, 2
ffffffff802014ee: 2a e4                	sd	a0, 8(sp)
ffffffff802014f0: 2e 85                	add	a0, zero, a1
ffffffff802014f2: a2 65                	ld	a1, 8(sp)
ffffffff802014f4: 97 90 00 00          	auipc	ra, 9
ffffffff802014f8: e7 80 c0 2c          	jalr	716(ra)
ffffffff802014fc: 09 a0                	j	2
ffffffff802014fe: a2 70                	ld	ra, 40(sp)
ffffffff80201500: 45 61                	addi	sp, sp, 48
ffffffff80201502: 82 80                	ret

ffffffff80201504 rust_begin_unwind:
ffffffff80201504: 61 71                	addi	sp, sp, -432
ffffffff80201506: 06 f7                	sd	ra, 424(sp)
ffffffff80201508: aa fe                	sd	a0, 376(sp)
ffffffff8020150a: 2a e1                	sd	a0, 128(sp)
ffffffff8020150c: 97 70 00 00          	auipc	ra, 7
ffffffff80201510: e7 80 c0 34          	jalr	844(ra)
ffffffff80201514: 2a e5                	sd	a0, 136(sp)
ffffffff80201516: 09 a0                	j	2
ffffffff80201518: 2a 65                	ld	a0, 136(sp)
ffffffff8020151a: 81 45                	mv	a1, zero
ffffffff8020151c: 63 10 b5 02          	bne	a0, a1, 32
ffffffff80201520: 09 a0                	j	2

ffffffff80201522 .LBB0_19:
ffffffff80201522: 17 a5 00 00          	auipc	a0, 10
ffffffff80201526: 13 05 65 20          	addi	a0, a0, 518
ffffffff8020152a: 0c 61                	ld	a1, 0(a0)
ffffffff8020152c: 0a 65                	ld	a0, 128(sp)
ffffffff8020152e: ae fc                	sd	a1, 120(sp)
ffffffff80201530: 97 70 00 00          	auipc	ra, 7
ffffffff80201534: e7 80 40 32          	jalr	804(ra)
ffffffff80201538: aa f8                	sd	a0, 112(sp)
ffffffff8020153a: fd a0                	j	238
ffffffff8020153c: 2a 65                	ld	a0, 136(sp)
ffffffff8020153e: 2a e7                	sd	a0, 392(sp)

ffffffff80201540 .LBB0_20:
ffffffff80201540: 97 a5 00 00          	auipc	a1, 10
ffffffff80201544: 93 85 85 26          	addi	a1, a1, 616
ffffffff80201548: 8c 61                	ld	a1, 0(a1)
ffffffff8020154a: aa f4                	sd	a0, 104(sp)
ffffffff8020154c: ae f0                	sd	a1, 96(sp)
ffffffff8020154e: 97 70 00 00          	auipc	ra, 7
ffffffff80201552: e7 80 e0 30          	jalr	782(ra)
ffffffff80201556: 2a e6                	sd	a0, 264(sp)
ffffffff80201558: 2e ea                	sd	a1, 272(sp)
ffffffff8020155a: 09 a0                	j	2
ffffffff8020155c: 26 75                	ld	a0, 104(sp)
ffffffff8020155e: 97 70 00 00          	auipc	ra, 7
ffffffff80201562: e7 80 60 30          	jalr	774(ra)
ffffffff80201566: 23 2e a1 10          	sw	a0, 284(sp)
ffffffff8020156a: 09 a0                	j	2
ffffffff8020156c: 0a 65                	ld	a0, 128(sp)
ffffffff8020156e: 97 70 00 00          	auipc	ra, 7
ffffffff80201572: e7 80 60 2e          	jalr	742(ra)
ffffffff80201576: aa ec                	sd	a0, 88(sp)
ffffffff80201578: 09 a0                	j	2

ffffffff8020157a .LBB0_21:
ffffffff8020157a: 97 a5 00 00          	auipc	a1, 10
ffffffff8020157e: 93 85 65 23          	addi	a1, a1, 566
ffffffff80201582: 66 65                	ld	a0, 88(sp)
ffffffff80201584: 97 00 00 00          	auipc	ra, 0
ffffffff80201588: e7 80 80 89          	jalr	-1896(ra)
ffffffff8020158c: 2a f2                	sd	a0, 288(sp)
ffffffff8020158e: 09 a0                	j	2
ffffffff80201590: 28 02                	addi	a0, sp, 264
ffffffff80201592: aa f9                	sd	a0, 240(sp)
ffffffff80201594: 6c 0a                	addi	a1, sp, 284
ffffffff80201596: ae fd                	sd	a1, 248(sp)
ffffffff80201598: 10 12                	addi	a2, sp, 288
ffffffff8020159a: 32 e2                	sd	a2, 256(sp)
ffffffff8020159c: 2a eb                	sd	a0, 400(sp)
ffffffff8020159e: 2e ef                	sd	a1, 408(sp)
ffffffff802015a0: 32 f3                	sd	a2, 416(sp)

ffffffff802015a2 .LBB0_22:
ffffffff802015a2: 97 36 00 00          	auipc	a3, 3
ffffffff802015a6: 93 86 66 77          	addi	a3, a3, 1910
ffffffff802015aa: ae e8                	sd	a1, 80(sp)
ffffffff802015ac: b6 85                	add	a1, zero, a3
ffffffff802015ae: b2 e4                	sd	a2, 72(sp)
ffffffff802015b0: 97 30 00 00          	auipc	ra, 3
ffffffff802015b4: e7 80 40 79          	jalr	1940(ra)
ffffffff802015b8: aa e0                	sd	a0, 64(sp)
ffffffff802015ba: 2e fc                	sd	a1, 56(sp)
ffffffff802015bc: 09 a0                	j	2

ffffffff802015be .LBB0_23:
ffffffff802015be: 97 95 00 00          	auipc	a1, 9
ffffffff802015c2: 93 85 a5 fa          	addi	a1, a1, -86
ffffffff802015c6: 46 65                	ld	a0, 80(sp)
ffffffff802015c8: 97 10 00 00          	auipc	ra, 1
ffffffff802015cc: e7 80 00 b6          	jalr	-1184(ra)
ffffffff802015d0: 2a f8                	sd	a0, 48(sp)
ffffffff802015d2: 2e f4                	sd	a1, 40(sp)
ffffffff802015d4: 09 a0                	j	2

ffffffff802015d6 .LBB0_24:
ffffffff802015d6: 97 15 00 00          	auipc	a1, 1
ffffffff802015da: 93 85 85 a9          	addi	a1, a1, -1384
ffffffff802015de: 26 65                	ld	a0, 72(sp)
ffffffff802015e0: 97 10 00 00          	auipc	ra, 1
ffffffff802015e4: e7 80 60 b2          	jalr	-1242(ra)
ffffffff802015e8: 2a f0                	sd	a0, 32(sp)
ffffffff802015ea: 2e ec                	sd	a1, 24(sp)
ffffffff802015ec: 09 a0                	j	2
ffffffff802015ee: 06 65                	ld	a0, 64(sp)
ffffffff802015f0: aa e1                	sd	a0, 192(sp)
ffffffff802015f2: e2 75                	ld	a1, 56(sp)
ffffffff802015f4: ae e5                	sd	a1, 200(sp)
ffffffff802015f6: 42 76                	ld	a2, 48(sp)
ffffffff802015f8: b2 e9                	sd	a2, 208(sp)
ffffffff802015fa: a2 76                	ld	a3, 40(sp)
ffffffff802015fc: b6 ed                	sd	a3, 216(sp)
ffffffff802015fe: 02 77                	ld	a4, 32(sp)
ffffffff80201600: ba f1                	sd	a4, 224(sp)
ffffffff80201602: e2 67                	ld	a5, 24(sp)
ffffffff80201604: be f5                	sd	a5, 232(sp)
ffffffff80201606: 08 09                	addi	a0, sp, 144
ffffffff80201608: 11 46                	addi	a2, zero, 4
ffffffff8020160a: 94 01                	addi	a3, sp, 192
ffffffff8020160c: 0d 47                	addi	a4, zero, 3
ffffffff8020160e: 86 75                	ld	a1, 96(sp)
ffffffff80201610: 97 f0 ff ff          	auipc	ra, 1048575
ffffffff80201614: e7 80 a0 af          	jalr	-1286(ra)
ffffffff80201618: 09 a0                	j	2
ffffffff8020161a: 08 09                	addi	a0, sp, 144
ffffffff8020161c: 97 f0 ff ff          	auipc	ra, 1048575
ffffffff80201620: e7 80 00 dd          	jalr	-560(ra)
ffffffff80201624: 09 a0                	j	2
ffffffff80201626: b9 a8                	j	94

ffffffff80201628 .LBB0_25:
ffffffff80201628: 97 a5 00 00          	auipc	a1, 10
ffffffff8020162c: 93 85 85 11          	addi	a1, a1, 280
ffffffff80201630: 46 75                	ld	a0, 112(sp)
ffffffff80201632: 97 f0 ff ff          	auipc	ra, 1048575
ffffffff80201636: e7 80 a0 7e          	jalr	2026(ra)
ffffffff8020163a: aa fa                	sd	a0, 368(sp)
ffffffff8020163c: 09 a0                	j	2
ffffffff8020163e: 88 1a                	addi	a0, sp, 368
ffffffff80201640: aa f6                	sd	a0, 360(sp)
ffffffff80201642: 2a e3                	sd	a0, 384(sp)

ffffffff80201644 .LBB0_26:
ffffffff80201644: 97 15 00 00          	auipc	a1, 1
ffffffff80201648: 93 85 a5 a2          	addi	a1, a1, -1494
ffffffff8020164c: 97 10 00 00          	auipc	ra, 1
ffffffff80201650: e7 80 a0 ab          	jalr	-1350(ra)
ffffffff80201654: 2a e8                	sd	a0, 16(sp)
ffffffff80201656: 2e e4                	sd	a1, 8(sp)
ffffffff80201658: 09 a0                	j	2
ffffffff8020165a: 42 65                	ld	a0, 16(sp)
ffffffff8020165c: aa ee                	sd	a0, 344(sp)
ffffffff8020165e: a2 65                	ld	a1, 8(sp)
ffffffff80201660: ae f2                	sd	a1, 352(sp)
ffffffff80201662: 28 12                	addi	a0, sp, 296
ffffffff80201664: 09 46                	addi	a2, zero, 2
ffffffff80201666: b4 0a                	addi	a3, sp, 344
ffffffff80201668: 05 47                	addi	a4, zero, 1
ffffffff8020166a: e6 75                	ld	a1, 120(sp)
ffffffff8020166c: 97 f0 ff ff          	auipc	ra, 1048575
ffffffff80201670: e7 80 e0 a9          	jalr	-1378(ra)
ffffffff80201674: 09 a0                	j	2
ffffffff80201676: 28 12                	addi	a0, sp, 296
ffffffff80201678: 97 f0 ff ff          	auipc	ra, 1048575
ffffffff8020167c: e7 80 40 d7          	jalr	-652(ra)
ffffffff80201680: 09 a0                	j	2
ffffffff80201682: 09 a0                	j	2
ffffffff80201684: 97 20 00 00          	auipc	ra, 2
ffffffff80201688: e7 80 20 e1          	jalr	-494(ra)
ffffffff8020168c: 00 00                	unimp	

ffffffff8020168e _ZN4core3cmp5impls55_$LT$impl$u20$core..cmp..PartialOrd$u20$for$u20$i32$GT$2lt17h620823a1cd6e448dE:
ffffffff8020168e: 41 11                	addi	sp, sp, -16
ffffffff80201690: 2a e0                	sd	a0, 0(sp)
ffffffff80201692: 2e e4                	sd	a1, 8(sp)
ffffffff80201694: 08 41                	lw	a0, 0(a0)
ffffffff80201696: 8c 41                	lw	a1, 0(a1)
ffffffff80201698: 33 25 b5 00          	slt	a0, a0, a1
ffffffff8020169c: 41 01                	addi	sp, sp, 16
ffffffff8020169e: 82 80                	ret

ffffffff802016a0 _ZN4core3fmt8builders9DebugList7entries17hb8bdf78bc994968dE:
ffffffff802016a0: 59 71                	addi	sp, sp, -112
ffffffff802016a2: 86 f4                	sd	ra, 104(sp)
ffffffff802016a4: aa e0                	sd	a0, 64(sp)
ffffffff802016a6: ae e4                	sd	a1, 72(sp)
ffffffff802016a8: b2 e8                	sd	a2, 80(sp)
ffffffff802016aa: 2a ec                	sd	a0, 24(sp)
ffffffff802016ac: 2e 85                	add	a0, zero, a1
ffffffff802016ae: b2 85                	add	a1, zero, a2
ffffffff802016b0: 97 00 00 00          	auipc	ra, 0
ffffffff802016b4: e7 80 60 cb          	jalr	-842(ra)
ffffffff802016b8: 2a e8                	sd	a0, 16(sp)
ffffffff802016ba: 2e e4                	sd	a1, 8(sp)
ffffffff802016bc: 09 a0                	j	2
ffffffff802016be: 42 65                	ld	a0, 16(sp)
ffffffff802016c0: 2a f0                	sd	a0, 32(sp)
ffffffff802016c2: a2 65                	ld	a1, 8(sp)
ffffffff802016c4: 2e f4                	sd	a1, 40(sp)
ffffffff802016c6: 09 a0                	j	2
ffffffff802016c8: 08 10                	addi	a0, sp, 32
ffffffff802016ca: 97 40 00 00          	auipc	ra, 4
ffffffff802016ce: e7 80 00 fd          	jalr	-48(ra)
ffffffff802016d2: 2a f8                	sd	a0, 48(sp)
ffffffff802016d4: 09 a0                	j	2
ffffffff802016d6: 42 75                	ld	a0, 48(sp)
ffffffff802016d8: b3 35 a0 00          	snez	a1, a0
ffffffff802016dc: 01 46                	mv	a2, zero
ffffffff802016de: 63 04 c5 00          	beq	a0, a2, 8
ffffffff802016e2: 09 a0                	j	2
ffffffff802016e4: 19 a0                	j	6
ffffffff802016e6: 0d a0                	j	34
ffffffff802016e8: 00 00                	unimp	
ffffffff802016ea: 42 75                	ld	a0, 48(sp)
ffffffff802016ec: aa ec                	sd	a0, 88(sp)
ffffffff802016ee: aa f0                	sd	a0, 96(sp)
ffffffff802016f0: 2a fc                	sd	a0, 56(sp)

ffffffff802016f2 .LBB0_12:
ffffffff802016f2: 17 a6 00 00          	auipc	a2, 10
ffffffff802016f6: 13 06 66 0d          	addi	a2, a2, 214
ffffffff802016fa: 2c 18                	addi	a1, sp, 56
ffffffff802016fc: 62 65                	ld	a0, 24(sp)
ffffffff802016fe: 97 70 00 00          	auipc	ra, 7
ffffffff80201702: e7 80 a0 7a          	jalr	1962(ra)
ffffffff80201706: 11 a0                	j	4
ffffffff80201708: 19 a0                	j	6
ffffffff8020170a: 09 a0                	j	2
ffffffff8020170c: 75 bf                	j	-68
ffffffff8020170e: 62 65                	ld	a0, 24(sp)
ffffffff80201710: a6 70                	ld	ra, 104(sp)
ffffffff80201712: 65 61                	addi	sp, sp, 112
ffffffff80201714: 82 80                	ret

ffffffff80201716 _ZN4core6result19Result$LT$T$C$E$GT$3map17h8f019c47cb51584bE:
ffffffff80201716: 1d 71                	addi	sp, sp, -96
ffffffff80201718: 86 ec                	sd	ra, 88(sp)
ffffffff8020171a: 32 f8                	sd	a2, 48(sp)
ffffffff8020171c: 85 46                	addi	a3, zero, 1
ffffffff8020171e: a3 07 d1 02          	sb	a3, 47(sp)
ffffffff80201722: 94 61                	ld	a3, 0(a1)
ffffffff80201724: 01 47                	mv	a4, zero
ffffffff80201726: 32 e8                	sd	a2, 16(sp)
ffffffff80201728: 2e e4                	sd	a1, 8(sp)
ffffffff8020172a: 2a e0                	sd	a0, 0(sp)
ffffffff8020172c: 63 8f e6 00          	beq	a3, a4, 30
ffffffff80201730: 09 a0                	j	2
ffffffff80201732: 22 65                	ld	a0, 8(sp)
ffffffff80201734: 0c 65                	ld	a1, 8(a0)
ffffffff80201736: 10 69                	ld	a2, 16(a0)
ffffffff80201738: 2e fc                	sd	a1, 56(sp)
ffffffff8020173a: b2 e0                	sd	a2, 64(sp)
ffffffff8020173c: 82 66                	ld	a3, 0(sp)
ffffffff8020173e: 8c e6                	sd	a1, 8(a3)
ffffffff80201740: 90 ea                	sd	a2, 16(a3)
ffffffff80201742: 85 45                	addi	a1, zero, 1
ffffffff80201744: 8c e2                	sd	a1, 0(a3)
ffffffff80201746: 3d a0                	j	46
ffffffff80201748: 00 00                	unimp	
ffffffff8020174a: 22 65                	ld	a0, 8(sp)
ffffffff8020174c: 0c 65                	ld	a1, 8(a0)
ffffffff8020174e: ae e4                	sd	a1, 72(sp)
ffffffff80201750: 01 46                	mv	a2, zero
ffffffff80201752: a3 07 c1 02          	sb	a2, 47(sp)
ffffffff80201756: 2e f0                	sd	a1, 32(sp)
ffffffff80201758: 42 65                	ld	a0, 16(sp)
ffffffff8020175a: 97 f0 ff ff          	auipc	ra, 1048575
ffffffff8020175e: e7 80 e0 eb          	jalr	-322(ra)
ffffffff80201762: aa e8                	sd	a0, 80(sp)
ffffffff80201764: 2a ec                	sd	a0, 24(sp)
ffffffff80201766: 09 a0                	j	2
ffffffff80201768: 62 65                	ld	a0, 24(sp)
ffffffff8020176a: 82 65                	ld	a1, 0(sp)
ffffffff8020176c: 88 e5                	sd	a0, 8(a1)
ffffffff8020176e: 01 45                	mv	a0, zero
ffffffff80201770: 88 e1                	sd	a0, 0(a1)
ffffffff80201772: 09 a0                	j	2
ffffffff80201774: 03 45 f1 02          	lbu	a0, 47(sp)
ffffffff80201778: 05 89                	andi	a0, a0, 1
ffffffff8020177a: 09 e5                	bnez	a0, 10
ffffffff8020177c: 09 a0                	j	2
ffffffff8020177e: e6 60                	ld	ra, 88(sp)
ffffffff80201780: 25 61                	addi	sp, sp, 96
ffffffff80201782: 82 80                	ret
ffffffff80201784: 01 45                	mv	a0, zero
ffffffff80201786: a3 07 a1 02          	sb	a0, 47(sp)
ffffffff8020178a: d5 bf                	j	-12

ffffffff8020178c _ZN4core6result19Result$LT$T$C$E$GT$6unwrap17h5282cecac4d3cab6E:
ffffffff8020178c: 01 11                	addi	sp, sp, -32
ffffffff8020178e: 2a 86                	add	a2, zero, a0
ffffffff80201790: a3 07 a1 00          	sb	a0, 15(sp)
ffffffff80201794: aa 86                	add	a3, zero, a0
ffffffff80201796: 01 47                	mv	a4, zero
ffffffff80201798: 2e e0                	sd	a1, 0(sp)
ffffffff8020179a: 63 05 e5 02          	beq	a0, a4, 42
ffffffff8020179e: 09 a0                	j	2

ffffffff802017a0 .LBB1_5:
ffffffff802017a0: 17 a5 00 00          	auipc	a0, 10
ffffffff802017a4: 13 05 85 04          	addi	a0, a0, 72

ffffffff802017a8 .LBB1_6:
ffffffff802017a8: 97 a6 00 00          	auipc	a3, 10
ffffffff802017ac: 93 86 06 07          	addi	a3, a3, 112
ffffffff802017b0: 93 05 b0 02          	addi	a1, zero, 43
ffffffff802017b4: 10 08                	addi	a2, sp, 16
ffffffff802017b6: 02 67                	ld	a4, 0(sp)
ffffffff802017b8: 97 70 00 00          	auipc	ra, 7
ffffffff802017bc: e7 80 00 05          	jalr	80(ra)
ffffffff802017c0: 00 00                	unimp	
ffffffff802017c2: 00 00                	unimp	
ffffffff802017c4: 05 61                	addi	sp, sp, 32
ffffffff802017c6: 82 80                	ret

ffffffff802017c8 _ZN4core3ptr9const_ptr33_$LT$impl$u20$$BP$const$u20$T$GT$3add17hf613c7603cc3e524E:
ffffffff802017c8: 01 11                	addi	sp, sp, -32
ffffffff802017ca: 06 ec                	sd	ra, 24(sp)
ffffffff802017cc: 2a e4                	sd	a0, 8(sp)
ffffffff802017ce: 2e e8                	sd	a1, 16(sp)
ffffffff802017d0: 97 00 00 00          	auipc	ra, 0
ffffffff802017d4: e7 80 40 01          	jalr	20(ra)
ffffffff802017d8: 2a e0                	sd	a0, 0(sp)
ffffffff802017da: 09 a0                	j	2
ffffffff802017dc: 02 65                	ld	a0, 0(sp)
ffffffff802017de: e2 60                	ld	ra, 24(sp)
ffffffff802017e0: 05 61                	addi	sp, sp, 32
ffffffff802017e2: 82 80                	ret

ffffffff802017e4 _ZN4core3ptr9const_ptr33_$LT$impl$u20$$BP$const$u20$T$GT$6offset17h1ee1356544e5e58dE:
ffffffff802017e4: 01 11                	addi	sp, sp, -32
ffffffff802017e6: 2a e4                	sd	a0, 8(sp)
ffffffff802017e8: 2e e8                	sd	a1, 16(sp)
ffffffff802017ea: 2e 95                	add	a0, a0, a1
ffffffff802017ec: 2a ec                	sd	a0, 24(sp)
ffffffff802017ee: 2a e0                	sd	a0, 0(sp)
ffffffff802017f0: 09 a0                	j	2
ffffffff802017f2: 02 65                	ld	a0, 0(sp)
ffffffff802017f4: 05 61                	addi	sp, sp, 32
ffffffff802017f6: 82 80                	ret

ffffffff802017f8 _ZN4core3ptr9const_ptr33_$LT$impl$u20$$BP$const$u20$T$GT$7is_null17he2f5fcba46731242E:
ffffffff802017f8: 41 11                	addi	sp, sp, -16
ffffffff802017fa: 2a e4                	sd	a0, 8(sp)
ffffffff802017fc: 2a e0                	sd	a0, 0(sp)
ffffffff802017fe: 09 a0                	j	2
ffffffff80201800: 02 65                	ld	a0, 0(sp)
ffffffff80201802: 13 35 15 00          	seqz	a0, a0
ffffffff80201806: 41 01                	addi	sp, sp, 16
ffffffff80201808: 82 80                	ret

ffffffff8020180a _ZN4core4sync6atomic11atomic_load17h1d51d9eee326133dE:
ffffffff8020180a: 79 71                	addi	sp, sp, -48
ffffffff8020180c: 2e 86                	add	a2, zero, a1
ffffffff8020180e: a3 0f b1 00          	sb	a1, 31(sp)
ffffffff80201812: 2a f4                	sd	a0, 40(sp)
ffffffff80201814: 93 f5 f5 0f          	andi	a1, a1, 255
ffffffff80201818: 81 46                	mv	a3, zero
ffffffff8020181a: 2a e8                	sd	a0, 16(sp)
ffffffff8020181c: 2e e4                	sd	a1, 8(sp)
ffffffff8020181e: 63 8a d5 04          	beq	a1, a3, 84
ffffffff80201822: 09 a0                	j	2
ffffffff80201824: 05 45                	addi	a0, zero, 1
ffffffff80201826: a2 65                	ld	a1, 8(sp)
ffffffff80201828: 63 83 a5 06          	beq	a1, a0, 102
ffffffff8020182c: 09 a0                	j	2
ffffffff8020182e: 09 45                	addi	a0, zero, 2
ffffffff80201830: a2 65                	ld	a1, 8(sp)
ffffffff80201832: 63 89 a5 02          	beq	a1, a0, 50
ffffffff80201836: 09 a0                	j	2
ffffffff80201838: 0d 45                	addi	a0, zero, 3
ffffffff8020183a: a2 65                	ld	a1, 8(sp)
ffffffff8020183c: 63 84 a5 00          	beq	a1, a0, 8
ffffffff80201840: 09 a0                	j	2
ffffffff80201842: 2d a8                	j	58

ffffffff80201844 .LBB0_15:
ffffffff80201844: 17 a5 00 00          	auipc	a0, 10
ffffffff80201848: 13 05 45 ff          	addi	a0, a0, -12

ffffffff8020184c .LBB0_16:
ffffffff8020184c: 17 a6 00 00          	auipc	a2, 10
ffffffff80201850: 13 06 46 09          	addi	a2, a2, 148
ffffffff80201854: 93 05 10 03          	addi	a1, zero, 49
ffffffff80201858: 97 70 00 00          	auipc	ra, 7
ffffffff8020185c: e7 80 00 01          	jalr	16(ra)
ffffffff80201860: 00 00                	unimp	
ffffffff80201862: 00 00                	unimp	
ffffffff80201864: 42 65                	ld	a0, 16(sp)
ffffffff80201866: 0c 61                	ld	a1, 0(a0)
ffffffff80201868: 0f 00 30 02          	fence	r, rw
ffffffff8020186c: 2e f0                	sd	a1, 32(sp)
ffffffff8020186e: 09 a0                	j	2
ffffffff80201870: 35 a8                	j	60
ffffffff80201872: 42 65                	ld	a0, 16(sp)
ffffffff80201874: 0c 61                	ld	a1, 0(a0)
ffffffff80201876: 2e f0                	sd	a1, 32(sp)
ffffffff80201878: 09 a0                	j	2
ffffffff8020187a: 0d a8                	j	50
ffffffff8020187c: 0f 00 30 03          	fence	rw, rw
ffffffff80201880: 42 65                	ld	a0, 16(sp)
ffffffff80201882: 0c 61                	ld	a1, 0(a0)
ffffffff80201884: 0f 00 30 02          	fence	r, rw
ffffffff80201888: 2e f0                	sd	a1, 32(sp)
ffffffff8020188a: 09 a0                	j	2
ffffffff8020188c: 05 a0                	j	32

ffffffff8020188e .LBB0_17:
ffffffff8020188e: 17 a5 00 00          	auipc	a0, 10
ffffffff80201892: 13 05 a5 06          	addi	a0, a0, 106

ffffffff80201896 .LBB0_18:
ffffffff80201896: 17 a6 00 00          	auipc	a2, 10
ffffffff8020189a: 13 06 a6 04          	addi	a2, a2, 74
ffffffff8020189e: 93 05 80 02          	addi	a1, zero, 40
ffffffff802018a2: 97 70 00 00          	auipc	ra, 7
ffffffff802018a6: e7 80 60 fc          	jalr	-58(ra)
ffffffff802018aa: 00 00                	unimp	
ffffffff802018ac: 02 75                	ld	a0, 32(sp)
ffffffff802018ae: 45 61                	addi	sp, sp, 48
ffffffff802018b0: 82 80                	ret

ffffffff802018b2 _ZN4core4sync6atomic23atomic_compare_exchange17h88c1e2ef563687b2E:
ffffffff802018b2: 35 71                	addi	sp, sp, -160
ffffffff802018b4: ba 87                	add	a5, zero, a4
ffffffff802018b6: 36 88                	add	a6, zero, a3
ffffffff802018b8: aa f8                	sd	a0, 112(sp)
ffffffff802018ba: ae fc                	sd	a1, 120(sp)
ffffffff802018bc: 32 e1                	sd	a2, 128(sp)
ffffffff802018be: 23 07 d1 08          	sb	a3, 142(sp)
ffffffff802018c2: a3 07 e1 08          	sb	a4, 143(sp)
ffffffff802018c6: 23 04 d1 06          	sb	a3, 104(sp)
ffffffff802018ca: a3 04 e1 06          	sb	a4, 105(sp)
ffffffff802018ce: 93 f6 f6 0f          	andi	a3, a3, 255
ffffffff802018d2: 01 47                	mv	a4, zero
ffffffff802018d4: b2 e0                	sd	a2, 64(sp)
ffffffff802018d6: 2e fc                	sd	a1, 56(sp)
ffffffff802018d8: 2a f8                	sd	a0, 48(sp)
ffffffff802018da: 36 f4                	sd	a3, 40(sp)
ffffffff802018dc: 63 87 e6 02          	beq	a3, a4, 46
ffffffff802018e0: 09 a0                	j	2
ffffffff802018e2: 05 45                	addi	a0, zero, 1
ffffffff802018e4: a2 75                	ld	a1, 40(sp)
ffffffff802018e6: 63 84 a5 04          	beq	a1, a0, 72
ffffffff802018ea: 09 a0                	j	2
ffffffff802018ec: 09 45                	addi	a0, zero, 2
ffffffff802018ee: a2 75                	ld	a1, 40(sp)
ffffffff802018f0: 63 85 a5 04          	beq	a1, a0, 74
ffffffff802018f4: 09 a0                	j	2
ffffffff802018f6: 0d 45                	addi	a0, zero, 3
ffffffff802018f8: a2 75                	ld	a1, 40(sp)
ffffffff802018fa: 63 8c a5 04          	beq	a1, a0, 88
ffffffff802018fe: 09 a0                	j	2
ffffffff80201900: 11 45                	addi	a0, zero, 4
ffffffff80201902: a2 75                	ld	a1, 40(sp)
ffffffff80201904: 63 83 a5 06          	beq	a1, a0, 102
ffffffff80201908: 39 a0                	j	14
ffffffff8020190a: 03 45 91 06          	lbu	a0, 105(sp)
ffffffff8020190e: 81 45                	mv	a1, zero
ffffffff80201910: 63 06 b5 10          	beq	a0, a1, 268
ffffffff80201914: 09 a0                	j	2
ffffffff80201916: 03 45 91 06          	lbu	a0, 105(sp)
ffffffff8020191a: 85 45                	addi	a1, zero, 1
ffffffff8020191c: 2a f0                	sd	a0, 32(sp)
ffffffff8020191e: 63 00 b5 20          	beq	a0, a1, 512
ffffffff80201922: 09 a0                	j	2
ffffffff80201924: 0d 45                	addi	a0, zero, 3
ffffffff80201926: 82 75                	ld	a1, 32(sp)
ffffffff80201928: 63 8c a5 1c          	beq	a1, a0, 472
ffffffff8020192c: 85 a0                	j	96
ffffffff8020192e: 03 45 91 06          	lbu	a0, 105(sp)
ffffffff80201932: 81 45                	mv	a1, zero
ffffffff80201934: 63 0e b5 08          	beq	a0, a1, 156
ffffffff80201938: f9 bf                	j	-34
ffffffff8020193a: 03 45 91 06          	lbu	a0, 105(sp)
ffffffff8020193e: 81 45                	mv	a1, zero
ffffffff80201940: 2a ec                	sd	a0, 24(sp)
ffffffff80201942: 63 03 b5 12          	beq	a0, a1, 294
ffffffff80201946: 09 a0                	j	2
ffffffff80201948: 09 45                	addi	a0, zero, 2
ffffffff8020194a: e2 65                	ld	a1, 24(sp)
ffffffff8020194c: 63 8f a5 04          	beq	a1, a0, 94
ffffffff80201950: d9 b7                	j	-58
ffffffff80201952: 03 45 91 06          	lbu	a0, 105(sp)
ffffffff80201956: 81 45                	mv	a1, zero
ffffffff80201958: 2a e8                	sd	a0, 16(sp)
ffffffff8020195a: 63 0a b5 12          	beq	a0, a1, 308
ffffffff8020195e: 09 a0                	j	2
ffffffff80201960: 09 45                	addi	a0, zero, 2
ffffffff80201962: c2 65                	ld	a1, 16(sp)
ffffffff80201964: 63 89 a5 08          	beq	a1, a0, 146
ffffffff80201968: 7d b7                	j	-82
ffffffff8020196a: 03 45 91 06          	lbu	a0, 105(sp)
ffffffff8020196e: 81 45                	mv	a1, zero
ffffffff80201970: 2a e4                	sd	a0, 8(sp)
ffffffff80201972: 63 01 b5 14          	beq	a0, a1, 322
ffffffff80201976: 09 a0                	j	2
ffffffff80201978: 09 45                	addi	a0, zero, 2
ffffffff8020197a: a2 65                	ld	a1, 8(sp)
ffffffff8020197c: 63 8f a5 14          	beq	a1, a0, 350
ffffffff80201980: 09 a0                	j	2
ffffffff80201982: 11 45                	addi	a0, zero, 4
ffffffff80201984: a2 65                	ld	a1, 8(sp)
ffffffff80201986: 63 8e a5 0a          	beq	a1, a0, 188
ffffffff8020198a: 71 b7                	j	-116

ffffffff8020198c .LBB1_41:
ffffffff8020198c: 17 a5 00 00          	auipc	a0, 10
ffffffff80201990: 13 05 45 f9          	addi	a0, a0, -108

ffffffff80201994 .LBB1_42:
ffffffff80201994: 17 a6 00 00          	auipc	a2, 10
ffffffff80201998: 13 06 c6 f4          	addi	a2, a2, -180
ffffffff8020199c: 93 05 c0 03          	addi	a1, zero, 60
ffffffff802019a0: 97 70 00 00          	auipc	ra, 7
ffffffff802019a4: e7 80 80 ec          	jalr	-312(ra)
ffffffff802019a8: 00 00                	unimp	
ffffffff802019aa: 42 76                	ld	a2, 48(sp)
ffffffff802019ac: e2 76                	ld	a3, 56(sp)
ffffffff802019ae: 06 67                	ld	a4, 64(sp)
ffffffff802019b0: 2f 35 06 14          	<unknown>
ffffffff802019b4: 63 15 d5 00          	bne	a0, a3, 10
ffffffff802019b8: af 35 e6 18          	<unknown>
ffffffff802019bc: f5 f9                	bnez	a1, -12
ffffffff802019be: b3 47 d5 00          	xor	a5, a0, a3
ffffffff802019c2: 93 b7 17 00          	seqz	a5, a5
ffffffff802019c6: aa ec                	sd	a0, 88(sp)
ffffffff802019c8: 23 00 f1 06          	sb	a5, 96(sp)
ffffffff802019cc: 09 a0                	j	2
ffffffff802019ce: bd a2                	j	366
ffffffff802019d0: 42 76                	ld	a2, 48(sp)
ffffffff802019d2: e2 76                	ld	a3, 56(sp)
ffffffff802019d4: 06 67                	ld	a4, 64(sp)
ffffffff802019d6: 2f 35 06 10          	<unknown>
ffffffff802019da: 63 15 d5 00          	bne	a0, a3, 10
ffffffff802019de: af 35 e6 1a          	<unknown>
ffffffff802019e2: f5 f9                	bnez	a1, -12
ffffffff802019e4: b3 47 d5 00          	xor	a5, a0, a3
ffffffff802019e8: 93 b7 17 00          	seqz	a5, a5
ffffffff802019ec: aa ec                	sd	a0, 88(sp)
ffffffff802019ee: 23 00 f1 06          	sb	a5, 96(sp)
ffffffff802019f2: 09 a0                	j	2
ffffffff802019f4: a1 a2                	j	328
ffffffff802019f6: 42 76                	ld	a2, 48(sp)
ffffffff802019f8: e2 76                	ld	a3, 56(sp)
ffffffff802019fa: 06 67                	ld	a4, 64(sp)
ffffffff802019fc: 2f 35 06 14          	<unknown>
ffffffff80201a00: 63 15 d5 00          	bne	a0, a3, 10
ffffffff80201a04: af 35 e6 1a          	<unknown>
ffffffff80201a08: f5 f9                	bnez	a1, -12
ffffffff80201a0a: b3 47 d5 00          	xor	a5, a0, a3
ffffffff80201a0e: 93 b7 17 00          	seqz	a5, a5
ffffffff80201a12: aa ec                	sd	a0, 88(sp)
ffffffff80201a14: 23 00 f1 06          	sb	a5, 96(sp)
ffffffff80201a18: 09 a0                	j	2
ffffffff80201a1a: 0d a2                	j	290
ffffffff80201a1c: 42 76                	ld	a2, 48(sp)
ffffffff80201a1e: e2 76                	ld	a3, 56(sp)
ffffffff80201a20: 06 67                	ld	a4, 64(sp)
ffffffff80201a22: 2f 35 06 10          	<unknown>
ffffffff80201a26: 63 15 d5 00          	bne	a0, a3, 10
ffffffff80201a2a: af 35 e6 18          	<unknown>
ffffffff80201a2e: f5 f9                	bnez	a1, -12
ffffffff80201a30: b3 47 d5 00          	xor	a5, a0, a3
ffffffff80201a34: 93 b7 17 00          	seqz	a5, a5
ffffffff80201a38: aa ec                	sd	a0, 88(sp)
ffffffff80201a3a: 23 00 f1 06          	sb	a5, 96(sp)
ffffffff80201a3e: 09 a0                	j	2
ffffffff80201a40: f5 a8                	j	252
ffffffff80201a42: 42 76                	ld	a2, 48(sp)
ffffffff80201a44: e2 76                	ld	a3, 56(sp)
ffffffff80201a46: 06 67                	ld	a4, 64(sp)
ffffffff80201a48: 2f 35 06 16          	<unknown>
ffffffff80201a4c: 63 15 d5 00          	bne	a0, a3, 10
ffffffff80201a50: af 35 e6 1e          	<unknown>
ffffffff80201a54: f5 f9                	bnez	a1, -12
ffffffff80201a56: b3 47 d5 00          	xor	a5, a0, a3
ffffffff80201a5a: 93 b7 17 00          	seqz	a5, a5
ffffffff80201a5e: aa ec                	sd	a0, 88(sp)
ffffffff80201a60: 23 00 f1 06          	sb	a5, 96(sp)
ffffffff80201a64: 09 a0                	j	2
ffffffff80201a66: d9 a8                	j	214
ffffffff80201a68: 42 76                	ld	a2, 48(sp)
ffffffff80201a6a: e2 76                	ld	a3, 56(sp)
ffffffff80201a6c: 06 67                	ld	a4, 64(sp)
ffffffff80201a6e: 2f 35 06 14          	<unknown>
ffffffff80201a72: 63 15 d5 00          	bne	a0, a3, 10
ffffffff80201a76: af 35 e6 18          	<unknown>
ffffffff80201a7a: f5 f9                	bnez	a1, -12
ffffffff80201a7c: b3 47 d5 00          	xor	a5, a0, a3
ffffffff80201a80: 93 b7 17 00          	seqz	a5, a5
ffffffff80201a84: aa ec                	sd	a0, 88(sp)
ffffffff80201a86: 23 00 f1 06          	sb	a5, 96(sp)
ffffffff80201a8a: 09 a0                	j	2
ffffffff80201a8c: 45 a8                	j	176
ffffffff80201a8e: 42 76                	ld	a2, 48(sp)
ffffffff80201a90: e2 76                	ld	a3, 56(sp)
ffffffff80201a92: 06 67                	ld	a4, 64(sp)
ffffffff80201a94: 2f 35 06 14          	<unknown>
ffffffff80201a98: 63 15 d5 00          	bne	a0, a3, 10
ffffffff80201a9c: af 35 e6 1a          	<unknown>
ffffffff80201aa0: f5 f9                	bnez	a1, -12
ffffffff80201aa2: b3 47 d5 00          	xor	a5, a0, a3
ffffffff80201aa6: 93 b7 17 00          	seqz	a5, a5
ffffffff80201aaa: aa ec                	sd	a0, 88(sp)
ffffffff80201aac: 23 00 f1 06          	sb	a5, 96(sp)
ffffffff80201ab0: 09 a0                	j	2
ffffffff80201ab2: 69 a0                	j	138
ffffffff80201ab4: 42 76                	ld	a2, 48(sp)
ffffffff80201ab6: e2 76                	ld	a3, 56(sp)
ffffffff80201ab8: 06 67                	ld	a4, 64(sp)
ffffffff80201aba: 2f 35 06 16          	<unknown>
ffffffff80201abe: 63 15 d5 00          	bne	a0, a3, 10
ffffffff80201ac2: af 35 e6 1e          	<unknown>
ffffffff80201ac6: f5 f9                	bnez	a1, -12
ffffffff80201ac8: b3 47 d5 00          	xor	a5, a0, a3
ffffffff80201acc: 93 b7 17 00          	seqz	a5, a5
ffffffff80201ad0: aa ec                	sd	a0, 88(sp)
ffffffff80201ad2: 23 00 f1 06          	sb	a5, 96(sp)
ffffffff80201ad6: 09 a0                	j	2
ffffffff80201ad8: 95 a0                	j	100
ffffffff80201ada: 42 76                	ld	a2, 48(sp)
ffffffff80201adc: e2 76                	ld	a3, 56(sp)
ffffffff80201ade: 06 67                	ld	a4, 64(sp)
ffffffff80201ae0: 2f 35 06 16          	<unknown>
ffffffff80201ae4: 63 15 d5 00          	bne	a0, a3, 10
ffffffff80201ae8: af 35 e6 1e          	<unknown>
ffffffff80201aec: f5 f9                	bnez	a1, -12
ffffffff80201aee: b3 47 d5 00          	xor	a5, a0, a3
ffffffff80201af2: 93 b7 17 00          	seqz	a5, a5
ffffffff80201af6: aa ec                	sd	a0, 88(sp)
ffffffff80201af8: 23 00 f1 06          	sb	a5, 96(sp)
ffffffff80201afc: 09 a0                	j	2
ffffffff80201afe: 3d a8                	j	62

ffffffff80201b00 .LBB1_70:
ffffffff80201b00: 17 a5 00 00          	auipc	a0, 10
ffffffff80201b04: 13 05 c5 e5          	addi	a0, a0, -420

ffffffff80201b08 .LBB1_71:
ffffffff80201b08: 17 a6 00 00          	auipc	a2, 10
ffffffff80201b0c: 13 06 86 dd          	addi	a2, a2, -552
ffffffff80201b10: 93 05 d0 03          	addi	a1, zero, 61
ffffffff80201b14: 97 70 00 00          	auipc	ra, 7
ffffffff80201b18: e7 80 40 d5          	jalr	-684(ra)
ffffffff80201b1c: 00 00                	unimp	

ffffffff80201b1e .LBB1_72:
ffffffff80201b1e: 17 a5 00 00          	auipc	a0, 10
ffffffff80201b22: 13 05 b5 e7          	addi	a0, a0, -389

ffffffff80201b26 .LBB1_73:
ffffffff80201b26: 17 a6 00 00          	auipc	a2, 10
ffffffff80201b2a: 13 06 a6 db          	addi	a2, a2, -582
ffffffff80201b2e: 93 05 40 03          	addi	a1, zero, 52
ffffffff80201b32: 97 70 00 00          	auipc	ra, 7
ffffffff80201b36: e7 80 60 d3          	jalr	-714(ra)
ffffffff80201b3a: 00 00                	unimp	
ffffffff80201b3c: 66 65                	ld	a0, 88(sp)
ffffffff80201b3e: 2a e9                	sd	a0, 144(sp)
ffffffff80201b40: 83 45 01 06          	lbu	a1, 96(sp)
ffffffff80201b44: 13 f6 15 00          	andi	a2, a1, 1
ffffffff80201b48: a3 0f b1 08          	sb	a1, 159(sp)
ffffffff80201b4c: 2a e0                	sd	a0, 0(sp)
ffffffff80201b4e: 19 e6                	bnez	a2, 14
ffffffff80201b50: 09 a0                	j	2
ffffffff80201b52: 02 65                	ld	a0, 0(sp)
ffffffff80201b54: aa e8                	sd	a0, 80(sp)
ffffffff80201b56: 85 45                	addi	a1, zero, 1
ffffffff80201b58: ae e4                	sd	a1, 72(sp)
ffffffff80201b5a: 31 a0                	j	12
ffffffff80201b5c: 02 65                	ld	a0, 0(sp)
ffffffff80201b5e: aa e8                	sd	a0, 80(sp)
ffffffff80201b60: 81 45                	mv	a1, zero
ffffffff80201b62: ae e4                	sd	a1, 72(sp)
ffffffff80201b64: 09 a0                	j	2
ffffffff80201b66: 26 65                	ld	a0, 72(sp)
ffffffff80201b68: c6 65                	ld	a1, 80(sp)
ffffffff80201b6a: 0d 61                	addi	sp, sp, 160
ffffffff80201b6c: 82 80                	ret

ffffffff80201b6e _ZN4core3ops8function6FnOnce9call_once17h05d36d6f9d3a88a5E:
ffffffff80201b6e: 79 71                	addi	sp, sp, -48

ffffffff80201b70 .LBB0_2:
ffffffff80201b70: 17 f5 81 00          	auipc	a0, 2079
ffffffff80201b74: 13 05 05 49          	addi	a0, a0, 1168
ffffffff80201b78: 2a f4                	sd	a0, 40(sp)
ffffffff80201b7a: 2a f0                	sd	a0, 32(sp)
ffffffff80201b7c: 2a e8                	sd	a0, 16(sp)
ffffffff80201b7e: 09 a0                	j	2
ffffffff80201b80: 42 65                	ld	a0, 16(sp)
ffffffff80201b82: 45 61                	addi	sp, sp, 48
ffffffff80201b84: 82 80                	ret

ffffffff80201b86 _ZN4core3ops8function6FnOnce9call_once17h9aeacb68378c647aE:
ffffffff80201b86: 71 71                	addi	sp, sp, -176
ffffffff80201b88: 06 f5                	sd	ra, 168(sp)

ffffffff80201b8a .LBB1_2:
ffffffff80201b8a: 97 a5 00 00          	auipc	a1, 10
ffffffff80201b8e: 93 85 75 f5          	addi	a1, a1, -169
ffffffff80201b92: 2a e8                	sd	a0, 16(sp)
ffffffff80201b94: 2e 85                	add	a0, zero, a1
ffffffff80201b96: 97 10 00 00          	auipc	ra, 1
ffffffff80201b9a: e7 80 20 b9          	jalr	-1134(ra)
ffffffff80201b9e: 08 61                	ld	a0, 0(a0)
ffffffff80201ba0: aa fc                	sd	a0, 120(sp)
ffffffff80201ba2: 97 f0 ff ff          	auipc	ra, 1048575
ffffffff80201ba6: e7 80 80 b0          	jalr	-1272(ra)
ffffffff80201baa: 2a e5                	sd	a0, 136(sp)
ffffffff80201bac: aa f8                	sd	a0, 112(sp)
ffffffff80201bae: 97 f0 ff ff          	auipc	ra, 1048575
ffffffff80201bb2: e7 80 40 b8          	jalr	-1148(ra)
ffffffff80201bb6: 2a e9                	sd	a0, 144(sp)
ffffffff80201bb8: aa f4                	sd	a0, 104(sp)

ffffffff80201bba .LBB1_3:
ffffffff80201bba: 17 a5 00 00          	auipc	a0, 10
ffffffff80201bbe: 13 05 65 84          	addi	a0, a0, -1978
ffffffff80201bc2: 08 61                	ld	a0, 0(a0)
ffffffff80201bc4: 2a ed                	sd	a0, 152(sp)
ffffffff80201bc6: 97 f0 ff ff          	auipc	ra, 1048575
ffffffff80201bca: e7 80 e0 b5          	jalr	-1186(ra)
ffffffff80201bce: 2a f1                	sd	a0, 160(sp)
ffffffff80201bd0: 2a e1                	sd	a0, 128(sp)
ffffffff80201bd2: a6 75                	ld	a1, 104(sp)
ffffffff80201bd4: ae ec                	sd	a1, 88(sp)
ffffffff80201bd6: aa f0                	sd	a0, 96(sp)
ffffffff80201bd8: a8 00                	addi	a0, sp, 72
ffffffff80201bda: ac 08                	addi	a1, sp, 88
ffffffff80201bdc: 2a e4                	sd	a0, 8(sp)
ffffffff80201bde: 97 10 00 00          	auipc	ra, 1
ffffffff80201be2: e7 80 c0 8f          	jalr	-1796(ra)
ffffffff80201be6: 28 10                	addi	a0, sp, 40
ffffffff80201be8: 2a e0                	sd	a0, 0(sp)
ffffffff80201bea: a2 65                	ld	a1, 8(sp)
ffffffff80201bec: 97 f0 ff ff          	auipc	ra, 1048575
ffffffff80201bf0: e7 80 80 96          	jalr	-1688(ra)
ffffffff80201bf4: 42 65                	ld	a0, 16(sp)
ffffffff80201bf6: 82 65                	ld	a1, 0(sp)
ffffffff80201bf8: 97 f0 ff ff          	auipc	ra, 1048575
ffffffff80201bfc: e7 80 20 cf          	jalr	-782(ra)
ffffffff80201c00: 09 a0                	j	2
ffffffff80201c02: aa 70                	ld	ra, 168(sp)
ffffffff80201c04: 4d 61                	addi	sp, sp, 176
ffffffff80201c06: 82 80                	ret

ffffffff80201c08 _ZN4core3ptr13drop_in_place17h375ada154b92c9a6E:
ffffffff80201c08: 01 11                	addi	sp, sp, -32
ffffffff80201c0a: 06 ec                	sd	ra, 24(sp)
ffffffff80201c0c: 2a e8                	sd	a0, 16(sp)
ffffffff80201c0e: 2a e0                	sd	a0, 0(sp)
ffffffff80201c10: 97 00 00 00          	auipc	ra, 0
ffffffff80201c14: e7 80 e0 11          	jalr	286(ra)
ffffffff80201c18: 21 a0                	j	8
ffffffff80201c1a: e2 60                	ld	ra, 24(sp)
ffffffff80201c1c: 05 61                	addi	sp, sp, 32
ffffffff80201c1e: 82 80                	ret
ffffffff80201c20: 02 65                	ld	a0, 0(sp)
ffffffff80201c22: 97 00 00 00          	auipc	ra, 0
ffffffff80201c26: e7 80 40 07          	jalr	116(ra)
ffffffff80201c2a: c5 bf                	j	-16

ffffffff80201c2c _ZN4core3ptr13drop_in_place17h43f41d5094a67daeE:
ffffffff80201c2c: 41 11                	addi	sp, sp, -16
ffffffff80201c2e: 2a e4                	sd	a0, 8(sp)
ffffffff80201c30: 41 01                	addi	sp, sp, 16
ffffffff80201c32: 82 80                	ret

ffffffff80201c34 _ZN4core3ptr13drop_in_place17h502bb322089457c9E:
ffffffff80201c34: 01 11                	addi	sp, sp, -32
ffffffff80201c36: 06 ec                	sd	ra, 24(sp)
ffffffff80201c38: 2a e8                	sd	a0, 16(sp)
ffffffff80201c3a: 97 60 00 00          	auipc	ra, 6
ffffffff80201c3e: e7 80 80 18          	jalr	392(ra)
ffffffff80201c42: 09 a0                	j	2
ffffffff80201c44: e2 60                	ld	ra, 24(sp)
ffffffff80201c46: 05 61                	addi	sp, sp, 32
ffffffff80201c48: 82 80                	ret

ffffffff80201c4a _ZN4core3ptr13drop_in_place17h600a0d0e6dff6c28E:
ffffffff80201c4a: 01 11                	addi	sp, sp, -32
ffffffff80201c4c: 06 ec                	sd	ra, 24(sp)
ffffffff80201c4e: 2a e8                	sd	a0, 16(sp)
ffffffff80201c50: 97 00 00 00          	auipc	ra, 0
ffffffff80201c54: e7 80 60 02          	jalr	38(ra)
ffffffff80201c58: 09 a0                	j	2
ffffffff80201c5a: e2 60                	ld	ra, 24(sp)
ffffffff80201c5c: 05 61                	addi	sp, sp, 32
ffffffff80201c5e: 82 80                	ret

ffffffff80201c60 _ZN4core3ptr13drop_in_place17h6479d7364dcc3806E:
ffffffff80201c60: 01 11                	addi	sp, sp, -32
ffffffff80201c62: 06 ec                	sd	ra, 24(sp)
ffffffff80201c64: 2a e8                	sd	a0, 16(sp)
ffffffff80201c66: 97 00 00 00          	auipc	ra, 0
ffffffff80201c6a: e7 80 40 0f          	jalr	244(ra)
ffffffff80201c6e: 09 a0                	j	2
ffffffff80201c70: e2 60                	ld	ra, 24(sp)
ffffffff80201c72: 05 61                	addi	sp, sp, 32
ffffffff80201c74: 82 80                	ret

ffffffff80201c76 _ZN4core3ptr13drop_in_place17h7cf9b642b07ecd78E:
ffffffff80201c76: 01 11                	addi	sp, sp, -32
ffffffff80201c78: 06 ec                	sd	ra, 24(sp)
ffffffff80201c7a: 2a e8                	sd	a0, 16(sp)
ffffffff80201c7c: 21 05                	addi	a0, a0, 8
ffffffff80201c7e: 97 00 00 00          	auipc	ra, 0
ffffffff80201c82: e7 80 40 07          	jalr	116(ra)
ffffffff80201c86: 09 a0                	j	2
ffffffff80201c88: e2 60                	ld	ra, 24(sp)
ffffffff80201c8a: 05 61                	addi	sp, sp, 32
ffffffff80201c8c: 82 80                	ret

ffffffff80201c8e _ZN4core3ptr13drop_in_place17h8ad9f23e3b6ab0eaE:
ffffffff80201c8e: 41 11                	addi	sp, sp, -16
ffffffff80201c90: 2a e4                	sd	a0, 8(sp)
ffffffff80201c92: 41 01                	addi	sp, sp, 16
ffffffff80201c94: 82 80                	ret

ffffffff80201c96 _ZN4core3ptr13drop_in_place17h8ec076d8ff19cb54E:
ffffffff80201c96: 01 11                	addi	sp, sp, -32
ffffffff80201c98: 06 ec                	sd	ra, 24(sp)
ffffffff80201c9a: 2a e8                	sd	a0, 16(sp)
ffffffff80201c9c: 97 00 00 00          	auipc	ra, 0
ffffffff80201ca0: e7 80 a0 0d          	jalr	218(ra)
ffffffff80201ca4: 09 a0                	j	2
ffffffff80201ca6: e2 60                	ld	ra, 24(sp)
ffffffff80201ca8: 05 61                	addi	sp, sp, 32
ffffffff80201caa: 82 80                	ret

ffffffff80201cac _ZN4core3ptr13drop_in_place17h99a6dc88e8cd8321E:
ffffffff80201cac: 41 11                	addi	sp, sp, -16
ffffffff80201cae: 2a e4                	sd	a0, 8(sp)
ffffffff80201cb0: 41 01                	addi	sp, sp, 16
ffffffff80201cb2: 82 80                	ret

ffffffff80201cb4 _ZN4core3ptr13drop_in_place17ha0d9801fe1f52d6fE:
ffffffff80201cb4: 01 11                	addi	sp, sp, -32
ffffffff80201cb6: 06 ec                	sd	ra, 24(sp)
ffffffff80201cb8: 2a e8                	sd	a0, 16(sp)
ffffffff80201cba: 21 05                	addi	a0, a0, 8
ffffffff80201cbc: 97 00 00 00          	auipc	ra, 0
ffffffff80201cc0: e7 80 e0 f8          	jalr	-114(ra)
ffffffff80201cc4: 09 a0                	j	2
ffffffff80201cc6: e2 60                	ld	ra, 24(sp)
ffffffff80201cc8: 05 61                	addi	sp, sp, 32
ffffffff80201cca: 82 80                	ret

ffffffff80201ccc _ZN4core3ptr13drop_in_place17ha4f40dfbe75e4fc5E:
ffffffff80201ccc: 01 11                	addi	sp, sp, -32
ffffffff80201cce: 06 ec                	sd	ra, 24(sp)
ffffffff80201cd0: 2a e8                	sd	a0, 16(sp)
ffffffff80201cd2: 97 00 00 00          	auipc	ra, 0
ffffffff80201cd6: e7 80 a0 0f          	jalr	250(ra)
ffffffff80201cda: 09 a0                	j	2
ffffffff80201cdc: e2 60                	ld	ra, 24(sp)
ffffffff80201cde: 05 61                	addi	sp, sp, 32
ffffffff80201ce0: 82 80                	ret

ffffffff80201ce2 _ZN4core3ptr13drop_in_place17ha91f939bf6985016E:
ffffffff80201ce2: 41 11                	addi	sp, sp, -16
ffffffff80201ce4: 2a e4                	sd	a0, 8(sp)
ffffffff80201ce6: 41 01                	addi	sp, sp, 16
ffffffff80201ce8: 82 80                	ret

ffffffff80201cea _ZN4core3ptr13drop_in_place17haa5b7b485c426176E:
ffffffff80201cea: 41 11                	addi	sp, sp, -16
ffffffff80201cec: 2a e4                	sd	a0, 8(sp)
ffffffff80201cee: 41 01                	addi	sp, sp, 16
ffffffff80201cf0: 82 80                	ret

ffffffff80201cf2 _ZN4core3ptr13drop_in_place17he4805ca730cbb4f7E:
ffffffff80201cf2: 01 11                	addi	sp, sp, -32
ffffffff80201cf4: 06 ec                	sd	ra, 24(sp)
ffffffff80201cf6: 2a e8                	sd	a0, 16(sp)
ffffffff80201cf8: 97 00 00 00          	auipc	ra, 0
ffffffff80201cfc: e7 80 00 f1          	jalr	-240(ra)
ffffffff80201d00: 09 a0                	j	2
ffffffff80201d02: e2 60                	ld	ra, 24(sp)
ffffffff80201d04: 05 61                	addi	sp, sp, 32
ffffffff80201d06: 82 80                	ret

ffffffff80201d08 _ZN4core3ptr13drop_in_place17he52ff3afaacd8849E:
ffffffff80201d08: 01 11                	addi	sp, sp, -32
ffffffff80201d0a: 06 ec                	sd	ra, 24(sp)
ffffffff80201d0c: 2a e8                	sd	a0, 16(sp)
ffffffff80201d0e: 0c 61                	ld	a1, 0(a0)
ffffffff80201d10: 01 46                	mv	a2, zero
ffffffff80201d12: 2a e0                	sd	a0, 0(sp)
ffffffff80201d14: 63 96 c5 00          	bne	a1, a2, 12
ffffffff80201d18: 09 a0                	j	2
ffffffff80201d1a: e2 60                	ld	ra, 24(sp)
ffffffff80201d1c: 05 61                	addi	sp, sp, 32
ffffffff80201d1e: 82 80                	ret
ffffffff80201d20: 02 65                	ld	a0, 0(sp)
ffffffff80201d22: 21 05                	addi	a0, a0, 8
ffffffff80201d24: 97 00 00 00          	auipc	ra, 0
ffffffff80201d28: e7 80 00 f9          	jalr	-112(ra)
ffffffff80201d2c: fd b7                	j	-18

ffffffff80201d2e _ZN66_$LT$alloc..vec..Vec$LT$T$GT$$u20$as$u20$core..ops..drop..Drop$GT$4drop17hc1c0c9d4d652aeadE:
ffffffff80201d2e: 01 11                	addi	sp, sp, -32
ffffffff80201d30: 06 ec                	sd	ra, 24(sp)
ffffffff80201d32: 2a e8                	sd	a0, 16(sp)
ffffffff80201d34: 2a e4                	sd	a0, 8(sp)
ffffffff80201d36: 97 50 00 00          	auipc	ra, 5
ffffffff80201d3a: e7 80 80 d5          	jalr	-680(ra)
ffffffff80201d3e: 2a e0                	sd	a0, 0(sp)
ffffffff80201d40: 09 a0                	j	2
ffffffff80201d42: 22 65                	ld	a0, 8(sp)
ffffffff80201d44: 0c 69                	ld	a1, 16(a0)
ffffffff80201d46: 02 65                	ld	a0, 0(sp)
ffffffff80201d48: 97 60 00 00          	auipc	ra, 6
ffffffff80201d4c: e7 80 e0 e8          	jalr	-370(ra)
ffffffff80201d50: 09 a0                	j	2
ffffffff80201d52: 09 a0                	j	2
ffffffff80201d54: e2 60                	ld	ra, 24(sp)
ffffffff80201d56: 05 61                	addi	sp, sp, 32
ffffffff80201d58: 82 80                	ret

ffffffff80201d5a _ZN74_$LT$spin..mutex..MutexGuard$LT$T$GT$$u20$as$u20$core..ops..drop..Drop$GT$4drop17h0e5e39acc5384fbdE:
ffffffff80201d5a: 41 11                	addi	sp, sp, -16
ffffffff80201d5c: 06 e4                	sd	ra, 8(sp)
ffffffff80201d5e: 2a e0                	sd	a0, 0(sp)
ffffffff80201d60: 08 61                	ld	a0, 0(a0)
ffffffff80201d62: 81 45                	mv	a1, zero
ffffffff80201d64: 05 46                	addi	a2, zero, 1
ffffffff80201d66: 97 10 00 00          	auipc	ra, 1
ffffffff80201d6a: e7 80 20 54          	jalr	1346(ra)
ffffffff80201d6e: 09 a0                	j	2
ffffffff80201d70: a2 60                	ld	ra, 8(sp)
ffffffff80201d72: 41 01                	addi	sp, sp, 16
ffffffff80201d74: 82 80                	ret

ffffffff80201d76 _ZN77_$LT$alloc..raw_vec..RawVec$LT$T$C$A$GT$$u20$as$u20$core..ops..drop..Drop$GT$4drop17h962a4e2289d54464E:
ffffffff80201d76: 59 71                	addi	sp, sp, -112
ffffffff80201d78: 86 f4                	sd	ra, 104(sp)
ffffffff80201d7a: aa e4                	sd	a0, 72(sp)
ffffffff80201d7c: 0c 18                	addi	a1, sp, 48
ffffffff80201d7e: 2a f0                	sd	a0, 32(sp)
ffffffff80201d80: 2e 85                	add	a0, zero, a1
ffffffff80201d82: 82 75                	ld	a1, 32(sp)
ffffffff80201d84: 97 00 00 00          	auipc	ra, 0
ffffffff80201d88: e7 80 e0 19          	jalr	414(ra)
ffffffff80201d8c: 09 a0                	j	2
ffffffff80201d8e: 42 75                	ld	a0, 48(sp)
ffffffff80201d90: 81 45                	mv	a1, zero
ffffffff80201d92: 63 14 b5 00          	bne	a0, a1, 8
ffffffff80201d96: 09 a0                	j	2
ffffffff80201d98: 3d a0                	j	46
ffffffff80201d9a: 42 75                	ld	a0, 48(sp)
ffffffff80201d9c: aa e8                	sd	a0, 80(sp)
ffffffff80201d9e: e2 75                	ld	a1, 56(sp)
ffffffff80201da0: 06 66                	ld	a2, 64(sp)
ffffffff80201da2: ae ec                	sd	a1, 88(sp)
ffffffff80201da4: b2 f0                	sd	a2, 96(sp)
ffffffff80201da6: 82 76                	ld	a3, 32(sp)
ffffffff80201da8: 2a ec                	sd	a0, 24(sp)
ffffffff80201daa: 36 85                	add	a0, zero, a3
ffffffff80201dac: 62 67                	ld	a4, 24(sp)
ffffffff80201dae: 2e e8                	sd	a1, 16(sp)
ffffffff80201db0: ba 85                	add	a1, zero, a4
ffffffff80201db2: c2 67                	ld	a5, 16(sp)
ffffffff80201db4: 32 e4                	sd	a2, 8(sp)
ffffffff80201db6: 3e 86                	add	a2, zero, a5
ffffffff80201db8: a2 66                	ld	a3, 8(sp)
ffffffff80201dba: 97 e0 ff ff          	auipc	ra, 1048574
ffffffff80201dbe: e7 80 c0 2d          	jalr	732(ra)
ffffffff80201dc2: 09 a0                	j	2
ffffffff80201dc4: 09 a0                	j	2
ffffffff80201dc6: a6 70                	ld	ra, 104(sp)
ffffffff80201dc8: 65 61                	addi	sp, sp, 112
ffffffff80201dca: 82 80                	ret

ffffffff80201dcc _ZN88_$LT$os..memory..frame..frame_tracker..FrameTracker$u20$as$u20$core..ops..drop..Drop$GT$4drop17ha71e8ebf39a01a01E:
ffffffff80201dcc: 39 71                	addi	sp, sp, -64
ffffffff80201dce: 06 fc                	sd	ra, 56(sp)
ffffffff80201dd0: 2a f8                	sd	a0, 48(sp)

ffffffff80201dd2 .LBB23_6:
ffffffff80201dd2: 97 95 00 00          	auipc	a1, 9
ffffffff80201dd6: 93 85 45 36          	addi	a1, a1, 868
ffffffff80201dda: 2a ec                	sd	a0, 24(sp)
ffffffff80201ddc: 2e 85                	add	a0, zero, a1
ffffffff80201dde: 97 f0 ff ff          	auipc	ra, 1048575
ffffffff80201de2: e7 80 80 8a          	jalr	-1880(ra)
ffffffff80201de6: 2a e8                	sd	a0, 16(sp)
ffffffff80201de8: 09 a0                	j	2
ffffffff80201dea: 42 65                	ld	a0, 16(sp)
ffffffff80201dec: 97 f0 ff ff          	auipc	ra, 1048575
ffffffff80201df0: e7 80 c0 b5          	jalr	-1188(ra)
ffffffff80201df4: 2a f0                	sd	a0, 32(sp)
ffffffff80201df6: 2e f4                	sd	a1, 40(sp)
ffffffff80201df8: 09 a0                	j	2
ffffffff80201dfa: 08 10                	addi	a0, sp, 32
ffffffff80201dfc: 97 f0 ff ff          	auipc	ra, 1048575
ffffffff80201e00: e7 80 40 b8          	jalr	-1148(ra)
ffffffff80201e04: 2a e4                	sd	a0, 8(sp)
ffffffff80201e06: 09 a0                	j	2
ffffffff80201e08: 22 65                	ld	a0, 8(sp)
ffffffff80201e0a: e2 65                	ld	a1, 24(sp)
ffffffff80201e0c: 97 f0 ff ff          	auipc	ra, 1048575
ffffffff80201e10: e7 80 20 83          	jalr	-1998(ra)
ffffffff80201e14: 09 a0                	j	2
ffffffff80201e16: 08 10                	addi	a0, sp, 32
ffffffff80201e18: 97 00 00 00          	auipc	ra, 0
ffffffff80201e1c: e7 80 80 e4          	jalr	-440(ra)
ffffffff80201e20: 09 a0                	j	2
ffffffff80201e22: e2 70                	ld	ra, 56(sp)
ffffffff80201e24: 21 61                	addi	sp, sp, 64
ffffffff80201e26: 82 80                	ret

ffffffff80201e28 _ZN4core3fmt5Write10write_char17hb11465014c2d67c8E:
ffffffff80201e28: 5d 71                	addi	sp, sp, -80
ffffffff80201e2a: 86 e4                	sd	ra, 72(sp)
ffffffff80201e2c: 2e 86                	add	a2, zero, a1
ffffffff80201e2e: 2a fc                	sd	a0, 56(sp)
ffffffff80201e30: ae c2                	sw	a1, 68(sp)
ffffffff80201e32: 81 46                	mv	a3, zero
ffffffff80201e34: 36 da                	sw	a3, 52(sp)
ffffffff80201e36: 54 18                	addi	a3, sp, 52
ffffffff80201e38: 11 47                	addi	a4, zero, 4
ffffffff80201e3a: 2a f4                	sd	a0, 40(sp)
ffffffff80201e3c: 2e 85                	add	a0, zero, a1
ffffffff80201e3e: b6 85                	add	a1, zero, a3
ffffffff80201e40: 32 f0                	sd	a2, 32(sp)
ffffffff80201e42: 3a 86                	add	a2, zero, a4
ffffffff80201e44: 97 10 00 00          	auipc	ra, 1
ffffffff80201e48: e7 80 e0 b5          	jalr	-1186(ra)
ffffffff80201e4c: 2a ec                	sd	a0, 24(sp)
ffffffff80201e4e: 2e e8                	sd	a1, 16(sp)
ffffffff80201e50: 09 a0                	j	2
ffffffff80201e52: 22 75                	ld	a0, 40(sp)
ffffffff80201e54: e2 65                	ld	a1, 24(sp)
ffffffff80201e56: 42 66                	ld	a2, 16(sp)
ffffffff80201e58: 97 e0 ff ff          	auipc	ra, 1048574
ffffffff80201e5c: e7 80 e0 48          	jalr	1166(ra)
ffffffff80201e60: 2a e4                	sd	a0, 8(sp)
ffffffff80201e62: 09 a0                	j	2
ffffffff80201e64: 22 65                	ld	a0, 8(sp)
ffffffff80201e66: a6 60                	ld	ra, 72(sp)
ffffffff80201e68: 61 61                	addi	sp, sp, 80
ffffffff80201e6a: 82 80                	ret

ffffffff80201e6c _ZN4core3fmt5Write9write_fmt17h97df00dd4450de9cE:
ffffffff80201e6c: 5d 71                	addi	sp, sp, -80
ffffffff80201e6e: 86 e4                	sd	ra, 72(sp)
ffffffff80201e70: 2a e8                	sd	a0, 16(sp)
ffffffff80201e72: 88 61                	ld	a0, 0(a1)
ffffffff80201e74: 2a ec                	sd	a0, 24(sp)
ffffffff80201e76: 88 65                	ld	a0, 8(a1)
ffffffff80201e78: 2a f0                	sd	a0, 32(sp)
ffffffff80201e7a: 88 69                	ld	a0, 16(a1)
ffffffff80201e7c: 2a f4                	sd	a0, 40(sp)
ffffffff80201e7e: 88 6d                	ld	a0, 24(a1)
ffffffff80201e80: 2a f8                	sd	a0, 48(sp)
ffffffff80201e82: 88 71                	ld	a0, 32(a1)
ffffffff80201e84: 2a fc                	sd	a0, 56(sp)
ffffffff80201e86: 88 75                	ld	a0, 40(a1)
ffffffff80201e88: aa e0                	sd	a0, 64(sp)

ffffffff80201e8a .LBB1_2:
ffffffff80201e8a: 97 a5 00 00          	auipc	a1, 10
ffffffff80201e8e: 93 85 65 b4          	addi	a1, a1, -1210
ffffffff80201e92: 08 08                	addi	a0, sp, 16
ffffffff80201e94: 30 08                	addi	a2, sp, 24
ffffffff80201e96: 97 70 00 00          	auipc	ra, 7
ffffffff80201e9a: e7 80 a0 2c          	jalr	714(ra)
ffffffff80201e9e: 2a e4                	sd	a0, 8(sp)
ffffffff80201ea0: 09 a0                	j	2
ffffffff80201ea2: 22 65                	ld	a0, 8(sp)
ffffffff80201ea4: a6 60                	ld	ra, 72(sp)
ffffffff80201ea6: 61 61                	addi	sp, sp, 80
ffffffff80201ea8: 82 80                	ret

ffffffff80201eaa _ZN50_$LT$$RF$mut$u20$W$u20$as$u20$core..fmt..Write$GT$10write_char17he6adbb2c3890cf65E:
ffffffff80201eaa: 79 71                	addi	sp, sp, -48
ffffffff80201eac: 06 f4                	sd	ra, 40(sp)
ffffffff80201eae: 2e 86                	add	a2, zero, a1
ffffffff80201eb0: 2a ec                	sd	a0, 24(sp)
ffffffff80201eb2: 2e d2                	sw	a1, 36(sp)
ffffffff80201eb4: 08 61                	ld	a0, 0(a0)
ffffffff80201eb6: 32 e8                	sd	a2, 16(sp)
ffffffff80201eb8: 97 00 00 00          	auipc	ra, 0
ffffffff80201ebc: e7 80 00 f7          	jalr	-144(ra)
ffffffff80201ec0: 2a e4                	sd	a0, 8(sp)
ffffffff80201ec2: 09 a0                	j	2
ffffffff80201ec4: 22 65                	ld	a0, 8(sp)
ffffffff80201ec6: a2 70                	ld	ra, 40(sp)
ffffffff80201ec8: 45 61                	addi	sp, sp, 48
ffffffff80201eca: 82 80                	ret

ffffffff80201ecc _ZN50_$LT$$RF$mut$u20$W$u20$as$u20$core..fmt..Write$GT$9write_fmt17h247113192219f8a0E:
ffffffff80201ecc: 5d 71                	addi	sp, sp, -80
ffffffff80201ece: 86 e4                	sd	ra, 72(sp)
ffffffff80201ed0: aa e0                	sd	a0, 64(sp)
ffffffff80201ed2: 08 61                	ld	a0, 0(a0)
ffffffff80201ed4: 90 75                	ld	a2, 40(a1)
ffffffff80201ed6: 32 fc                	sd	a2, 56(sp)
ffffffff80201ed8: 90 71                	ld	a2, 32(a1)
ffffffff80201eda: 32 f8                	sd	a2, 48(sp)
ffffffff80201edc: 90 6d                	ld	a2, 24(a1)
ffffffff80201ede: 32 f4                	sd	a2, 40(sp)
ffffffff80201ee0: 90 69                	ld	a2, 16(a1)
ffffffff80201ee2: 32 f0                	sd	a2, 32(sp)
ffffffff80201ee4: 90 65                	ld	a2, 8(a1)
ffffffff80201ee6: 32 ec                	sd	a2, 24(sp)
ffffffff80201ee8: 8c 61                	ld	a1, 0(a1)
ffffffff80201eea: 2e e8                	sd	a1, 16(sp)
ffffffff80201eec: 0c 08                	addi	a1, sp, 16
ffffffff80201eee: 97 00 00 00          	auipc	ra, 0
ffffffff80201ef2: e7 80 e0 f7          	jalr	-130(ra)
ffffffff80201ef6: 2a e4                	sd	a0, 8(sp)
ffffffff80201ef8: 09 a0                	j	2
ffffffff80201efa: 22 65                	ld	a0, 8(sp)
ffffffff80201efc: a6 60                	ld	ra, 72(sp)
ffffffff80201efe: 61 61                	addi	sp, sp, 80
ffffffff80201f00: 82 80                	ret

ffffffff80201f02 _ZN50_$LT$$RF$mut$u20$W$u20$as$u20$core..fmt..Write$GT$9write_str17h4039036eb031c8c8E:
ffffffff80201f02: 79 71                	addi	sp, sp, -48
ffffffff80201f04: 06 f4                	sd	ra, 40(sp)
ffffffff80201f06: 2a e8                	sd	a0, 16(sp)
ffffffff80201f08: 2e ec                	sd	a1, 24(sp)
ffffffff80201f0a: 32 f0                	sd	a2, 32(sp)
ffffffff80201f0c: 08 61                	ld	a0, 0(a0)
ffffffff80201f0e: 97 e0 ff ff          	auipc	ra, 1048574
ffffffff80201f12: e7 80 80 3d          	jalr	984(ra)
ffffffff80201f16: 2a e4                	sd	a0, 8(sp)
ffffffff80201f18: 09 a0                	j	2
ffffffff80201f1a: 22 65                	ld	a0, 8(sp)
ffffffff80201f1c: a2 70                	ld	ra, 40(sp)
ffffffff80201f1e: 45 61                	addi	sp, sp, 48
ffffffff80201f20: 82 80                	ret

ffffffff80201f22 _ZN5alloc7raw_vec19RawVec$LT$T$C$A$GT$14current_memory17h5525e01178d8a4f5E:
ffffffff80201f22: 71 71                	addi	sp, sp, -176
ffffffff80201f24: 06 f5                	sd	ra, 168(sp)
ffffffff80201f26: ae f4                	sd	a1, 104(sp)
ffffffff80201f28: 05 46                	addi	a2, zero, 1
ffffffff80201f2a: 32 e9                	sd	a2, 144(sp)
ffffffff80201f2c: ae e0                	sd	a1, 64(sp)
ffffffff80201f2e: 2a fc                	sd	a0, 56(sp)
ffffffff80201f30: 32 f8                	sd	a2, 48(sp)
ffffffff80201f32: 25 a0                	j	40
ffffffff80201f34: 05 45                	addi	a0, zero, 1
ffffffff80201f36: a3 07 a1 04          	sb	a0, 79(sp)
ffffffff80201f3a: 19 a8                	j	22
ffffffff80201f3c: 01 45                	mv	a0, zero
ffffffff80201f3e: a3 07 a1 04          	sb	a0, 79(sp)
ffffffff80201f42: 39 a0                	j	14
ffffffff80201f44: 06 65                	ld	a0, 64(sp)
ffffffff80201f46: 0c 65                	ld	a1, 8(a0)
ffffffff80201f48: 01 46                	mv	a2, zero
ffffffff80201f4a: e3 85 c5 fe          	beq	a1, a2, -22
ffffffff80201f4e: fd b7                	j	-18
ffffffff80201f50: 03 45 f1 04          	lbu	a0, 79(sp)
ffffffff80201f54: 05 89                	andi	a0, a0, 1
ffffffff80201f56: 01 ed                	bnez	a0, 24
ffffffff80201f58: 31 a0                	j	12
ffffffff80201f5a: 01 45                	mv	a0, zero
ffffffff80201f5c: c2 75                	ld	a1, 48(sp)
ffffffff80201f5e: e3 8b a5 fc          	beq	a1, a0, -42
ffffffff80201f62: cd b7                	j	-30
ffffffff80201f64: 05 45                	addi	a0, zero, 1
ffffffff80201f66: 2a f1                	sd	a0, 160(sp)
ffffffff80201f68: aa f8                	sd	a0, 112(sp)
ffffffff80201f6a: 2a f4                	sd	a0, 40(sp)
ffffffff80201f6c: 29 a0                	j	10
ffffffff80201f6e: 01 45                	mv	a0, zero
ffffffff80201f70: e2 75                	ld	a1, 56(sp)
ffffffff80201f72: 88 e1                	sd	a0, 0(a1)
ffffffff80201f74: 95 a0                	j	100
ffffffff80201f76: 05 45                	addi	a0, zero, 1
ffffffff80201f78: 2a ed                	sd	a0, 152(sp)
ffffffff80201f7a: 2a f0                	sd	a0, 32(sp)
ffffffff80201f7c: 09 a0                	j	2
ffffffff80201f7e: 06 65                	ld	a0, 64(sp)
ffffffff80201f80: 0c 65                	ld	a1, 8(a0)
ffffffff80201f82: 02 76                	ld	a2, 32(sp)
ffffffff80201f84: b3 05 b6 02          	<unknown>
ffffffff80201f88: ae fc                	sd	a1, 120(sp)
ffffffff80201f8a: 2e 85                	add	a0, zero, a1
ffffffff80201f8c: a2 75                	ld	a1, 40(sp)
ffffffff80201f8e: 97 10 00 00          	auipc	ra, 1
ffffffff80201f92: e7 80 80 6d          	jalr	1752(ra)
ffffffff80201f96: 2a 86                	add	a2, zero, a0
ffffffff80201f98: ae 86                	add	a3, zero, a1
ffffffff80201f9a: 2a e1                	sd	a0, 128(sp)
ffffffff80201f9c: 2e e5                	sd	a1, 136(sp)
ffffffff80201f9e: 32 ec                	sd	a2, 24(sp)
ffffffff80201fa0: 36 e8                	sd	a3, 16(sp)
ffffffff80201fa2: 09 a0                	j	2
ffffffff80201fa4: 06 65                	ld	a0, 64(sp)
ffffffff80201fa6: 08 61                	ld	a0, 0(a0)
ffffffff80201fa8: 97 10 00 00          	auipc	ra, 1
ffffffff80201fac: e7 80 60 a8          	jalr	-1402(ra)
ffffffff80201fb0: 2a e4                	sd	a0, 8(sp)
ffffffff80201fb2: 09 a0                	j	2
ffffffff80201fb4: 22 65                	ld	a0, 8(sp)
ffffffff80201fb6: 97 60 00 00          	auipc	ra, 6
ffffffff80201fba: e7 80 20 df          	jalr	-526(ra)
ffffffff80201fbe: 2a e0                	sd	a0, 0(sp)
ffffffff80201fc0: 09 a0                	j	2
ffffffff80201fc2: 02 65                	ld	a0, 0(sp)
ffffffff80201fc4: aa e8                	sd	a0, 80(sp)
ffffffff80201fc6: e2 65                	ld	a1, 24(sp)
ffffffff80201fc8: ae ec                	sd	a1, 88(sp)
ffffffff80201fca: 42 66                	ld	a2, 16(sp)
ffffffff80201fcc: b2 f0                	sd	a2, 96(sp)
ffffffff80201fce: e2 76                	ld	a3, 56(sp)
ffffffff80201fd0: 90 ea                	sd	a2, 16(a3)
ffffffff80201fd2: 8c e6                	sd	a1, 8(a3)
ffffffff80201fd4: 88 e2                	sd	a0, 0(a3)
ffffffff80201fd6: 09 a0                	j	2
ffffffff80201fd8: aa 70                	ld	ra, 168(sp)
ffffffff80201fda: 4d 61                	addi	sp, sp, 176
ffffffff80201fdc: 82 80                	ret

ffffffff80201fde _ZN4core5array69_$LT$impl$u20$core..fmt..Debug$u20$for$u20$$u5b$T$u3b$$u20$N$u5d$$GT$3fmt17h3bbb42b7e7ab6e0aE:
ffffffff80201fde: 5d 71                	addi	sp, sp, -80
ffffffff80201fe0: 86 e4                	sd	ra, 72(sp)
ffffffff80201fe2: 2a fc                	sd	a0, 56(sp)
ffffffff80201fe4: ae e0                	sd	a1, 64(sp)

ffffffff80201fe6 .LBB0_3:
ffffffff80201fe6: 17 a6 00 00          	auipc	a2, 10
ffffffff80201fea: 13 06 26 a9          	addi	a2, a2, -1390
ffffffff80201fee: 93 06 00 02          	addi	a3, zero, 32
ffffffff80201ff2: 2e f0                	sd	a1, 32(sp)
ffffffff80201ff4: b6 85                	add	a1, zero, a3
ffffffff80201ff6: 97 f0 ff ff          	auipc	ra, 1048575
ffffffff80201ffa: e7 80 20 30          	jalr	770(ra)
ffffffff80201ffe: 2a ec                	sd	a0, 24(sp)
ffffffff80202000: 2e e8                	sd	a1, 16(sp)
ffffffff80202002: 09 a0                	j	2
ffffffff80202004: 62 65                	ld	a0, 24(sp)
ffffffff80202006: 2a f4                	sd	a0, 40(sp)
ffffffff80202008: c2 65                	ld	a1, 16(sp)
ffffffff8020200a: 2e f8                	sd	a1, 48(sp)
ffffffff8020200c: 28 10                	addi	a0, sp, 40
ffffffff8020200e: 82 75                	ld	a1, 32(sp)
ffffffff80202010: 97 00 00 00          	auipc	ra, 0
ffffffff80202014: e7 80 20 03          	jalr	50(ra)
ffffffff80202018: 2a e4                	sd	a0, 8(sp)
ffffffff8020201a: 09 a0                	j	2
ffffffff8020201c: 22 65                	ld	a0, 8(sp)
ffffffff8020201e: a6 60                	ld	ra, 72(sp)
ffffffff80202020: 61 61                	addi	sp, sp, 80
ffffffff80202022: 82 80                	ret

ffffffff80202024 _ZN42_$LT$$RF$T$u20$as$u20$core..fmt..Debug$GT$3fmt17h3920cb45e69cdb92E:
ffffffff80202024: 01 11                	addi	sp, sp, -32
ffffffff80202026: 06 ec                	sd	ra, 24(sp)
ffffffff80202028: 2a e4                	sd	a0, 8(sp)
ffffffff8020202a: 2e e8                	sd	a1, 16(sp)
ffffffff8020202c: 08 61                	ld	a0, 0(a0)
ffffffff8020202e: 97 00 00 00          	auipc	ra, 0
ffffffff80202032: e7 80 00 fb          	jalr	-80(ra)
ffffffff80202036: 2a e0                	sd	a0, 0(sp)
ffffffff80202038: 09 a0                	j	2
ffffffff8020203a: 02 65                	ld	a0, 0(sp)
ffffffff8020203c: e2 60                	ld	ra, 24(sp)
ffffffff8020203e: 05 61                	addi	sp, sp, 32
ffffffff80202040: 82 80                	ret

ffffffff80202042 _ZN42_$LT$$RF$T$u20$as$u20$core..fmt..Debug$GT$3fmt17h9d9fc839b83a69fcE:
ffffffff80202042: 79 71                	addi	sp, sp, -48
ffffffff80202044: 06 f4                	sd	ra, 40(sp)
ffffffff80202046: 2a ec                	sd	a0, 24(sp)
ffffffff80202048: 2e f0                	sd	a1, 32(sp)
ffffffff8020204a: 10 61                	ld	a2, 0(a0)
ffffffff8020204c: 08 65                	ld	a0, 8(a0)
ffffffff8020204e: 2a e8                	sd	a0, 16(sp)
ffffffff80202050: 32 85                	add	a0, zero, a2
ffffffff80202052: 42 66                	ld	a2, 16(sp)
ffffffff80202054: 2e e4                	sd	a1, 8(sp)
ffffffff80202056: b2 85                	add	a1, zero, a2
ffffffff80202058: 22 66                	ld	a2, 8(sp)
ffffffff8020205a: 97 00 00 00          	auipc	ra, 0
ffffffff8020205e: e7 80 20 03          	jalr	50(ra)
ffffffff80202062: 2a e0                	sd	a0, 0(sp)
ffffffff80202064: 09 a0                	j	2
ffffffff80202066: 02 65                	ld	a0, 0(sp)
ffffffff80202068: a2 70                	ld	ra, 40(sp)
ffffffff8020206a: 45 61                	addi	sp, sp, 48
ffffffff8020206c: 82 80                	ret

ffffffff8020206e _ZN44_$LT$$RF$T$u20$as$u20$core..fmt..Display$GT$3fmt17hd4ecb42c101c4bf0E:
ffffffff8020206e: 01 11                	addi	sp, sp, -32
ffffffff80202070: 06 ec                	sd	ra, 24(sp)
ffffffff80202072: 2a e4                	sd	a0, 8(sp)
ffffffff80202074: 2e e8                	sd	a1, 16(sp)
ffffffff80202076: 08 61                	ld	a0, 0(a0)
ffffffff80202078: 97 70 00 00          	auipc	ra, 7
ffffffff8020207c: e7 80 60 0b          	jalr	182(ra)
ffffffff80202080: 2a e0                	sd	a0, 0(sp)
ffffffff80202082: 09 a0                	j	2
ffffffff80202084: 02 65                	ld	a0, 0(sp)
ffffffff80202086: e2 60                	ld	ra, 24(sp)
ffffffff80202088: 05 61                	addi	sp, sp, 32
ffffffff8020208a: 82 80                	ret

ffffffff8020208c _ZN48_$LT$$u5b$T$u5d$$u20$as$u20$core..fmt..Debug$GT$3fmt17h43ce240cebe0ae07E:
ffffffff8020208c: 1d 71                	addi	sp, sp, -96
ffffffff8020208e: 86 ec                	sd	ra, 88(sp)
ffffffff80202090: aa e0                	sd	a0, 64(sp)
ffffffff80202092: ae e4                	sd	a1, 72(sp)
ffffffff80202094: b2 e8                	sd	a2, 80(sp)
ffffffff80202096: 14 18                	addi	a3, sp, 48
ffffffff80202098: 2a f4                	sd	a0, 40(sp)
ffffffff8020209a: 36 85                	add	a0, zero, a3
ffffffff8020209c: 2e f0                	sd	a1, 32(sp)
ffffffff8020209e: b2 85                	add	a1, zero, a2
ffffffff802020a0: 97 80 00 00          	auipc	ra, 8
ffffffff802020a4: e7 80 60 80          	jalr	-2042(ra)
ffffffff802020a8: 09 a0                	j	2
ffffffff802020aa: 22 75                	ld	a0, 40(sp)
ffffffff802020ac: 82 75                	ld	a1, 32(sp)
ffffffff802020ae: 97 30 00 00          	auipc	ra, 3
ffffffff802020b2: e7 80 60 53          	jalr	1334(ra)
ffffffff802020b6: 2a ec                	sd	a0, 24(sp)
ffffffff802020b8: 2e e8                	sd	a1, 16(sp)
ffffffff802020ba: 09 a0                	j	2
ffffffff802020bc: 08 18                	addi	a0, sp, 48
ffffffff802020be: e2 65                	ld	a1, 24(sp)
ffffffff802020c0: 42 66                	ld	a2, 16(sp)
ffffffff802020c2: 97 f0 ff ff          	auipc	ra, 1048575
ffffffff802020c6: e7 80 e0 5d          	jalr	1502(ra)
ffffffff802020ca: 2a e4                	sd	a0, 8(sp)
ffffffff802020cc: 09 a0                	j	2
ffffffff802020ce: 22 65                	ld	a0, 8(sp)
ffffffff802020d0: 97 70 00 00          	auipc	ra, 7
ffffffff802020d4: e7 80 20 df          	jalr	-526(ra)
ffffffff802020d8: 2a e0                	sd	a0, 0(sp)
ffffffff802020da: 09 a0                	j	2
ffffffff802020dc: 02 65                	ld	a0, 0(sp)
ffffffff802020de: e6 60                	ld	ra, 88(sp)
ffffffff802020e0: 25 61                	addi	sp, sp, 96
ffffffff802020e2: 82 80                	ret

ffffffff802020e4 _ZN4core3fmt10ArgumentV13new17h00f03df14291888aE:
ffffffff802020e4: 5d 71                	addi	sp, sp, -80
ffffffff802020e6: 2a f8                	sd	a0, 48(sp)
ffffffff802020e8: 2e fc                	sd	a1, 56(sp)
ffffffff802020ea: ae e0                	sd	a1, 64(sp)
ffffffff802020ec: 2a ec                	sd	a0, 24(sp)
ffffffff802020ee: 2e e8                	sd	a1, 16(sp)
ffffffff802020f0: 09 a0                	j	2
ffffffff802020f2: 62 65                	ld	a0, 24(sp)
ffffffff802020f4: aa e4                	sd	a0, 72(sp)
ffffffff802020f6: 2a e4                	sd	a0, 8(sp)
ffffffff802020f8: 09 a0                	j	2
ffffffff802020fa: 22 65                	ld	a0, 8(sp)
ffffffff802020fc: 2a f0                	sd	a0, 32(sp)
ffffffff802020fe: c2 65                	ld	a1, 16(sp)
ffffffff80202100: 2e f4                	sd	a1, 40(sp)
ffffffff80202102: 61 61                	addi	sp, sp, 80
ffffffff80202104: 82 80                	ret

ffffffff80202106 _ZN4core3fmt10ArgumentV13new17h0784c1a15073ac32E:
ffffffff80202106: 5d 71                	addi	sp, sp, -80
ffffffff80202108: 2a f8                	sd	a0, 48(sp)
ffffffff8020210a: 2e fc                	sd	a1, 56(sp)
ffffffff8020210c: ae e0                	sd	a1, 64(sp)
ffffffff8020210e: 2a ec                	sd	a0, 24(sp)
ffffffff80202110: 2e e8                	sd	a1, 16(sp)
ffffffff80202112: 09 a0                	j	2
ffffffff80202114: 62 65                	ld	a0, 24(sp)
ffffffff80202116: aa e4                	sd	a0, 72(sp)
ffffffff80202118: 2a e4                	sd	a0, 8(sp)
ffffffff8020211a: 09 a0                	j	2
ffffffff8020211c: 22 65                	ld	a0, 8(sp)
ffffffff8020211e: 2a f0                	sd	a0, 32(sp)
ffffffff80202120: c2 65                	ld	a1, 16(sp)
ffffffff80202122: 2e f4                	sd	a1, 40(sp)
ffffffff80202124: 61 61                	addi	sp, sp, 80
ffffffff80202126: 82 80                	ret

ffffffff80202128 _ZN4core3fmt10ArgumentV13new17h25761ab9bef76613E:
ffffffff80202128: 5d 71                	addi	sp, sp, -80
ffffffff8020212a: 2a f8                	sd	a0, 48(sp)
ffffffff8020212c: 2e fc                	sd	a1, 56(sp)
ffffffff8020212e: ae e0                	sd	a1, 64(sp)
ffffffff80202130: 2a ec                	sd	a0, 24(sp)
ffffffff80202132: 2e e8                	sd	a1, 16(sp)
ffffffff80202134: 09 a0                	j	2
ffffffff80202136: 62 65                	ld	a0, 24(sp)
ffffffff80202138: aa e4                	sd	a0, 72(sp)
ffffffff8020213a: 2a e4                	sd	a0, 8(sp)
ffffffff8020213c: 09 a0                	j	2
ffffffff8020213e: 22 65                	ld	a0, 8(sp)
ffffffff80202140: 2a f0                	sd	a0, 32(sp)
ffffffff80202142: c2 65                	ld	a1, 16(sp)
ffffffff80202144: 2e f4                	sd	a1, 40(sp)
ffffffff80202146: 61 61                	addi	sp, sp, 80
ffffffff80202148: 82 80                	ret

ffffffff8020214a _ZN4core3fmt10ArgumentV13new17h7900c140ffb96d7cE:
ffffffff8020214a: 5d 71                	addi	sp, sp, -80
ffffffff8020214c: 2a f8                	sd	a0, 48(sp)
ffffffff8020214e: 2e fc                	sd	a1, 56(sp)
ffffffff80202150: ae e0                	sd	a1, 64(sp)
ffffffff80202152: 2a ec                	sd	a0, 24(sp)
ffffffff80202154: 2e e8                	sd	a1, 16(sp)
ffffffff80202156: 09 a0                	j	2
ffffffff80202158: 62 65                	ld	a0, 24(sp)
ffffffff8020215a: aa e4                	sd	a0, 72(sp)
ffffffff8020215c: 2a e4                	sd	a0, 8(sp)
ffffffff8020215e: 09 a0                	j	2
ffffffff80202160: 22 65                	ld	a0, 8(sp)
ffffffff80202162: 2a f0                	sd	a0, 32(sp)
ffffffff80202164: c2 65                	ld	a1, 16(sp)
ffffffff80202166: 2e f4                	sd	a1, 40(sp)
ffffffff80202168: 61 61                	addi	sp, sp, 80
ffffffff8020216a: 82 80                	ret

ffffffff8020216c _ZN4core3fmt10ArgumentV13new17h9248772dcfa03282E:
ffffffff8020216c: 5d 71                	addi	sp, sp, -80
ffffffff8020216e: 2a f8                	sd	a0, 48(sp)
ffffffff80202170: 2e fc                	sd	a1, 56(sp)
ffffffff80202172: ae e0                	sd	a1, 64(sp)
ffffffff80202174: 2a ec                	sd	a0, 24(sp)
ffffffff80202176: 2e e8                	sd	a1, 16(sp)
ffffffff80202178: 09 a0                	j	2
ffffffff8020217a: 62 65                	ld	a0, 24(sp)
ffffffff8020217c: aa e4                	sd	a0, 72(sp)
ffffffff8020217e: 2a e4                	sd	a0, 8(sp)
ffffffff80202180: 09 a0                	j	2
ffffffff80202182: 22 65                	ld	a0, 8(sp)
ffffffff80202184: 2a f0                	sd	a0, 32(sp)
ffffffff80202186: c2 65                	ld	a1, 16(sp)
ffffffff80202188: 2e f4                	sd	a1, 40(sp)
ffffffff8020218a: 61 61                	addi	sp, sp, 80
ffffffff8020218c: 82 80                	ret

ffffffff8020218e _ZN4core3fmt10ArgumentV13new17h95b77cf64d42b942E:
ffffffff8020218e: 5d 71                	addi	sp, sp, -80
ffffffff80202190: 2a f8                	sd	a0, 48(sp)
ffffffff80202192: 2e fc                	sd	a1, 56(sp)
ffffffff80202194: ae e0                	sd	a1, 64(sp)
ffffffff80202196: 2a ec                	sd	a0, 24(sp)
ffffffff80202198: 2e e8                	sd	a1, 16(sp)
ffffffff8020219a: 09 a0                	j	2
ffffffff8020219c: 62 65                	ld	a0, 24(sp)
ffffffff8020219e: aa e4                	sd	a0, 72(sp)
ffffffff802021a0: 2a e4                	sd	a0, 8(sp)
ffffffff802021a2: 09 a0                	j	2
ffffffff802021a4: 22 65                	ld	a0, 8(sp)
ffffffff802021a6: 2a f0                	sd	a0, 32(sp)
ffffffff802021a8: c2 65                	ld	a1, 16(sp)
ffffffff802021aa: 2e f4                	sd	a1, 40(sp)
ffffffff802021ac: 61 61                	addi	sp, sp, 80
ffffffff802021ae: 82 80                	ret

ffffffff802021b0 _ZN4core3str11unwrap_or_017ha2b5aa1d35cf5984E:
ffffffff802021b0: 41 11                	addi	sp, sp, -16
ffffffff802021b2: 2a e0                	sd	a0, 0(sp)
ffffffff802021b4: b3 35 a0 00          	snez	a1, a0
ffffffff802021b8: 01 46                	mv	a2, zero
ffffffff802021ba: 63 04 c5 00          	beq	a0, a2, 8
ffffffff802021be: 09 a0                	j	2
ffffffff802021c0: 31 a0                	j	12
ffffffff802021c2: 01 45                	mv	a0, zero
ffffffff802021c4: 23 07 a1 00          	sb	a0, 14(sp)
ffffffff802021c8: 11 a8                	j	20
ffffffff802021ca: 00 00                	unimp	
ffffffff802021cc: 02 65                	ld	a0, 0(sp)
ffffffff802021ce: 03 05 05 00          	lb	a0, 0(a0)
ffffffff802021d2: a3 07 a1 00          	sb	a0, 15(sp)
ffffffff802021d6: 23 07 a1 00          	sb	a0, 14(sp)
ffffffff802021da: 09 a0                	j	2
ffffffff802021dc: 03 05 e1 00          	lb	a0, 14(sp)
ffffffff802021e0: 41 01                	addi	sp, sp, 16
ffffffff802021e2: 82 80                	ret

ffffffff802021e4 _ZN4core3str15utf8_first_byte17h72d92b977b974e5bE:
ffffffff802021e4: 41 11                	addi	sp, sp, -16
ffffffff802021e6: 2e 86                	add	a2, zero, a1
ffffffff802021e8: aa 86                	add	a3, zero, a0
ffffffff802021ea: a3 05 a1 00          	sb	a0, 11(sp)
ffffffff802021ee: 2e c6                	sw	a1, 12(sp)
ffffffff802021f0: 9d 89                	andi	a1, a1, 7
ffffffff802021f2: 13 07 f0 07          	addi	a4, zero, 127
ffffffff802021f6: b3 55 b7 00          	srl	a1, a4, a1
ffffffff802021fa: 6d 8d                	and	a0, a0, a1
ffffffff802021fc: 41 01                	addi	sp, sp, 16
ffffffff802021fe: 82 80                	ret

ffffffff80202200 _ZN4core3str18utf8_acc_cont_byte17h656aff1ae550fd58E:
ffffffff80202200: 41 11                	addi	sp, sp, -16
ffffffff80202202: 2e 86                	add	a2, zero, a1
ffffffff80202204: aa 86                	add	a3, zero, a0
ffffffff80202206: 2a c4                	sw	a0, 8(sp)
ffffffff80202208: a3 07 b1 00          	sb	a1, 15(sp)
ffffffff8020220c: 1a 05                	slli	a0, a0, 6
ffffffff8020220e: 93 f5 f5 03          	andi	a1, a1, 63
ffffffff80202212: 4d 8d                	or	a0, a0, a1
ffffffff80202214: 41 01                	addi	sp, sp, 16
ffffffff80202216: 82 80                	ret

ffffffff80202218 _ZN4core3str21_$LT$impl$u20$str$GT$5chars17h7dd8683e0ca3accbE:
ffffffff80202218: 59 71                	addi	sp, sp, -112
ffffffff8020221a: 86 f4                	sd	ra, 104(sp)
ffffffff8020221c: 2a fc                	sd	a0, 56(sp)
ffffffff8020221e: ae e0                	sd	a1, 64(sp)
ffffffff80202220: aa ec                	sd	a0, 88(sp)
ffffffff80202222: ae f0                	sd	a1, 96(sp)
ffffffff80202224: aa e4                	sd	a0, 72(sp)
ffffffff80202226: ae e8                	sd	a1, 80(sp)
ffffffff80202228: 2a f0                	sd	a0, 32(sp)
ffffffff8020222a: 2e ec                	sd	a1, 24(sp)
ffffffff8020222c: 09 a0                	j	2
ffffffff8020222e: 02 75                	ld	a0, 32(sp)
ffffffff80202230: e2 65                	ld	a1, 24(sp)
ffffffff80202232: 97 f0 ff ff          	auipc	ra, 1048575
ffffffff80202236: e7 80 60 01          	jalr	22(ra)
ffffffff8020223a: 2a e8                	sd	a0, 16(sp)
ffffffff8020223c: 2e e4                	sd	a1, 8(sp)
ffffffff8020223e: 09 a0                	j	2
ffffffff80202240: 42 65                	ld	a0, 16(sp)
ffffffff80202242: 2a f4                	sd	a0, 40(sp)
ffffffff80202244: a2 65                	ld	a1, 8(sp)
ffffffff80202246: 2e f8                	sd	a1, 48(sp)
ffffffff80202248: a6 70                	ld	ra, 104(sp)
ffffffff8020224a: 65 61                	addi	sp, sp, 112
ffffffff8020224c: 82 80                	ret

ffffffff8020224e _ZN4core3str23from_utf8_unchecked_mut17h1b72dc71a9ef49d6E:
ffffffff8020224e: 41 11                	addi	sp, sp, -16
ffffffff80202250: 2a e0                	sd	a0, 0(sp)
ffffffff80202252: 2e e4                	sd	a1, 8(sp)
ffffffff80202254: 41 01                	addi	sp, sp, 16
ffffffff80202256: 82 80                	ret

ffffffff80202258 _ZN75_$LT$core..str..Chars$u20$as$u20$core..iter..traits..iterator..Iterator$GT$4next17h75ee8a377fb0fa2cE:
ffffffff80202258: 79 71                	addi	sp, sp, -48
ffffffff8020225a: 06 f4                	sd	ra, 40(sp)
ffffffff8020225c: 2a f0                	sd	a0, 32(sp)
ffffffff8020225e: 97 00 00 00          	auipc	ra, 0
ffffffff80202262: e7 80 20 32          	jalr	802(ra)
ffffffff80202266: 2a ec                	sd	a0, 24(sp)
ffffffff80202268: 2e e8                	sd	a1, 16(sp)
ffffffff8020226a: 09 a0                	j	2
ffffffff8020226c: 62 65                	ld	a0, 24(sp)
ffffffff8020226e: c2 65                	ld	a1, 16(sp)
ffffffff80202270: 97 f0 ff ff          	auipc	ra, 1048575
ffffffff80202274: e7 80 c0 a4          	jalr	-1460(ra)
ffffffff80202278: 02 15                	slli	a0, a0, 32
ffffffff8020227a: 01 91                	srli	a0, a0, 32
ffffffff8020227c: 2a e4                	sd	a0, 8(sp)
ffffffff8020227e: 09 a0                	j	2
ffffffff80202280: 22 65                	ld	a0, 8(sp)
ffffffff80202282: a2 70                	ld	ra, 40(sp)
ffffffff80202284: 45 61                	addi	sp, sp, 48
ffffffff80202286: 82 80                	ret

ffffffff80202288 _ZN4core5alloc6global11GlobalAlloc12alloc_zeroed17h57db23d75ae6f7c4E:
ffffffff80202288: 1d 71                	addi	sp, sp, -96
ffffffff8020228a: 86 ec                	sd	ra, 88(sp)
ffffffff8020228c: 2e f8                	sd	a1, 48(sp)
ffffffff8020228e: 32 fc                	sd	a2, 56(sp)
ffffffff80202290: aa e0                	sd	a0, 64(sp)
ffffffff80202292: 0c 18                	addi	a1, sp, 48
ffffffff80202294: 2a f4                	sd	a0, 40(sp)
ffffffff80202296: 2e 85                	add	a0, zero, a1
ffffffff80202298: 97 10 00 00          	auipc	ra, 1
ffffffff8020229c: e7 80 40 3f          	jalr	1012(ra)
ffffffff802022a0: aa 85                	add	a1, zero, a0
ffffffff802022a2: aa e4                	sd	a0, 72(sp)
ffffffff802022a4: 2e f0                	sd	a1, 32(sp)
ffffffff802022a6: 09 a0                	j	2
ffffffff802022a8: c2 75                	ld	a1, 48(sp)
ffffffff802022aa: 62 76                	ld	a2, 56(sp)
ffffffff802022ac: 22 75                	ld	a0, 40(sp)
ffffffff802022ae: 97 20 00 00          	auipc	ra, 2
ffffffff802022b2: e7 80 80 f9          	jalr	-104(ra)
ffffffff802022b6: aa 85                	add	a1, zero, a0
ffffffff802022b8: aa e8                	sd	a0, 80(sp)
ffffffff802022ba: 2e ec                	sd	a1, 24(sp)
ffffffff802022bc: 09 a0                	j	2
ffffffff802022be: 62 65                	ld	a0, 24(sp)
ffffffff802022c0: 97 30 00 00          	auipc	ra, 3
ffffffff802022c4: e7 80 00 04          	jalr	64(ra)
ffffffff802022c8: 2a e8                	sd	a0, 16(sp)
ffffffff802022ca: 09 a0                	j	2
ffffffff802022cc: 01 45                	mv	a0, zero
ffffffff802022ce: c2 65                	ld	a1, 16(sp)
ffffffff802022d0: 63 84 a5 00          	beq	a1, a0, 8
ffffffff802022d4: 09 a0                	j	2
ffffffff802022d6: 29 a8                	j	26
ffffffff802022d8: 01 45                	mv	a0, zero
ffffffff802022da: e2 65                	ld	a1, 24(sp)
ffffffff802022dc: 2a e4                	sd	a0, 8(sp)
ffffffff802022de: 2e 85                	add	a0, zero, a1
ffffffff802022e0: a2 65                	ld	a1, 8(sp)
ffffffff802022e2: 02 76                	ld	a2, 32(sp)
ffffffff802022e4: 97 30 00 00          	auipc	ra, 3
ffffffff802022e8: e7 80 c0 9a          	jalr	-1620(ra)
ffffffff802022ec: 09 a0                	j	2
ffffffff802022ee: 09 a0                	j	2
ffffffff802022f0: 62 65                	ld	a0, 24(sp)
ffffffff802022f2: e6 60                	ld	ra, 88(sp)
ffffffff802022f4: 25 61                	addi	sp, sp, 96
ffffffff802022f6: 82 80                	ret

ffffffff802022f8 _ZN4core4char7convert18from_u32_unchecked17h62ee6600ba94a400E:
ffffffff802022f8: 41 11                	addi	sp, sp, -16
ffffffff802022fa: aa 85                	add	a1, zero, a0
ffffffff802022fc: 2a c4                	sw	a0, 8(sp)
ffffffff802022fe: 2a c6                	sw	a0, 12(sp)
ffffffff80202300: 02 15                	slli	a0, a0, 32
ffffffff80202302: 01 91                	srli	a0, a0, 32
ffffffff80202304: 2a e0                	sd	a0, 0(sp)
ffffffff80202306: 09 a0                	j	2
ffffffff80202308: 02 65                	ld	a0, 0(sp)
ffffffff8020230a: 41 01                	addi	sp, sp, 16
ffffffff8020230c: 82 80                	ret

ffffffff8020230e _ZN101_$LT$core..ops..range..RangeTo$LT$usize$GT$$u20$as$u20$core..slice..SliceIndex$LT$$u5b$T$u5d$$GT$$GT$9index_mut17hd20eeea80936e4ddE:
ffffffff8020230e: 1d 71                	addi	sp, sp, -96
ffffffff80202310: 86 ec                	sd	ra, 88(sp)
ffffffff80202312: aa e0                	sd	a0, 64(sp)
ffffffff80202314: ae e4                	sd	a1, 72(sp)
ffffffff80202316: b2 e8                	sd	a2, 80(sp)
ffffffff80202318: 01 47                	mv	a4, zero
ffffffff8020231a: 3a f8                	sd	a4, 48(sp)
ffffffff8020231c: 2a fc                	sd	a0, 56(sp)
ffffffff8020231e: 2a f4                	sd	a0, 40(sp)
ffffffff80202320: 3a 85                	add	a0, zero, a4
ffffffff80202322: 22 77                	ld	a4, 40(sp)
ffffffff80202324: 2e f0                	sd	a1, 32(sp)
ffffffff80202326: ba 85                	add	a1, zero, a4
ffffffff80202328: 82 77                	ld	a5, 32(sp)
ffffffff8020232a: 32 ec                	sd	a2, 24(sp)
ffffffff8020232c: 3e 86                	add	a2, zero, a5
ffffffff8020232e: 62 68                	ld	a6, 24(sp)
ffffffff80202330: 36 e8                	sd	a3, 16(sp)
ffffffff80202332: c2 86                	add	a3, zero, a6
ffffffff80202334: 42 67                	ld	a4, 16(sp)
ffffffff80202336: 97 00 00 00          	auipc	ra, 0
ffffffff8020233a: e7 80 60 0f          	jalr	246(ra)
ffffffff8020233e: 2a e4                	sd	a0, 8(sp)
ffffffff80202340: 2e e0                	sd	a1, 0(sp)
ffffffff80202342: 09 a0                	j	2
ffffffff80202344: 22 65                	ld	a0, 8(sp)
ffffffff80202346: 82 65                	ld	a1, 0(sp)
ffffffff80202348: e6 60                	ld	ra, 88(sp)
ffffffff8020234a: 25 61                	addi	sp, sp, 96
ffffffff8020234c: 82 80                	ret

ffffffff8020234e _ZN4core4iter5range101_$LT$impl$u20$core..iter..traits..iterator..Iterator$u20$for$u20$core..ops..range..Range$LT$A$GT$$GT$4next17h8d720bcdfcc38c46E:
ffffffff8020234e: 5d 71                	addi	sp, sp, -80
ffffffff80202350: 86 e4                	sd	ra, 72(sp)
ffffffff80202352: 2a fc                	sd	a0, 56(sp)
ffffffff80202354: 93 05 45 00          	addi	a1, a0, 4
ffffffff80202358: 2a f4                	sd	a0, 40(sp)
ffffffff8020235a: 97 f0 ff ff          	auipc	ra, 1048575
ffffffff8020235e: e7 80 40 33          	jalr	820(ra)
ffffffff80202362: 2a f0                	sd	a0, 32(sp)
ffffffff80202364: 09 a0                	j	2
ffffffff80202366: 02 75                	ld	a0, 32(sp)
ffffffff80202368: 09 e5                	bnez	a0, 10
ffffffff8020236a: 09 a0                	j	2
ffffffff8020236c: 01 45                	mv	a0, zero
ffffffff8020236e: 2a d8                	sw	a0, 48(sp)
ffffffff80202370: 3d a8                	j	62
ffffffff80202372: 22 75                	ld	a0, 40(sp)
ffffffff80202374: 97 e0 ff ff          	auipc	ra, 1048574
ffffffff80202378: e7 80 40 e7          	jalr	-396(ra)
ffffffff8020237c: 2a ec                	sd	a0, 24(sp)
ffffffff8020237e: 09 a0                	j	2
ffffffff80202380: 85 45                	addi	a1, zero, 1
ffffffff80202382: 62 65                	ld	a0, 24(sp)
ffffffff80202384: 97 e0 ff ff          	auipc	ra, 1048574
ffffffff80202388: e7 80 00 1b          	jalr	432(ra)
ffffffff8020238c: aa 85                	add	a1, zero, a0
ffffffff8020238e: aa c2                	sw	a0, 68(sp)
ffffffff80202390: 2e e8                	sd	a1, 16(sp)
ffffffff80202392: 09 a0                	j	2
ffffffff80202394: 22 75                	ld	a0, 40(sp)
ffffffff80202396: c2 65                	ld	a1, 16(sp)
ffffffff80202398: 97 10 00 00          	auipc	ra, 1
ffffffff8020239c: e7 80 a0 1a          	jalr	426(ra)
ffffffff802023a0: 2a e4                	sd	a0, 8(sp)
ffffffff802023a2: 09 a0                	j	2
ffffffff802023a4: 22 65                	ld	a0, 8(sp)
ffffffff802023a6: 2a da                	sw	a0, 52(sp)
ffffffff802023a8: 85 45                	addi	a1, zero, 1
ffffffff802023aa: 2e d8                	sw	a1, 48(sp)
ffffffff802023ac: 09 a0                	j	2
ffffffff802023ae: 42 55                	lw	a0, 48(sp)
ffffffff802023b0: d2 55                	lw	a1, 52(sp)
ffffffff802023b2: a6 60                	ld	ra, 72(sp)
ffffffff802023b4: 61 61                	addi	sp, sp, 80
ffffffff802023b6: 82 80                	ret

ffffffff802023b8 _ZN63_$LT$I$u20$as$u20$core..iter..traits..collect..IntoIterator$GT$9into_iter17h8d9d87799126d67fE:
ffffffff802023b8: 41 11                	addi	sp, sp, -16
ffffffff802023ba: 2e 86                	add	a2, zero, a1
ffffffff802023bc: aa 86                	add	a3, zero, a0
ffffffff802023be: 2a c4                	sw	a0, 8(sp)
ffffffff802023c0: 2e c6                	sw	a1, 12(sp)
ffffffff802023c2: 41 01                	addi	sp, sp, 16
ffffffff802023c4: 82 80                	ret

ffffffff802023c6 _ZN90_$LT$core..ops..range..RangeFull$u20$as$u20$core..slice..SliceIndex$LT$$u5b$T$u5d$$GT$$GT$5index17h03e9fa8e12eef4daE:
ffffffff802023c6: 01 11                	addi	sp, sp, -32
ffffffff802023c8: 2a e8                	sd	a0, 16(sp)
ffffffff802023ca: 2e ec                	sd	a1, 24(sp)
ffffffff802023cc: 05 61                	addi	sp, sp, 32
ffffffff802023ce: 82 80                	ret

ffffffff802023d0 _ZN90_$LT$core..ops..range..RangeFull$u20$as$u20$core..slice..SliceIndex$LT$$u5b$T$u5d$$GT$$GT$9index_mut17h7e1411053e2a3316E:
ffffffff802023d0: 01 11                	addi	sp, sp, -32
ffffffff802023d2: 2a e8                	sd	a0, 16(sp)
ffffffff802023d4: 2e ec                	sd	a1, 24(sp)
ffffffff802023d6: 05 61                	addi	sp, sp, 32
ffffffff802023d8: 82 80                	ret

ffffffff802023da _ZN99_$LT$core..ops..range..Range$LT$usize$GT$$u20$as$u20$core..slice..SliceIndex$LT$$u5b$T$u5d$$GT$$GT$17get_unchecked_mut17h66124ca91e05b720E:
ffffffff802023da: 1d 71                	addi	sp, sp, -96
ffffffff802023dc: 86 ec                	sd	ra, 88(sp)
ffffffff802023de: 2a fc                	sd	a0, 56(sp)
ffffffff802023e0: ae e0                	sd	a1, 64(sp)
ffffffff802023e2: b2 e4                	sd	a2, 72(sp)
ffffffff802023e4: b6 e8                	sd	a3, 80(sp)
ffffffff802023e6: 2a f8                	sd	a0, 48(sp)
ffffffff802023e8: 32 85                	add	a0, zero, a2
ffffffff802023ea: 2e f4                	sd	a1, 40(sp)
ffffffff802023ec: b6 85                	add	a1, zero, a3
ffffffff802023ee: 97 f0 ff ff          	auipc	ra, 1048575
ffffffff802023f2: e7 80 00 e4          	jalr	-448(ra)
ffffffff802023f6: 2a f0                	sd	a0, 32(sp)
ffffffff802023f8: 09 a0                	j	2
ffffffff802023fa: 02 75                	ld	a0, 32(sp)
ffffffff802023fc: c2 75                	ld	a1, 48(sp)
ffffffff802023fe: 97 30 00 00          	auipc	ra, 3
ffffffff80202402: e7 80 c0 eb          	jalr	-324(ra)
ffffffff80202406: 2a ec                	sd	a0, 24(sp)
ffffffff80202408: 09 a0                	j	2
ffffffff8020240a: 22 75                	ld	a0, 40(sp)
ffffffff8020240c: c2 75                	ld	a1, 48(sp)
ffffffff8020240e: b3 05 b5 40          	sub	a1, a0, a1
ffffffff80202412: 62 65                	ld	a0, 24(sp)
ffffffff80202414: 97 40 00 00          	auipc	ra, 4
ffffffff80202418: e7 80 60 1a          	jalr	422(ra)
ffffffff8020241c: 2a e8                	sd	a0, 16(sp)
ffffffff8020241e: 2e e4                	sd	a1, 8(sp)
ffffffff80202420: 09 a0                	j	2
ffffffff80202422: 42 65                	ld	a0, 16(sp)
ffffffff80202424: a2 65                	ld	a1, 8(sp)
ffffffff80202426: e6 60                	ld	ra, 88(sp)
ffffffff80202428: 25 61                	addi	sp, sp, 96
ffffffff8020242a: 82 80                	ret

ffffffff8020242c _ZN99_$LT$core..ops..range..Range$LT$usize$GT$$u20$as$u20$core..slice..SliceIndex$LT$$u5b$T$u5d$$GT$$GT$9index_mut17h3c8170a881018499E:
ffffffff8020242c: 59 71                	addi	sp, sp, -112
ffffffff8020242e: 86 f4                	sd	ra, 104(sp)
ffffffff80202430: aa e4                	sd	a0, 72(sp)
ffffffff80202432: ae e8                	sd	a1, 80(sp)
ffffffff80202434: b2 ec                	sd	a2, 88(sp)
ffffffff80202436: b6 f0                	sd	a3, 96(sp)
ffffffff80202438: ba e0                	sd	a4, 64(sp)
ffffffff8020243a: 36 fc                	sd	a3, 56(sp)
ffffffff8020243c: 32 f8                	sd	a2, 48(sp)
ffffffff8020243e: 2e f4                	sd	a1, 40(sp)
ffffffff80202440: 2a f0                	sd	a0, 32(sp)
ffffffff80202442: 63 eb a5 00          	bltu	a1, a0, 22
ffffffff80202446: 09 a0                	j	2
ffffffff80202448: 42 75                	ld	a0, 48(sp)
ffffffff8020244a: e2 75                	ld	a1, 56(sp)
ffffffff8020244c: 97 f0 ff ff          	auipc	ra, 1048575
ffffffff80202450: e7 80 c0 de          	jalr	-532(ra)
ffffffff80202454: 2a ec                	sd	a0, 24(sp)
ffffffff80202456: 09 a8                	j	18
ffffffff80202458: 02 75                	ld	a0, 32(sp)
ffffffff8020245a: a2 75                	ld	a1, 40(sp)
ffffffff8020245c: 06 66                	ld	a2, 64(sp)
ffffffff8020245e: 97 80 00 00          	auipc	ra, 8
ffffffff80202462: e7 80 60 91          	jalr	-1770(ra)
ffffffff80202466: 00 00                	unimp	
ffffffff80202468: 62 65                	ld	a0, 24(sp)
ffffffff8020246a: a2 75                	ld	a1, 40(sp)
ffffffff8020246c: 63 6e b5 00          	bltu	a0, a1, 28
ffffffff80202470: 09 a0                	j	2
ffffffff80202472: 02 75                	ld	a0, 32(sp)
ffffffff80202474: a2 75                	ld	a1, 40(sp)
ffffffff80202476: 42 76                	ld	a2, 48(sp)
ffffffff80202478: e2 76                	ld	a3, 56(sp)
ffffffff8020247a: 97 00 00 00          	auipc	ra, 0
ffffffff8020247e: e7 80 00 f6          	jalr	-160(ra)
ffffffff80202482: 2a e8                	sd	a0, 16(sp)
ffffffff80202484: 2e e4                	sd	a1, 8(sp)
ffffffff80202486: 0d a0                	j	34
ffffffff80202488: 42 75                	ld	a0, 48(sp)
ffffffff8020248a: e2 75                	ld	a1, 56(sp)
ffffffff8020248c: 97 f0 ff ff          	auipc	ra, 1048575
ffffffff80202490: e7 80 c0 da          	jalr	-596(ra)
ffffffff80202494: 2a e0                	sd	a0, 0(sp)
ffffffff80202496: 09 a0                	j	2
ffffffff80202498: 22 75                	ld	a0, 40(sp)
ffffffff8020249a: 82 65                	ld	a1, 0(sp)
ffffffff8020249c: 06 66                	ld	a2, 64(sp)
ffffffff8020249e: 97 80 00 00          	auipc	ra, 8
ffffffff802024a2: e7 80 60 89          	jalr	-1898(ra)
ffffffff802024a6: 00 00                	unimp	
ffffffff802024a8: 42 65                	ld	a0, 16(sp)
ffffffff802024aa: a2 65                	ld	a1, 8(sp)
ffffffff802024ac: a6 70                	ld	ra, 104(sp)
ffffffff802024ae: 65 61                	addi	sp, sp, 112
ffffffff802024b0: 82 80                	ret

ffffffff802024b2 _ZN50_$LT$T$u20$as$u20$core..convert..From$LT$T$GT$$GT$4from17hb41451053bbb3178E:
ffffffff802024b2: 90 65                	ld	a2, 8(a1)
ffffffff802024b4: 10 e5                	sd	a2, 8(a0)
ffffffff802024b6: 8c 61                	ld	a1, 0(a1)
ffffffff802024b8: 0c e1                	sd	a1, 0(a0)
ffffffff802024ba: 82 80                	ret

ffffffff802024bc _ZN50_$LT$T$u20$as$u20$core..convert..Into$LT$U$GT$$GT$4into17hf6e6c275ee367914E:
ffffffff802024bc: 01 11                	addi	sp, sp, -32
ffffffff802024be: 06 ec                	sd	ra, 24(sp)
ffffffff802024c0: 90 65                	ld	a2, 8(a1)
ffffffff802024c2: 32 e8                	sd	a2, 16(sp)
ffffffff802024c4: 8c 61                	ld	a1, 0(a1)
ffffffff802024c6: 2e e4                	sd	a1, 8(sp)
ffffffff802024c8: 2c 00                	addi	a1, sp, 8
ffffffff802024ca: 97 00 00 00          	auipc	ra, 0
ffffffff802024ce: e7 80 80 fe          	jalr	-24(ra)
ffffffff802024d2: 09 a0                	j	2
ffffffff802024d4: e2 60                	ld	ra, 24(sp)
ffffffff802024d6: 05 61                	addi	sp, sp, 32
ffffffff802024d8: 82 80                	ret

ffffffff802024da _ZN113_$LT$os..memory..range..Range$LT$T$GT$$u20$as$u20$core..convert..From$LT$core..ops..range..Range$LT$U$GT$$GT$$GT$4from17h75d36e7d7b9a90aaE:
ffffffff802024da: 5d 71                	addi	sp, sp, -80
ffffffff802024dc: 86 e4                	sd	ra, 72(sp)
ffffffff802024de: 90 61                	ld	a2, 0(a1)
ffffffff802024e0: 32 f0                	sd	a2, 32(sp)
ffffffff802024e2: 2a e8                	sd	a0, 16(sp)
ffffffff802024e4: 32 85                	add	a0, zero, a2
ffffffff802024e6: 2e e4                	sd	a1, 8(sp)
ffffffff802024e8: 97 e0 ff ff          	auipc	ra, 1048574
ffffffff802024ec: e7 80 40 7b          	jalr	1972(ra)
ffffffff802024f0: 2a fc                	sd	a0, 56(sp)
ffffffff802024f2: 2a ec                	sd	a0, 24(sp)
ffffffff802024f4: 09 a0                	j	2
ffffffff802024f6: 22 65                	ld	a0, 8(sp)
ffffffff802024f8: 0c 65                	ld	a1, 8(a0)
ffffffff802024fa: 2e f8                	sd	a1, 48(sp)
ffffffff802024fc: 2e 85                	add	a0, zero, a1
ffffffff802024fe: 97 e0 ff ff          	auipc	ra, 1048574
ffffffff80202502: e7 80 e0 79          	jalr	1950(ra)
ffffffff80202506: aa e0                	sd	a0, 64(sp)
ffffffff80202508: 2a f4                	sd	a0, 40(sp)
ffffffff8020250a: 09 a0                	j	2
ffffffff8020250c: 62 65                	ld	a0, 24(sp)
ffffffff8020250e: c2 65                	ld	a1, 16(sp)
ffffffff80202510: 88 e1                	sd	a0, 0(a1)
ffffffff80202512: 22 75                	ld	a0, 40(sp)
ffffffff80202514: 88 e5                	sd	a0, 8(a1)
ffffffff80202516: a6 60                	ld	ra, 72(sp)
ffffffff80202518: 61 61                	addi	sp, sp, 80
ffffffff8020251a: 82 80                	ret

ffffffff8020251c _ZN2os6memory5range14Range$LT$T$GT$3len17h85fff76e2f281690E:
ffffffff8020251c: 39 71                	addi	sp, sp, -64
ffffffff8020251e: 06 fc                	sd	ra, 56(sp)
ffffffff80202520: 2a f8                	sd	a0, 48(sp)
ffffffff80202522: 0c 65                	ld	a1, 8(a0)
ffffffff80202524: 2e f0                	sd	a1, 32(sp)
ffffffff80202526: 2a ec                	sd	a0, 24(sp)
ffffffff80202528: 2e 85                	add	a0, zero, a1
ffffffff8020252a: 97 e0 ff ff          	auipc	ra, 1048574
ffffffff8020252e: e7 80 40 75          	jalr	1876(ra)
ffffffff80202532: 2a e8                	sd	a0, 16(sp)
ffffffff80202534: 09 a0                	j	2
ffffffff80202536: 62 65                	ld	a0, 24(sp)
ffffffff80202538: 0c 61                	ld	a1, 0(a0)
ffffffff8020253a: 2e f4                	sd	a1, 40(sp)
ffffffff8020253c: 2e 85                	add	a0, zero, a1
ffffffff8020253e: 97 e0 ff ff          	auipc	ra, 1048574
ffffffff80202542: e7 80 00 74          	jalr	1856(ra)
ffffffff80202546: 2a e4                	sd	a0, 8(sp)
ffffffff80202548: 09 a0                	j	2
ffffffff8020254a: 42 65                	ld	a0, 16(sp)
ffffffff8020254c: a2 65                	ld	a1, 8(sp)
ffffffff8020254e: 33 06 b5 40          	sub	a2, a0, a1
ffffffff80202552: 32 e0                	sd	a2, 0(sp)
ffffffff80202554: 63 67 c5 00          	bltu	a0, a2, 14
ffffffff80202558: 09 a0                	j	2
ffffffff8020255a: 02 65                	ld	a0, 0(sp)
ffffffff8020255c: e2 70                	ld	ra, 56(sp)
ffffffff8020255e: 21 61                	addi	sp, sp, 64
ffffffff80202560: 82 80                	ret

ffffffff80202562 .LBB3_5:
ffffffff80202562: 17 95 00 00          	auipc	a0, 9
ffffffff80202566: 13 05 e5 55          	addi	a0, a0, 1374

ffffffff8020256a .LBB3_6:
ffffffff8020256a: 17 96 00 00          	auipc	a2, 9
ffffffff8020256e: 13 06 e6 53          	addi	a2, a2, 1342
ffffffff80202572: 93 05 10 02          	addi	a1, zero, 33
ffffffff80202576: 97 60 00 00          	auipc	ra, 6
ffffffff8020257a: e7 80 20 2f          	jalr	754(ra)
ffffffff8020257e: 00 00                	unimp	

ffffffff80202580 _ZN4core3str15next_code_point17hb8171db15c464694E:
ffffffff80202580: 31 71                	addi	sp, sp, -192
ffffffff80202582: 06 fd                	sd	ra, 184(sp)
ffffffff80202584: 2a e5                	sd	a0, 136(sp)
ffffffff80202586: aa f4                	sd	a0, 104(sp)
ffffffff80202588: 97 f0 ff ff          	auipc	ra, 1048575
ffffffff8020258c: e7 80 20 df          	jalr	-526(ra)
ffffffff80202590: aa f0                	sd	a0, 96(sp)
ffffffff80202592: 09 a0                	j	2
ffffffff80202594: 06 75                	ld	a0, 96(sp)
ffffffff80202596: 97 f0 ff ff          	auipc	ra, 1048575
ffffffff8020259a: e7 80 80 8c          	jalr	-1848(ra)
ffffffff8020259e: aa fc                	sd	a0, 120(sp)
ffffffff802025a0: 09 a0                	j	2
ffffffff802025a2: 66 75                	ld	a0, 120(sp)
ffffffff802025a4: 93 35 15 00          	seqz	a1, a0
ffffffff802025a8: 01 46                	mv	a2, zero
ffffffff802025aa: 63 14 c5 00          	bne	a0, a2, 8
ffffffff802025ae: 09 a0                	j	2
ffffffff802025b0: 39 a8                	j	30
ffffffff802025b2: 66 75                	ld	a0, 120(sp)
ffffffff802025b4: 2a ed                	sd	a0, 152(sp)
ffffffff802025b6: 03 05 05 00          	lb	a0, 0(a0)
ffffffff802025ba: 93 75 f5 0f          	andi	a1, a0, 255
ffffffff802025be: a3 03 a1 0a          	sb	a0, 167(sp)
ffffffff802025c2: 7d 56                	addi	a2, zero, -1
ffffffff802025c4: ae ec                	sd	a1, 88(sp)
ffffffff802025c6: 63 41 a6 04          	blt	a2, a0, 66
ffffffff802025ca: 2d a0                	j	42
ffffffff802025cc: 00 00                	unimp	
ffffffff802025ce: 97 30 00 00          	auipc	ra, 3
ffffffff802025d2: e7 80 e0 4c          	jalr	1230(ra)
ffffffff802025d6: 31 a0                	j	12
ffffffff802025d8: 46 55                	lw	a0, 112(sp)
ffffffff802025da: d6 55                	lw	a1, 116(sp)
ffffffff802025dc: ea 70                	ld	ra, 184(sp)
ffffffff802025de: 29 61                	addi	sp, sp, 192
ffffffff802025e0: 82 80                	ret
ffffffff802025e2: 97 f0 ff ff          	auipc	ra, 1048575
ffffffff802025e6: e7 80 00 87          	jalr	-1936(ra)
ffffffff802025ea: aa d8                	sw	a0, 112(sp)
ffffffff802025ec: ae da                	sw	a1, 116(sp)
ffffffff802025ee: 09 a0                	j	2
ffffffff802025f0: 09 a0                	j	2
ffffffff802025f2: dd b7                	j	-26
ffffffff802025f4: 89 45                	addi	a1, zero, 2
ffffffff802025f6: 66 65                	ld	a0, 88(sp)
ffffffff802025f8: 97 00 00 00          	auipc	ra, 0
ffffffff802025fc: e7 80 c0 be          	jalr	-1044(ra)
ffffffff80202600: aa 85                	add	a1, zero, a0
ffffffff80202602: 2a d5                	sw	a0, 168(sp)
ffffffff80202604: ae e8                	sd	a1, 80(sp)
ffffffff80202606: 31 a0                	j	12
ffffffff80202608: 66 65                	ld	a0, 88(sp)
ffffffff8020260a: aa da                	sw	a0, 116(sp)
ffffffff8020260c: 85 45                	addi	a1, zero, 1
ffffffff8020260e: ae d8                	sw	a1, 112(sp)
ffffffff80202610: cd b7                	j	-30
ffffffff80202612: 26 75                	ld	a0, 104(sp)
ffffffff80202614: 97 f0 ff ff          	auipc	ra, 1048575
ffffffff80202618: e7 80 60 d6          	jalr	-666(ra)
ffffffff8020261c: aa e4                	sd	a0, 72(sp)
ffffffff8020261e: 09 a0                	j	2
ffffffff80202620: 26 65                	ld	a0, 72(sp)
ffffffff80202622: 97 00 00 00          	auipc	ra, 0
ffffffff80202626: e7 80 e0 b8          	jalr	-1138(ra)
ffffffff8020262a: aa 85                	add	a1, zero, a0
ffffffff8020262c: 23 07 a1 0a          	sb	a0, 174(sp)
ffffffff80202630: ae e0                	sd	a1, 64(sp)
ffffffff80202632: 09 a0                	j	2
ffffffff80202634: 46 65                	ld	a0, 80(sp)
ffffffff80202636: 86 65                	ld	a1, 64(sp)
ffffffff80202638: 97 00 00 00          	auipc	ra, 0
ffffffff8020263c: e7 80 80 bc          	jalr	-1080(ra)
ffffffff80202640: 2a c3                	sw	a0, 132(sp)
ffffffff80202642: 09 a0                	j	2
ffffffff80202644: 13 05 f0 0d          	addi	a0, zero, 223
ffffffff80202648: e6 65                	ld	a1, 88(sp)
ffffffff8020264a: 63 64 b5 00          	bltu	a0, a1, 8
ffffffff8020264e: 09 a0                	j	2
ffffffff80202650: 4d a0                	j	162
ffffffff80202652: 26 75                	ld	a0, 104(sp)
ffffffff80202654: 97 f0 ff ff          	auipc	ra, 1048575
ffffffff80202658: e7 80 60 d2          	jalr	-730(ra)
ffffffff8020265c: 2a fc                	sd	a0, 56(sp)
ffffffff8020265e: 09 a0                	j	2
ffffffff80202660: 62 75                	ld	a0, 56(sp)
ffffffff80202662: 97 00 00 00          	auipc	ra, 0
ffffffff80202666: e7 80 e0 b4          	jalr	-1202(ra)
ffffffff8020266a: aa 85                	add	a1, zero, a0
ffffffff8020266c: a3 07 a1 0a          	sb	a0, 175(sp)
ffffffff80202670: 2e f8                	sd	a1, 48(sp)
ffffffff80202672: 09 a0                	j	2
ffffffff80202674: 06 65                	ld	a0, 64(sp)
ffffffff80202676: 13 75 f5 03          	andi	a0, a0, 63
ffffffff8020267a: c2 75                	ld	a1, 48(sp)
ffffffff8020267c: 97 00 00 00          	auipc	ra, 0
ffffffff80202680: e7 80 40 b8          	jalr	-1148(ra)
ffffffff80202684: aa 85                	add	a1, zero, a0
ffffffff80202686: 2a d9                	sw	a0, 176(sp)
ffffffff80202688: 2e f4                	sd	a1, 40(sp)
ffffffff8020268a: 09 a0                	j	2
ffffffff8020268c: 46 65                	ld	a0, 80(sp)
ffffffff8020268e: 93 15 c5 00          	slli	a1, a0, 12
ffffffff80202692: 22 76                	ld	a2, 40(sp)
ffffffff80202694: d1 8d                	or	a1, a1, a2
ffffffff80202696: 2e c3                	sw	a1, 132(sp)
ffffffff80202698: 93 05 f0 0e          	addi	a1, zero, 239
ffffffff8020269c: e6 66                	ld	a3, 88(sp)
ffffffff8020269e: 63 e4 d5 00          	bltu	a1, a3, 8
ffffffff802026a2: 09 a0                	j	2
ffffffff802026a4: b1 a0                	j	76
ffffffff802026a6: 26 75                	ld	a0, 104(sp)
ffffffff802026a8: 97 f0 ff ff          	auipc	ra, 1048575
ffffffff802026ac: e7 80 20 cd          	jalr	-814(ra)
ffffffff802026b0: 2a f0                	sd	a0, 32(sp)
ffffffff802026b2: 09 a0                	j	2
ffffffff802026b4: 02 75                	ld	a0, 32(sp)
ffffffff802026b6: 97 00 00 00          	auipc	ra, 0
ffffffff802026ba: e7 80 a0 af          	jalr	-1286(ra)
ffffffff802026be: aa 85                	add	a1, zero, a0
ffffffff802026c0: a3 0b a1 0a          	sb	a0, 183(sp)
ffffffff802026c4: 2e ec                	sd	a1, 24(sp)
ffffffff802026c6: 09 a0                	j	2
ffffffff802026c8: 46 65                	ld	a0, 80(sp)
ffffffff802026ca: 93 75 75 00          	andi	a1, a0, 7
ffffffff802026ce: ca 05                	slli	a1, a1, 18
ffffffff802026d0: 22 75                	ld	a0, 40(sp)
ffffffff802026d2: 62 66                	ld	a2, 24(sp)
ffffffff802026d4: 2e e8                	sd	a1, 16(sp)
ffffffff802026d6: b2 85                	add	a1, zero, a2
ffffffff802026d8: 97 00 00 00          	auipc	ra, 0
ffffffff802026dc: e7 80 80 b2          	jalr	-1240(ra)
ffffffff802026e0: 2a e4                	sd	a0, 8(sp)
ffffffff802026e2: 09 a0                	j	2
ffffffff802026e4: 42 65                	ld	a0, 16(sp)
ffffffff802026e6: a2 65                	ld	a1, 8(sp)
ffffffff802026e8: 33 66 b5 00          	or	a2, a0, a1
ffffffff802026ec: 32 c3                	sw	a2, 132(sp)
ffffffff802026ee: 09 a0                	j	2
ffffffff802026f0: 09 a0                	j	2
ffffffff802026f2: 1a 45                	lw	a0, 132(sp)
ffffffff802026f4: aa da                	sw	a0, 116(sp)
ffffffff802026f6: 05 45                	addi	a0, zero, 1
ffffffff802026f8: aa d8                	sw	a0, 112(sp)
ffffffff802026fa: f9 bd                	j	-290

ffffffff802026fc _ZN63_$LT$I$u20$as$u20$core..iter..traits..collect..IntoIterator$GT$9into_iter17hc9579f443693c04cE:
ffffffff802026fc: 41 11                	addi	sp, sp, -16
ffffffff802026fe: 2a e0                	sd	a0, 0(sp)
ffffffff80202700: 2e e4                	sd	a1, 8(sp)
ffffffff80202702: 41 01                	addi	sp, sp, 16
ffffffff80202704: 82 80                	ret

ffffffff80202706 _ZN75_$LT$core..str..Chars$u20$as$u20$core..iter..traits..iterator..Iterator$GT$4next28_$u7b$$u7b$closure$u7d$$u7d$17ha223d1e9f1287221E:
ffffffff80202706: 01 11                	addi	sp, sp, -32
ffffffff80202708: 06 ec                	sd	ra, 24(sp)
ffffffff8020270a: aa 85                	add	a1, zero, a0
ffffffff8020270c: 2a ca                	sw	a0, 20(sp)
ffffffff8020270e: 2e e4                	sd	a1, 8(sp)
ffffffff80202710: 97 00 00 00          	auipc	ra, 0
ffffffff80202714: e7 80 80 be          	jalr	-1048(ra)
ffffffff80202718: 02 15                	slli	a0, a0, 32
ffffffff8020271a: 01 91                	srli	a0, a0, 32
ffffffff8020271c: 2a e0                	sd	a0, 0(sp)
ffffffff8020271e: 09 a0                	j	2
ffffffff80202720: 02 65                	ld	a0, 0(sp)
ffffffff80202722: e2 60                	ld	ra, 24(sp)
ffffffff80202724: 05 61                	addi	sp, sp, 32
ffffffff80202726: 82 80                	ret

ffffffff80202728 _ZN82_$LT$os..memory..config..KERNEL_END_ADDRESS$u20$as$u20$core..ops..deref..Deref$GT$5deref17h6abe283369f0426dE:
ffffffff80202728: 01 11                	addi	sp, sp, -32
ffffffff8020272a: 06 ec                	sd	ra, 24(sp)
ffffffff8020272c: 2a e4                	sd	a0, 8(sp)

ffffffff8020272e .LBB0_2:
ffffffff8020272e: 17 e5 80 00          	auipc	a0, 2062
ffffffff80202732: 13 05 25 a3          	addi	a0, a0, -1486
ffffffff80202736: 2a e8                	sd	a0, 16(sp)
ffffffff80202738: 97 00 00 00          	auipc	ra, 0
ffffffff8020273c: e7 80 20 34          	jalr	834(ra)
ffffffff80202740: 2a e0                	sd	a0, 0(sp)
ffffffff80202742: 09 a0                	j	2
ffffffff80202744: 02 65                	ld	a0, 0(sp)
ffffffff80202746: e2 60                	ld	ra, 24(sp)
ffffffff80202748: 05 61                	addi	sp, sp, 32
ffffffff8020274a: 82 80                	ret

ffffffff8020274c _ZN4core4char7methods15encode_utf8_raw17h105dd0d7c535112bE:
ffffffff8020274c: 45 71                	addi	sp, sp, -464
ffffffff8020274e: 86 e7                	sd	ra, 456(sp)
ffffffff80202750: aa 86                	add	a3, zero, a0
ffffffff80202752: 2a d3                	sw	a0, 164(sp)
ffffffff80202754: ae ea                	sd	a1, 336(sp)
ffffffff80202756: b2 ee                	sd	a2, 344(sp)
ffffffff80202758: 32 ed                	sd	a2, 152(sp)
ffffffff8020275a: 2e e9                	sd	a1, 144(sp)
ffffffff8020275c: 36 e5                	sd	a3, 136(sp)
ffffffff8020275e: 97 00 00 00          	auipc	ra, 0
ffffffff80202762: e7 80 c0 27          	jalr	636(ra)
ffffffff80202766: 2a f5                	sd	a0, 168(sp)
ffffffff80202768: 09 a0                	j	2
ffffffff8020276a: 2a 75                	ld	a0, 168(sp)

ffffffff8020276c .LBB0_22:
ffffffff8020276c: 17 96 00 00          	auipc	a2, 9
ffffffff80202770: 13 06 46 3f          	addi	a2, a2, 1012
ffffffff80202774: ca 65                	ld	a1, 144(sp)
ffffffff80202776: 2a e1                	sd	a0, 128(sp)
ffffffff80202778: 2e 85                	add	a0, zero, a1
ffffffff8020277a: ea 65                	ld	a1, 152(sp)
ffffffff8020277c: 97 f0 ff ff          	auipc	ra, 1048575
ffffffff80202780: e7 80 c0 b9          	jalr	-1124(ra)
ffffffff80202784: aa fc                	sd	a0, 120(sp)
ffffffff80202786: ae f8                	sd	a1, 112(sp)
ffffffff80202788: 09 a0                	j	2
ffffffff8020278a: 0a 65                	ld	a0, 128(sp)
ffffffff8020278c: 2a f9                	sd	a0, 176(sp)
ffffffff8020278e: e6 75                	ld	a1, 120(sp)
ffffffff80202790: 2e fd                	sd	a1, 184(sp)
ffffffff80202792: 46 76                	ld	a2, 112(sp)
ffffffff80202794: b2 e1                	sd	a2, 192(sp)
ffffffff80202796: 85 46                	addi	a3, zero, 1
ffffffff80202798: 0a 67                	ld	a4, 128(sp)
ffffffff8020279a: aa f4                	sd	a0, 104(sp)
ffffffff8020279c: 63 02 d7 02          	beq	a4, a3, 36
ffffffff802027a0: 09 a0                	j	2
ffffffff802027a2: 09 45                	addi	a0, zero, 2
ffffffff802027a4: a6 75                	ld	a1, 104(sp)
ffffffff802027a6: 63 81 a5 04          	beq	a1, a0, 66
ffffffff802027aa: 09 a0                	j	2
ffffffff802027ac: 0d 45                	addi	a0, zero, 3
ffffffff802027ae: a6 75                	ld	a1, 104(sp)
ffffffff802027b0: 63 81 a5 04          	beq	a1, a0, 66
ffffffff802027b4: 09 a0                	j	2
ffffffff802027b6: 11 45                	addi	a0, zero, 4
ffffffff802027b8: a6 75                	ld	a1, 104(sp)
ffffffff802027ba: 63 81 a5 04          	beq	a1, a0, 66
ffffffff802027be: 31 a0                	j	12
ffffffff802027c0: 0e 65                	ld	a0, 192(sp)
ffffffff802027c2: 81 45                	mv	a1, zero
ffffffff802027c4: 63 11 b5 04          	bne	a0, a1, 66
ffffffff802027c8: 09 a0                	j	2

ffffffff802027ca .LBB0_23:
ffffffff802027ca: 17 95 00 00          	auipc	a0, 9
ffffffff802027ce: 13 05 65 43          	addi	a0, a0, 1078
ffffffff802027d2: 0c 61                	ld	a1, 0(a0)
ffffffff802027d4: 4a 65                	ld	a0, 144(sp)
ffffffff802027d6: 6a 66                	ld	a2, 152(sp)
ffffffff802027d8: ae f0                	sd	a1, 96(sp)
ffffffff802027da: b2 85                	add	a1, zero, a2
ffffffff802027dc: 97 f0 ff ff          	auipc	ra, 1048575
ffffffff802027e0: e7 80 c0 a5          	jalr	-1444(ra)
ffffffff802027e4: aa e2                	sd	a0, 320(sp)
ffffffff802027e6: fd a0                	j	238
ffffffff802027e8: 0e 65                	ld	a0, 192(sp)
ffffffff802027ea: 85 45                	addi	a1, zero, 1
ffffffff802027ec: 63 e4 a5 02          	bltu	a1, a0, 40
ffffffff802027f0: e9 bf                	j	-38
ffffffff802027f2: 0e 65                	ld	a0, 192(sp)
ffffffff802027f4: 89 45                	addi	a1, zero, 2
ffffffff802027f6: 63 e4 a5 04          	bltu	a1, a0, 72
ffffffff802027fa: c1 bf                	j	-48
ffffffff802027fc: 0e 65                	ld	a0, 192(sp)
ffffffff802027fe: 8d 45                	addi	a1, zero, 3
ffffffff80202800: 63 ef a5 06          	bltu	a1, a0, 126
ffffffff80202804: d9 b7                	j	-58
ffffffff80202806: 6a 75                	ld	a0, 184(sp)
ffffffff80202808: 2a f7                	sd	a0, 424(sp)
ffffffff8020280a: 83 05 41 0a          	lb	a1, 164(sp)
ffffffff8020280e: 23 00 b5 00          	sb	a1, 0(a0)
ffffffff80202812: 8d a2                	j	354
ffffffff80202814: 6a 75                	ld	a0, 184(sp)
ffffffff80202816: 2a ef                	sd	a0, 408(sp)
ffffffff80202818: 93 05 15 00          	addi	a1, a0, 1
ffffffff8020281c: 2e f3                	sd	a1, 416(sp)
ffffffff8020281e: 9a 55                	lw	a1, 164(sp)
ffffffff80202820: 99 81                	srli	a1, a1, 6
ffffffff80202822: fd 89                	andi	a1, a1, 31
ffffffff80202824: 93 e5 05 0c          	ori	a1, a1, 192
ffffffff80202828: 23 00 b5 00          	sb	a1, 0(a0)
ffffffff8020282c: 83 45 41 0a          	lbu	a1, 164(sp)
ffffffff80202830: 93 f5 f5 03          	andi	a1, a1, 63
ffffffff80202834: 93 e5 05 08          	ori	a1, a1, 128
ffffffff80202838: a3 00 b5 00          	sb	a1, 1(a0)
ffffffff8020283c: 25 aa                	j	312
ffffffff8020283e: 6a 75                	ld	a0, 184(sp)
ffffffff80202840: 2a e3                	sd	a0, 384(sp)
ffffffff80202842: 93 05 15 00          	addi	a1, a0, 1
ffffffff80202846: 2e e7                	sd	a1, 392(sp)
ffffffff80202848: 93 05 25 00          	addi	a1, a0, 2
ffffffff8020284c: 2e eb                	sd	a1, 400(sp)
ffffffff8020284e: 9a 55                	lw	a1, 164(sp)
ffffffff80202850: b1 81                	srli	a1, a1, 12
ffffffff80202852: bd 89                	andi	a1, a1, 15
ffffffff80202854: 93 e5 05 0e          	ori	a1, a1, 224
ffffffff80202858: 23 00 b5 00          	sb	a1, 0(a0)
ffffffff8020285c: 9a 55                	lw	a1, 164(sp)
ffffffff8020285e: 99 81                	srli	a1, a1, 6
ffffffff80202860: 93 f5 f5 03          	andi	a1, a1, 63
ffffffff80202864: 93 e5 05 08          	ori	a1, a1, 128
ffffffff80202868: a3 00 b5 00          	sb	a1, 1(a0)
ffffffff8020286c: 83 45 41 0a          	lbu	a1, 164(sp)
ffffffff80202870: 93 f5 f5 03          	andi	a1, a1, 63
ffffffff80202874: 93 e5 05 08          	ori	a1, a1, 128
ffffffff80202878: 23 01 b5 00          	sb	a1, 2(a0)
ffffffff8020287c: e5 a8                	j	248
ffffffff8020287e: 6a 75                	ld	a0, 184(sp)
ffffffff80202880: aa f2                	sd	a0, 352(sp)
ffffffff80202882: 93 05 15 00          	addi	a1, a0, 1
ffffffff80202886: ae f6                	sd	a1, 360(sp)
ffffffff80202888: 93 05 25 00          	addi	a1, a0, 2
ffffffff8020288c: ae fa                	sd	a1, 368(sp)
ffffffff8020288e: 93 05 35 00          	addi	a1, a0, 3
ffffffff80202892: ae fe                	sd	a1, 376(sp)
ffffffff80202894: 9a 55                	lw	a1, 164(sp)
ffffffff80202896: c9 81                	srli	a1, a1, 18
ffffffff80202898: 9d 89                	andi	a1, a1, 7
ffffffff8020289a: 93 e5 05 0f          	ori	a1, a1, 240
ffffffff8020289e: 23 00 b5 00          	sb	a1, 0(a0)
ffffffff802028a2: 9a 55                	lw	a1, 164(sp)
ffffffff802028a4: b1 81                	srli	a1, a1, 12
ffffffff802028a6: 93 f5 f5 03          	andi	a1, a1, 63
ffffffff802028aa: 93 e5 05 08          	ori	a1, a1, 128
ffffffff802028ae: a3 00 b5 00          	sb	a1, 1(a0)
ffffffff802028b2: 9a 55                	lw	a1, 164(sp)
ffffffff802028b4: 99 81                	srli	a1, a1, 6
ffffffff802028b6: 93 f5 f5 03          	andi	a1, a1, 63
ffffffff802028ba: 93 e5 05 08          	ori	a1, a1, 128
ffffffff802028be: 23 01 b5 00          	sb	a1, 2(a0)
ffffffff802028c2: 83 45 41 0a          	lbu	a1, 164(sp)
ffffffff802028c6: 93 f5 f5 03          	andi	a1, a1, 63
ffffffff802028ca: 93 e5 05 08          	ori	a1, a1, 128
ffffffff802028ce: a3 01 b5 00          	sb	a1, 3(a0)
ffffffff802028d2: 4d a0                	j	162
ffffffff802028d4: 28 11                	addi	a0, sp, 168
ffffffff802028d6: 2a f6                	sd	a0, 296(sp)
ffffffff802028d8: 4c 11                	addi	a1, sp, 164
ffffffff802028da: 2e fa                	sd	a1, 304(sp)
ffffffff802028dc: 90 02                	addi	a2, sp, 320
ffffffff802028de: 32 fe                	sd	a2, 312(sp)
ffffffff802028e0: 2a fb                	sd	a0, 432(sp)
ffffffff802028e2: 2e ff                	sd	a1, 440(sp)
ffffffff802028e4: b2 e3                	sd	a2, 448(sp)

ffffffff802028e6 .LBB0_24:
ffffffff802028e6: 97 86 00 00          	auipc	a3, 8
ffffffff802028ea: 93 86 26 c9          	addi	a3, a3, -878
ffffffff802028ee: ae ec                	sd	a1, 88(sp)
ffffffff802028f0: b6 85                	add	a1, zero, a3
ffffffff802028f2: b2 e8                	sd	a2, 80(sp)
ffffffff802028f4: 97 00 00 00          	auipc	ra, 0
ffffffff802028f8: e7 80 a0 89          	jalr	-1894(ra)
ffffffff802028fc: aa e4                	sd	a0, 72(sp)
ffffffff802028fe: ae e0                	sd	a1, 64(sp)
ffffffff80202900: 09 a0                	j	2

ffffffff80202902 .LBB0_25:
ffffffff80202902: 97 85 00 00          	auipc	a1, 8
ffffffff80202906: 93 85 45 92          	addi	a1, a1, -1756
ffffffff8020290a: 66 65                	ld	a0, 88(sp)
ffffffff8020290c: 97 00 00 00          	auipc	ra, 0
ffffffff80202910: e7 80 c0 81          	jalr	-2020(ra)
ffffffff80202914: 2a fc                	sd	a0, 56(sp)
ffffffff80202916: 2e f8                	sd	a1, 48(sp)
ffffffff80202918: 09 a0                	j	2

ffffffff8020291a .LBB0_26:
ffffffff8020291a: 97 85 00 00          	auipc	a1, 8
ffffffff8020291e: 93 85 e5 c5          	addi	a1, a1, -930
ffffffff80202922: 46 65                	ld	a0, 80(sp)
ffffffff80202924: 97 00 00 00          	auipc	ra, 0
ffffffff80202928: e7 80 a0 86          	jalr	-1942(ra)
ffffffff8020292c: 2a f4                	sd	a0, 40(sp)
ffffffff8020292e: 2e f0                	sd	a1, 32(sp)
ffffffff80202930: 09 a0                	j	2
ffffffff80202932: 26 65                	ld	a0, 72(sp)
ffffffff80202934: aa fd                	sd	a0, 248(sp)
ffffffff80202936: 86 65                	ld	a1, 64(sp)
ffffffff80202938: 2e e2                	sd	a1, 256(sp)
ffffffff8020293a: 62 76                	ld	a2, 56(sp)
ffffffff8020293c: 32 e6                	sd	a2, 264(sp)
ffffffff8020293e: c2 76                	ld	a3, 48(sp)
ffffffff80202940: 36 ea                	sd	a3, 272(sp)
ffffffff80202942: 22 77                	ld	a4, 40(sp)
ffffffff80202944: 3a ee                	sd	a4, 280(sp)
ffffffff80202946: 82 77                	ld	a5, 32(sp)
ffffffff80202948: 3e f2                	sd	a5, 288(sp)
ffffffff8020294a: a8 01                	addi	a0, sp, 200
ffffffff8020294c: b4 19                	addi	a3, sp, 248
ffffffff8020294e: 0d 48                	addi	a6, zero, 3
ffffffff80202950: 86 75                	ld	a1, 96(sp)
ffffffff80202952: 42 86                	add	a2, zero, a6
ffffffff80202954: 42 87                	add	a4, zero, a6
ffffffff80202956: 97 d0 ff ff          	auipc	ra, 1048573
ffffffff8020295a: e7 80 40 7b          	jalr	1972(ra)
ffffffff8020295e: 09 a0                	j	2

ffffffff80202960 .LBB0_27:
ffffffff80202960: 97 95 00 00          	auipc	a1, 9
ffffffff80202964: 93 85 05 32          	addi	a1, a1, 800
ffffffff80202968: a8 01                	addi	a0, sp, 200
ffffffff8020296a: 97 60 00 00          	auipc	ra, 6
ffffffff8020296e: e7 80 a0 f6          	jalr	-150(ra)
ffffffff80202972: 00 00                	unimp	
ffffffff80202974: 2a 75                	ld	a0, 168(sp)
ffffffff80202976: aa e6                	sd	a0, 328(sp)

ffffffff80202978 .LBB0_28:
ffffffff80202978: 97 96 00 00          	auipc	a3, 9
ffffffff8020297c: 93 86 06 20          	addi	a3, a3, 512
ffffffff80202980: ca 65                	ld	a1, 144(sp)
ffffffff80202982: 2a ec                	sd	a0, 24(sp)
ffffffff80202984: 2e 85                	add	a0, zero, a1
ffffffff80202986: ea 65                	ld	a1, 152(sp)
ffffffff80202988: 62 66                	ld	a2, 24(sp)
ffffffff8020298a: 97 f0 ff ff          	auipc	ra, 1048575
ffffffff8020298e: e7 80 e0 9a          	jalr	-1618(ra)
ffffffff80202992: 2a e8                	sd	a0, 16(sp)
ffffffff80202994: 2e e4                	sd	a1, 8(sp)
ffffffff80202996: 09 a0                	j	2
ffffffff80202998: 42 65                	ld	a0, 16(sp)
ffffffff8020299a: a2 65                	ld	a1, 8(sp)
ffffffff8020299c: be 60                	ld	ra, 456(sp)
ffffffff8020299e: 79 61                	addi	sp, sp, 464
ffffffff802029a0: 82 80                	ret

ffffffff802029a2 _ZN4core4char7methods22_$LT$impl$u20$char$GT$11encode_utf817hb5d0c02a93104739E:
ffffffff802029a2: 5d 71                	addi	sp, sp, -80
ffffffff802029a4: 86 e4                	sd	ra, 72(sp)
ffffffff802029a6: aa 86                	add	a3, zero, a0
ffffffff802029a8: 2a da                	sw	a0, 52(sp)
ffffffff802029aa: 2e fc                	sd	a1, 56(sp)
ffffffff802029ac: b2 e0                	sd	a2, 64(sp)
ffffffff802029ae: 36 f4                	sd	a3, 40(sp)
ffffffff802029b0: 97 00 00 00          	auipc	ra, 0
ffffffff802029b4: e7 80 c0 d9          	jalr	-612(ra)
ffffffff802029b8: 2a f0                	sd	a0, 32(sp)
ffffffff802029ba: 2e ec                	sd	a1, 24(sp)
ffffffff802029bc: 09 a0                	j	2
ffffffff802029be: 02 75                	ld	a0, 32(sp)
ffffffff802029c0: e2 65                	ld	a1, 24(sp)
ffffffff802029c2: 97 00 00 00          	auipc	ra, 0
ffffffff802029c6: e7 80 c0 88          	jalr	-1908(ra)
ffffffff802029ca: 2a e8                	sd	a0, 16(sp)
ffffffff802029cc: 2e e4                	sd	a1, 8(sp)
ffffffff802029ce: 09 a0                	j	2
ffffffff802029d0: 42 65                	ld	a0, 16(sp)
ffffffff802029d2: a2 65                	ld	a1, 8(sp)
ffffffff802029d4: a6 60                	ld	ra, 72(sp)
ffffffff802029d6: 61 61                	addi	sp, sp, 80
ffffffff802029d8: 82 80                	ret

ffffffff802029da _ZN4core4char7methods8len_utf817h72bcdfd2d8271e0aE:
ffffffff802029da: 01 11                	addi	sp, sp, -32
ffffffff802029dc: 9b 05 05 00          	sext.w	a1, a0
ffffffff802029e0: 2a 86                	add	a2, zero, a0
ffffffff802029e2: 2a ce                	sw	a0, 28(sp)
ffffffff802029e4: 13 05 00 08          	addi	a0, zero, 128
ffffffff802029e8: 32 e4                	sd	a2, 8(sp)
ffffffff802029ea: 63 ea a5 00          	bltu	a1, a0, 20
ffffffff802029ee: 09 a0                	j	2
ffffffff802029f0: 22 65                	ld	a0, 8(sp)
ffffffff802029f2: 9b 55 b5 00          	srliw	a1, a0, 11
ffffffff802029f6: 01 46                	mv	a2, zero
ffffffff802029f8: 63 8d c5 00          	beq	a1, a2, 26
ffffffff802029fc: 21 a0                	j	8
ffffffff802029fe: 05 45                	addi	a0, zero, 1
ffffffff80202a00: 2a e8                	sd	a0, 16(sp)
ffffffff80202a02: 1d a0                	j	38
ffffffff80202a04: 22 65                	ld	a0, 8(sp)
ffffffff80202a06: 9b 55 05 01          	srliw	a1, a0, 16
ffffffff80202a0a: 01 46                	mv	a2, zero
ffffffff80202a0c: 63 89 c5 00          	beq	a1, a2, 18
ffffffff80202a10: 21 a0                	j	8
ffffffff80202a12: 09 45                	addi	a0, zero, 2
ffffffff80202a14: 2a e8                	sd	a0, 16(sp)
ffffffff80202a16: 01 a8                	j	16
ffffffff80202a18: 11 45                	addi	a0, zero, 4
ffffffff80202a1a: 2a e8                	sd	a0, 16(sp)
ffffffff80202a1c: 21 a0                	j	8
ffffffff80202a1e: 0d 45                	addi	a0, zero, 3
ffffffff80202a20: 2a e8                	sd	a0, 16(sp)
ffffffff80202a22: 09 a0                	j	2
ffffffff80202a24: 09 a0                	j	2
ffffffff80202a26: 09 a0                	j	2
ffffffff80202a28: 42 65                	ld	a0, 16(sp)
ffffffff80202a2a: 05 61                	addi	sp, sp, 32
ffffffff80202a2c: 82 80                	ret

ffffffff80202a2e _ZN4core3ptr6unique15Unique$LT$T$GT$4cast17hb9601cb5e11443f1E:
ffffffff80202a2e: 01 11                	addi	sp, sp, -32
ffffffff80202a30: 06 ec                	sd	ra, 24(sp)
ffffffff80202a32: 2a e8                	sd	a0, 16(sp)
ffffffff80202a34: 97 50 00 00          	auipc	ra, 5
ffffffff80202a38: e7 80 a0 34          	jalr	842(ra)
ffffffff80202a3c: 2a e4                	sd	a0, 8(sp)
ffffffff80202a3e: 09 a0                	j	2
ffffffff80202a40: 22 65                	ld	a0, 8(sp)
ffffffff80202a42: 97 50 00 00          	auipc	ra, 5
ffffffff80202a46: e7 80 20 33          	jalr	818(ra)
ffffffff80202a4a: 2a e0                	sd	a0, 0(sp)
ffffffff80202a4c: 09 a0                	j	2
ffffffff80202a4e: 02 65                	ld	a0, 0(sp)
ffffffff80202a50: e2 60                	ld	ra, 24(sp)
ffffffff80202a52: 05 61                	addi	sp, sp, 32
ffffffff80202a54: 82 80                	ret

ffffffff80202a56 _ZN5riscv8register4time4read17h98f4f3073012a011E:
ffffffff80202a56: 41 11                	addi	sp, sp, -16
ffffffff80202a58: 06 e4                	sd	ra, 8(sp)
ffffffff80202a5a: 97 00 00 00          	auipc	ra, 0
ffffffff80202a5e: e7 80 40 01          	jalr	20(ra)
ffffffff80202a62: 2a e0                	sd	a0, 0(sp)
ffffffff80202a64: 09 a0                	j	2
ffffffff80202a66: 02 65                	ld	a0, 0(sp)
ffffffff80202a68: a2 60                	ld	ra, 8(sp)
ffffffff80202a6a: 41 01                	addi	sp, sp, 16
ffffffff80202a6c: 82 80                	ret

ffffffff80202a6e _ZN5riscv8register4time5_read17h537f77a1062deab8E:
ffffffff80202a6e: 41 11                	addi	sp, sp, -16
ffffffff80202a70: 73 25 10 c0          	rdtime	a0
ffffffff80202a74: 2a e4                	sd	a0, 8(sp)
ffffffff80202a76: 41 01                	addi	sp, sp, 16
ffffffff80202a78: 82 80                	ret

ffffffff80202a7a _ZN4spin4once13Once$LT$T$GT$9call_once17h9c4e91ba966ba6cdE:
ffffffff80202a7a: 71 71                	addi	sp, sp, -176
ffffffff80202a7c: 06 f5                	sd	ra, 168(sp)
ffffffff80202a7e: 2a e9                	sd	a0, 144(sp)
ffffffff80202a80: 85 45                	addi	a1, zero, 1
ffffffff80202a82: a3 07 b1 08          	sb	a1, 143(sp)
ffffffff80202a86: 91 45                	addi	a1, zero, 4
ffffffff80202a88: aa e4                	sd	a0, 72(sp)
ffffffff80202a8a: 97 10 00 00          	auipc	ra, 1
ffffffff80202a8e: e7 80 80 90          	jalr	-1784(ra)
ffffffff80202a92: aa ec                	sd	a0, 88(sp)
ffffffff80202a94: 09 a0                	j	2
ffffffff80202a96: 66 65                	ld	a0, 88(sp)
ffffffff80202a98: 81 45                	mv	a1, zero
ffffffff80202a9a: 63 04 b5 00          	beq	a0, a1, 8
ffffffff80202a9e: 09 a0                	j	2
ffffffff80202aa0: 51 a8                	j	148
ffffffff80202aa2: 01 45                	mv	a0, zero
ffffffff80202aa4: 05 46                	addi	a2, zero, 1
ffffffff80202aa6: 91 46                	addi	a3, zero, 4
ffffffff80202aa8: a6 65                	ld	a1, 72(sp)
ffffffff80202aaa: aa e0                	sd	a0, 64(sp)
ffffffff80202aac: 2e 85                	add	a0, zero, a1
ffffffff80202aae: 86 65                	ld	a1, 64(sp)
ffffffff80202ab0: 97 10 00 00          	auipc	ra, 1
ffffffff80202ab4: e7 80 00 83          	jalr	-2000(ra)
ffffffff80202ab8: 2a fc                	sd	a0, 56(sp)
ffffffff80202aba: 09 a0                	j	2
ffffffff80202abc: 62 75                	ld	a0, 56(sp)
ffffffff80202abe: aa ec                	sd	a0, 88(sp)
ffffffff80202ac0: 81 45                	mv	a1, zero
ffffffff80202ac2: 63 04 b5 00          	beq	a0, a1, 8
ffffffff80202ac6: 09 a0                	j	2
ffffffff80202ac8: b5 a0                	j	108
ffffffff80202aca: 26 65                	ld	a0, 72(sp)
ffffffff80202acc: aa f0                	sd	a0, 96(sp)
ffffffff80202ace: 85 45                	addi	a1, zero, 1
ffffffff80202ad0: 23 04 b1 06          	sb	a1, 104(sp)
ffffffff80202ad4: 81 45                	mv	a1, zero
ffffffff80202ad6: a3 07 b1 08          	sb	a1, 143(sp)
ffffffff80202ada: 97 f0 ff ff          	auipc	ra, 1048575
ffffffff80202ade: e7 80 40 09          	jalr	148(ra)
ffffffff80202ae2: 2a f1                	sd	a0, 160(sp)
ffffffff80202ae4: 2a e1                	sd	a0, 128(sp)
ffffffff80202ae6: 09 a0                	j	2
ffffffff80202ae8: 0a 65                	ld	a0, 128(sp)
ffffffff80202aea: aa fc                	sd	a0, 120(sp)
ffffffff80202aec: 05 45                	addi	a0, zero, 1
ffffffff80202aee: aa f8                	sd	a0, 112(sp)
ffffffff80202af0: 26 65                	ld	a0, 72(sp)
ffffffff80202af2: 21 05                	addi	a0, a0, 8
ffffffff80202af4: 97 10 00 00          	auipc	ra, 1
ffffffff80202af8: e7 80 00 a0          	jalr	-1536(ra)
ffffffff80202afc: 2a f8                	sd	a0, 48(sp)
ffffffff80202afe: 09 a0                	j	2
ffffffff80202b00: e1 a8                	j	216
ffffffff80202b02: 26 65                	ld	a0, 72(sp)
ffffffff80202b04: 97 00 00 00          	auipc	ra, 0
ffffffff80202b08: e7 80 00 30          	jalr	768(ra)
ffffffff80202b0c: 2a f4                	sd	a0, 40(sp)
ffffffff80202b0e: 09 a0                	j	2
ffffffff80202b10: 22 75                	ld	a0, 40(sp)
ffffffff80202b12: aa e8                	sd	a0, 80(sp)
ffffffff80202b14: 88 10                	addi	a0, sp, 96
ffffffff80202b16: 97 f0 ff ff          	auipc	ra, 1048575
ffffffff80202b1a: e7 80 e0 11          	jalr	286(ra)
ffffffff80202b1e: 09 a0                	j	2
ffffffff80202b20: 09 a0                	j	2
ffffffff80202b22: 03 45 f1 08          	lbu	a0, 143(sp)
ffffffff80202b26: 05 89                	andi	a0, a0, 1
ffffffff80202b28: 61 ed                	bnez	a0, 216
ffffffff80202b2a: 09 a0                	j	2
ffffffff80202b2c: 46 65                	ld	a0, 80(sp)
ffffffff80202b2e: aa 70                	ld	ra, 168(sp)
ffffffff80202b30: 4d 61                	addi	sp, sp, 176
ffffffff80202b32: 82 80                	ret
ffffffff80202b34: 09 a0                	j	2
ffffffff80202b36: 66 65                	ld	a0, 88(sp)
ffffffff80202b38: 81 45                	mv	a1, zero
ffffffff80202b3a: 2a f0                	sd	a0, 32(sp)
ffffffff80202b3c: 63 07 b5 02          	beq	a0, a1, 46
ffffffff80202b40: 09 a0                	j	2
ffffffff80202b42: 05 45                	addi	a0, zero, 1
ffffffff80202b44: 82 75                	ld	a1, 32(sp)
ffffffff80202b46: 63 81 a5 04          	beq	a1, a0, 66
ffffffff80202b4a: 09 a0                	j	2
ffffffff80202b4c: 09 45                	addi	a0, zero, 2
ffffffff80202b4e: 82 75                	ld	a1, 32(sp)
ffffffff80202b50: 63 8a a5 06          	beq	a1, a0, 116
ffffffff80202b54: 09 a0                	j	2
ffffffff80202b56: 0d 45                	addi	a0, zero, 3
ffffffff80202b58: 82 75                	ld	a1, 32(sp)
ffffffff80202b5a: 63 87 a5 04          	beq	a1, a0, 78
ffffffff80202b5e: 09 a0                	j	2
ffffffff80202b60: 97 d0 ff ff          	auipc	ra, 1048573
ffffffff80202b64: e7 80 20 78          	jalr	1922(ra)
ffffffff80202b68: 00 00                	unimp	

ffffffff80202b6a .LBB0_29:
ffffffff80202b6a: 17 95 00 00          	auipc	a0, 9
ffffffff80202b6e: 13 05 e5 1c          	addi	a0, a0, 462

ffffffff80202b72 .LBB0_30:
ffffffff80202b72: 17 96 00 00          	auipc	a2, 9
ffffffff80202b76: 13 06 e6 1a          	addi	a2, a2, 430
ffffffff80202b7a: 93 05 80 02          	addi	a1, zero, 40
ffffffff80202b7e: 97 60 00 00          	auipc	ra, 6
ffffffff80202b82: e7 80 a0 ce          	jalr	-790(ra)
ffffffff80202b86: 00 00                	unimp	
ffffffff80202b88: 97 10 00 00          	auipc	ra, 1
ffffffff80202b8c: e7 80 00 87          	jalr	-1936(ra)
ffffffff80202b90: 09 a0                	j	2
ffffffff80202b92: 91 45                	addi	a1, zero, 4
ffffffff80202b94: 26 65                	ld	a0, 72(sp)
ffffffff80202b96: 97 00 00 00          	auipc	ra, 0
ffffffff80202b9a: e7 80 c0 7f          	jalr	2044(ra)
ffffffff80202b9e: 2a ec                	sd	a0, 24(sp)
ffffffff80202ba0: 09 a0                	j	2
ffffffff80202ba2: 62 65                	ld	a0, 24(sp)
ffffffff80202ba4: aa ec                	sd	a0, 88(sp)
ffffffff80202ba6: 41 bf                	j	-112

ffffffff80202ba8 .LBB0_31:
ffffffff80202ba8: 17 95 00 00          	auipc	a0, 9
ffffffff80202bac: 13 05 05 0f          	addi	a0, a0, 240

ffffffff80202bb0 .LBB0_32:
ffffffff80202bb0: 17 96 00 00          	auipc	a2, 9
ffffffff80202bb4: 13 06 06 17          	addi	a2, a2, 368
ffffffff80202bb8: c5 45                	addi	a1, zero, 17
ffffffff80202bba: 97 60 00 00          	auipc	ra, 6
ffffffff80202bbe: e7 80 e0 ca          	jalr	-850(ra)
ffffffff80202bc2: 00 00                	unimp	
ffffffff80202bc4: 26 65                	ld	a0, 72(sp)
ffffffff80202bc6: 97 00 00 00          	auipc	ra, 0
ffffffff80202bca: e7 80 e0 23          	jalr	574(ra)
ffffffff80202bce: 2a e8                	sd	a0, 16(sp)
ffffffff80202bd0: 09 a0                	j	2
ffffffff80202bd2: 42 65                	ld	a0, 16(sp)
ffffffff80202bd4: aa e8                	sd	a0, 80(sp)
ffffffff80202bd6: b1 b7                	j	-180
ffffffff80202bd8: 66 75                	ld	a0, 120(sp)
ffffffff80202bda: c2 75                	ld	a1, 48(sp)
ffffffff80202bdc: 88 e5                	sd	a0, 8(a1)
ffffffff80202bde: 46 75                	ld	a0, 112(sp)
ffffffff80202be0: 88 e1                	sd	a0, 0(a1)
ffffffff80202be2: 01 45                	mv	a0, zero
ffffffff80202be4: 23 04 a1 06          	sb	a0, 104(sp)
ffffffff80202be8: 09 45                	addi	a0, zero, 2
ffffffff80202bea: aa ec                	sd	a0, 88(sp)
ffffffff80202bec: 11 46                	addi	a2, zero, 4
ffffffff80202bee: a6 66                	ld	a3, 72(sp)
ffffffff80202bf0: 2a e4                	sd	a0, 8(sp)
ffffffff80202bf2: 36 85                	add	a0, zero, a3
ffffffff80202bf4: a2 65                	ld	a1, 8(sp)
ffffffff80202bf6: 97 00 00 00          	auipc	ra, 0
ffffffff80202bfa: e7 80 e0 7c          	jalr	1998(ra)
ffffffff80202bfe: 11 b7                	j	-252
ffffffff80202c00: 01 45                	mv	a0, zero
ffffffff80202c02: a3 07 a1 08          	sb	a0, 143(sp)
ffffffff80202c06: 1d b7                	j	-218

ffffffff80202c08 _ZN4spin4once13Once$LT$T$GT$9call_once17hdfea08ad61a1152cE:
ffffffff80202c08: 15 71                	addi	sp, sp, -224
ffffffff80202c0a: 86 ed                	sd	ra, 216(sp)
ffffffff80202c0c: aa e5                	sd	a0, 200(sp)
ffffffff80202c0e: 85 45                	addi	a1, zero, 1
ffffffff80202c10: a3 03 b1 0c          	sb	a1, 199(sp)
ffffffff80202c14: 91 45                	addi	a1, zero, 4
ffffffff80202c16: aa e0                	sd	a0, 64(sp)
ffffffff80202c18: 97 00 00 00          	auipc	ra, 0
ffffffff80202c1c: e7 80 a0 77          	jalr	1914(ra)
ffffffff80202c20: aa e8                	sd	a0, 80(sp)
ffffffff80202c22: 09 a0                	j	2
ffffffff80202c24: 46 65                	ld	a0, 80(sp)
ffffffff80202c26: 81 45                	mv	a1, zero
ffffffff80202c28: 63 04 b5 00          	beq	a0, a1, 8
ffffffff80202c2c: 09 a0                	j	2
ffffffff80202c2e: 75 a0                	j	172
ffffffff80202c30: 01 45                	mv	a0, zero
ffffffff80202c32: 05 46                	addi	a2, zero, 1
ffffffff80202c34: 91 46                	addi	a3, zero, 4
ffffffff80202c36: 86 65                	ld	a1, 64(sp)
ffffffff80202c38: 2a fc                	sd	a0, 56(sp)
ffffffff80202c3a: 2e 85                	add	a0, zero, a1
ffffffff80202c3c: e2 75                	ld	a1, 56(sp)
ffffffff80202c3e: 97 00 00 00          	auipc	ra, 0
ffffffff80202c42: e7 80 20 6a          	jalr	1698(ra)
ffffffff80202c46: 2a f8                	sd	a0, 48(sp)
ffffffff80202c48: 09 a0                	j	2
ffffffff80202c4a: 42 75                	ld	a0, 48(sp)
ffffffff80202c4c: aa e8                	sd	a0, 80(sp)
ffffffff80202c4e: 81 45                	mv	a1, zero
ffffffff80202c50: 63 04 b5 00          	beq	a0, a1, 8
ffffffff80202c54: 09 a0                	j	2
ffffffff80202c56: 51 a0                	j	132
ffffffff80202c58: 06 65                	ld	a0, 64(sp)
ffffffff80202c5a: aa ec                	sd	a0, 88(sp)
ffffffff80202c5c: 85 45                	addi	a1, zero, 1
ffffffff80202c5e: 23 00 b1 06          	sb	a1, 96(sp)
ffffffff80202c62: 81 45                	mv	a1, zero
ffffffff80202c64: a3 03 b1 0c          	sb	a1, 199(sp)
ffffffff80202c68: 28 09                	addi	a0, sp, 152
ffffffff80202c6a: 97 f0 ff ff          	auipc	ra, 1048575
ffffffff80202c6e: e7 80 c0 f1          	jalr	-228(ra)
ffffffff80202c72: 09 a0                	j	2
ffffffff80202c74: 6a 75                	ld	a0, 184(sp)
ffffffff80202c76: 2a e9                	sd	a0, 144(sp)
ffffffff80202c78: 4a 75                	ld	a0, 176(sp)
ffffffff80202c7a: 2a e5                	sd	a0, 136(sp)
ffffffff80202c7c: 2a 75                	ld	a0, 168(sp)
ffffffff80202c7e: 2a e1                	sd	a0, 128(sp)
ffffffff80202c80: 0a 75                	ld	a0, 160(sp)
ffffffff80202c82: aa fc                	sd	a0, 120(sp)
ffffffff80202c84: 6a 65                	ld	a0, 152(sp)
ffffffff80202c86: aa f8                	sd	a0, 112(sp)
ffffffff80202c88: 05 45                	addi	a0, zero, 1
ffffffff80202c8a: aa f4                	sd	a0, 104(sp)
ffffffff80202c8c: 06 65                	ld	a0, 64(sp)
ffffffff80202c8e: 21 05                	addi	a0, a0, 8
ffffffff80202c90: 97 10 00 00          	auipc	ra, 1
ffffffff80202c94: e7 80 c0 86          	jalr	-1940(ra)
ffffffff80202c98: 2a f4                	sd	a0, 40(sp)
ffffffff80202c9a: 09 a0                	j	2
ffffffff80202c9c: 22 75                	ld	a0, 40(sp)
ffffffff80202c9e: 97 f0 ff ff          	auipc	ra, 1048575
ffffffff80202ca2: e7 80 a0 06          	jalr	106(ra)
ffffffff80202ca6: e1 a8                	j	216
ffffffff80202ca8: 06 65                	ld	a0, 64(sp)
ffffffff80202caa: 97 00 00 00          	auipc	ra, 0
ffffffff80202cae: e7 80 40 11          	jalr	276(ra)
ffffffff80202cb2: 2a f0                	sd	a0, 32(sp)
ffffffff80202cb4: 09 a0                	j	2
ffffffff80202cb6: 02 75                	ld	a0, 32(sp)
ffffffff80202cb8: aa e4                	sd	a0, 72(sp)
ffffffff80202cba: a8 08                	addi	a0, sp, 88
ffffffff80202cbc: 97 f0 ff ff          	auipc	ra, 1048575
ffffffff80202cc0: e7 80 80 f7          	jalr	-136(ra)
ffffffff80202cc4: 09 a0                	j	2
ffffffff80202cc6: 09 a0                	j	2
ffffffff80202cc8: 03 45 71 0c          	lbu	a0, 199(sp)
ffffffff80202ccc: 05 89                	andi	a0, a0, 1
ffffffff80202cce: 65 e5                	bnez	a0, 232
ffffffff80202cd0: 09 a0                	j	2
ffffffff80202cd2: 26 65                	ld	a0, 72(sp)
ffffffff80202cd4: ee 60                	ld	ra, 216(sp)
ffffffff80202cd6: 2d 61                	addi	sp, sp, 224
ffffffff80202cd8: 82 80                	ret
ffffffff80202cda: 09 a0                	j	2
ffffffff80202cdc: 46 65                	ld	a0, 80(sp)
ffffffff80202cde: 81 45                	mv	a1, zero
ffffffff80202ce0: 2a ec                	sd	a0, 24(sp)
ffffffff80202ce2: 63 07 b5 02          	beq	a0, a1, 46
ffffffff80202ce6: 09 a0                	j	2
ffffffff80202ce8: 05 45                	addi	a0, zero, 1
ffffffff80202cea: e2 65                	ld	a1, 24(sp)
ffffffff80202cec: 63 81 a5 04          	beq	a1, a0, 66
ffffffff80202cf0: 09 a0                	j	2
ffffffff80202cf2: 09 45                	addi	a0, zero, 2
ffffffff80202cf4: e2 65                	ld	a1, 24(sp)
ffffffff80202cf6: 63 8a a5 06          	beq	a1, a0, 116
ffffffff80202cfa: 09 a0                	j	2
ffffffff80202cfc: 0d 45                	addi	a0, zero, 3
ffffffff80202cfe: e2 65                	ld	a1, 24(sp)
ffffffff80202d00: 63 87 a5 04          	beq	a1, a0, 78
ffffffff80202d04: 09 a0                	j	2
ffffffff80202d06: 97 d0 ff ff          	auipc	ra, 1048573
ffffffff80202d0a: e7 80 c0 5d          	jalr	1500(ra)
ffffffff80202d0e: 00 00                	unimp	

ffffffff80202d10 .LBB1_29:
ffffffff80202d10: 17 95 00 00          	auipc	a0, 9
ffffffff80202d14: 13 05 85 02          	addi	a0, a0, 40

ffffffff80202d18 .LBB1_30:
ffffffff80202d18: 17 96 00 00          	auipc	a2, 9
ffffffff80202d1c: 13 06 86 00          	addi	a2, a2, 8
ffffffff80202d20: 93 05 80 02          	addi	a1, zero, 40
ffffffff80202d24: 97 60 00 00          	auipc	ra, 6
ffffffff80202d28: e7 80 40 b4          	jalr	-1212(ra)
ffffffff80202d2c: 00 00                	unimp	
ffffffff80202d2e: 97 00 00 00          	auipc	ra, 0
ffffffff80202d32: e7 80 a0 6c          	jalr	1738(ra)
ffffffff80202d36: 09 a0                	j	2
ffffffff80202d38: 91 45                	addi	a1, zero, 4
ffffffff80202d3a: 06 65                	ld	a0, 64(sp)
ffffffff80202d3c: 97 00 00 00          	auipc	ra, 0
ffffffff80202d40: e7 80 60 65          	jalr	1622(ra)
ffffffff80202d44: 2a e8                	sd	a0, 16(sp)
ffffffff80202d46: 09 a0                	j	2
ffffffff80202d48: 42 65                	ld	a0, 16(sp)
ffffffff80202d4a: aa e8                	sd	a0, 80(sp)
ffffffff80202d4c: 41 bf                	j	-112

ffffffff80202d4e .LBB1_31:
ffffffff80202d4e: 17 95 00 00          	auipc	a0, 9
ffffffff80202d52: 13 05 a5 f4          	addi	a0, a0, -182

ffffffff80202d56 .LBB1_32:
ffffffff80202d56: 17 96 00 00          	auipc	a2, 9
ffffffff80202d5a: 13 06 a6 fc          	addi	a2, a2, -54
ffffffff80202d5e: c5 45                	addi	a1, zero, 17
ffffffff80202d60: 97 60 00 00          	auipc	ra, 6
ffffffff80202d64: e7 80 80 b0          	jalr	-1272(ra)
ffffffff80202d68: 00 00                	unimp	
ffffffff80202d6a: 06 65                	ld	a0, 64(sp)
ffffffff80202d6c: 97 00 00 00          	auipc	ra, 0
ffffffff80202d70: e7 80 20 05          	jalr	82(ra)
ffffffff80202d74: 2a e4                	sd	a0, 8(sp)
ffffffff80202d76: 09 a0                	j	2
ffffffff80202d78: 22 65                	ld	a0, 8(sp)
ffffffff80202d7a: aa e4                	sd	a0, 72(sp)
ffffffff80202d7c: b1 b7                	j	-180
ffffffff80202d7e: 4a 65                	ld	a0, 144(sp)
ffffffff80202d80: a2 75                	ld	a1, 40(sp)
ffffffff80202d82: 88 f5                	sd	a0, 40(a1)
ffffffff80202d84: 2a 65                	ld	a0, 136(sp)
ffffffff80202d86: 88 f1                	sd	a0, 32(a1)
ffffffff80202d88: 0a 65                	ld	a0, 128(sp)
ffffffff80202d8a: 88 ed                	sd	a0, 24(a1)
ffffffff80202d8c: 66 75                	ld	a0, 120(sp)
ffffffff80202d8e: 88 e9                	sd	a0, 16(a1)
ffffffff80202d90: 46 75                	ld	a0, 112(sp)
ffffffff80202d92: 88 e5                	sd	a0, 8(a1)
ffffffff80202d94: 26 75                	ld	a0, 104(sp)
ffffffff80202d96: 88 e1                	sd	a0, 0(a1)
ffffffff80202d98: 01 45                	mv	a0, zero
ffffffff80202d9a: 23 00 a1 06          	sb	a0, 96(sp)
ffffffff80202d9e: 09 45                	addi	a0, zero, 2
ffffffff80202da0: aa e8                	sd	a0, 80(sp)
ffffffff80202da2: 11 46                	addi	a2, zero, 4
ffffffff80202da4: 86 66                	ld	a3, 64(sp)
ffffffff80202da6: 2a e0                	sd	a0, 0(sp)
ffffffff80202da8: 36 85                	add	a0, zero, a3
ffffffff80202daa: 82 65                	ld	a1, 0(sp)
ffffffff80202dac: 97 00 00 00          	auipc	ra, 0
ffffffff80202db0: e7 80 80 61          	jalr	1560(ra)
ffffffff80202db4: d5 bd                	j	-268
ffffffff80202db6: 01 45                	mv	a0, zero
ffffffff80202db8: a3 03 a1 0c          	sb	a0, 199(sp)
ffffffff80202dbc: 19 bf                	j	-234

ffffffff80202dbe _ZN4spin4once13Once$LT$T$GT$9force_get17hbca39fdc2a150e88E:
ffffffff80202dbe: 79 71                	addi	sp, sp, -48
ffffffff80202dc0: 06 f4                	sd	ra, 40(sp)
ffffffff80202dc2: 2a ec                	sd	a0, 24(sp)
ffffffff80202dc4: 21 05                	addi	a0, a0, 8
ffffffff80202dc6: 97 00 00 00          	auipc	ra, 0
ffffffff80202dca: e7 80 60 73          	jalr	1846(ra)
ffffffff80202dce: 2a e4                	sd	a0, 8(sp)
ffffffff80202dd0: 09 a0                	j	2
ffffffff80202dd2: 22 65                	ld	a0, 8(sp)
ffffffff80202dd4: 97 e0 ff ff          	auipc	ra, 1048574
ffffffff80202dd8: e7 80 c0 01          	jalr	28(ra)
ffffffff80202ddc: 2a e8                	sd	a0, 16(sp)
ffffffff80202dde: 09 a0                	j	2
ffffffff80202de0: 42 65                	ld	a0, 16(sp)
ffffffff80202de2: b3 35 a0 00          	snez	a1, a0
ffffffff80202de6: 01 46                	mv	a2, zero
ffffffff80202de8: 63 09 c5 00          	beq	a0, a2, 18
ffffffff80202dec: 09 a0                	j	2
ffffffff80202dee: 42 65                	ld	a0, 16(sp)
ffffffff80202df0: 2a f0                	sd	a0, 32(sp)
ffffffff80202df2: a2 70                	ld	ra, 40(sp)
ffffffff80202df4: 45 61                	addi	sp, sp, 48
ffffffff80202df6: 82 80                	ret
ffffffff80202df8: 00 00                	unimp	
ffffffff80202dfa: 97 d0 ff ff          	auipc	ra, 1048573
ffffffff80202dfe: e7 80 80 4e          	jalr	1256(ra)
ffffffff80202e02: 00 00                	unimp	

ffffffff80202e04 _ZN4spin4once13Once$LT$T$GT$9force_get17hfe7e8249848e787dE:
ffffffff80202e04: 79 71                	addi	sp, sp, -48
ffffffff80202e06: 06 f4                	sd	ra, 40(sp)
ffffffff80202e08: 2a ec                	sd	a0, 24(sp)
ffffffff80202e0a: 21 05                	addi	a0, a0, 8
ffffffff80202e0c: 97 00 00 00          	auipc	ra, 0
ffffffff80202e10: e7 80 80 6e          	jalr	1768(ra)
ffffffff80202e14: 2a e4                	sd	a0, 8(sp)
ffffffff80202e16: 09 a0                	j	2
ffffffff80202e18: 22 65                	ld	a0, 8(sp)
ffffffff80202e1a: 97 e0 ff ff          	auipc	ra, 1048574
ffffffff80202e1e: e7 80 a0 fa          	jalr	-86(ra)
ffffffff80202e22: 2a e8                	sd	a0, 16(sp)
ffffffff80202e24: 09 a0                	j	2
ffffffff80202e26: 42 65                	ld	a0, 16(sp)
ffffffff80202e28: b3 35 a0 00          	snez	a1, a0
ffffffff80202e2c: 01 46                	mv	a2, zero
ffffffff80202e2e: 63 09 c5 00          	beq	a0, a2, 18
ffffffff80202e32: 09 a0                	j	2
ffffffff80202e34: 42 65                	ld	a0, 16(sp)
ffffffff80202e36: 2a f0                	sd	a0, 32(sp)
ffffffff80202e38: a2 70                	ld	ra, 40(sp)
ffffffff80202e3a: 45 61                	addi	sp, sp, 48
ffffffff80202e3c: 82 80                	ret
ffffffff80202e3e: 00 00                	unimp	
ffffffff80202e40: 97 d0 ff ff          	auipc	ra, 1048573
ffffffff80202e44: e7 80 20 4a          	jalr	1186(ra)
ffffffff80202e48: 00 00                	unimp	

ffffffff80202e4a rust_main:
ffffffff80202e4a: 13 01 01 d6          	addi	sp, sp, -672
ffffffff80202e4e: 23 3c 11 28          	sd	ra, 664(sp)
ffffffff80202e52: 2e f5                	sd	a1, 168(sp)
ffffffff80202e54: 2e f1                	sd	a1, 160(sp)
ffffffff80202e56: 23 3c a1 24          	sd	a0, 600(sp)
ffffffff80202e5a: 97 10 00 00          	auipc	ra, 1
ffffffff80202e5e: e7 80 80 85          	jalr	-1960(ra)
ffffffff80202e62: 09 a0                	j	2
ffffffff80202e64: 97 e0 ff ff          	auipc	ra, 1048574
ffffffff80202e68: e7 80 40 01          	jalr	20(ra)
ffffffff80202e6c: 09 a0                	j	2
ffffffff80202e6e: 05 45                	addi	a0, zero, 1
ffffffff80202e70: 06 15                	slli	a0, a0, 33
ffffffff80202e72: 2a f9                	sd	a0, 176(sp)
ffffffff80202e74: 01 45                	mv	a0, zero
ffffffff80202e76: 89 45                	addi	a1, zero, 2
ffffffff80202e78: 97 f0 ff ff          	auipc	ra, 1048575
ffffffff80202e7c: e7 80 00 54          	jalr	1344(ra)
ffffffff80202e80: 2a ed                	sd	a0, 152(sp)
ffffffff80202e82: 2e e9                	sd	a1, 144(sp)
ffffffff80202e84: 09 a0                	j	2
ffffffff80202e86: 6a 65                	ld	a0, 152(sp)
ffffffff80202e88: 2a dd                	sw	a0, 184(sp)
ffffffff80202e8a: ca 65                	ld	a1, 144(sp)
ffffffff80202e8c: 2e df                	sw	a1, 188(sp)
ffffffff80202e8e: 09 a0                	j	2
ffffffff80202e90: 28 19                	addi	a0, sp, 184
ffffffff80202e92: 97 f0 ff ff          	auipc	ra, 1048575
ffffffff80202e96: e7 80 c0 4b          	jalr	1212(ra)
ffffffff80202e9a: aa c1                	sw	a0, 192(sp)
ffffffff80202e9c: ae c3                	sw	a1, 196(sp)
ffffffff80202e9e: 09 a0                	j	2
ffffffff80202ea0: 03 65 01 0c          	lwu	a0, 192(sp)
ffffffff80202ea4: 81 45                	mv	a1, zero
ffffffff80202ea6: 63 04 b5 00          	beq	a0, a1, 8
ffffffff80202eaa: 09 a0                	j	2
ffffffff80202eac: 05 a0                	j	32

ffffffff80202eae .LBB0_40:
ffffffff80202eae: 17 95 00 00          	auipc	a0, 9
ffffffff80202eb2: 13 05 a5 f4          	addi	a0, a0, -182

ffffffff80202eb6 .LBB0_41:
ffffffff80202eb6: 17 96 00 00          	auipc	a2, 9
ffffffff80202eba: 13 06 26 f5          	addi	a2, a2, -174
ffffffff80202ebe: b9 45                	addi	a1, zero, 14
ffffffff80202ec0: 97 60 00 00          	auipc	ra, 6
ffffffff80202ec4: e7 80 80 9a          	jalr	-1624(ra)
ffffffff80202ec8: 00 00                	unimp	
ffffffff80202eca: 00 00                	unimp	
ffffffff80202ecc: 1e 45                	lw	a0, 196(sp)
ffffffff80202ece: 23 20 a1 26          	sw	a0, 608(sp)
ffffffff80202ed2: 23 22 a1 26          	sw	a0, 612(sp)

ffffffff80202ed6 .LBB0_42:
ffffffff80202ed6: 17 85 00 00          	auipc	a0, 8
ffffffff80202eda: 13 05 05 26          	addi	a0, a0, 608
ffffffff80202ede: 97 d0 ff ff          	auipc	ra, 1048573
ffffffff80202ee2: e7 80 80 7a          	jalr	1960(ra)
ffffffff80202ee6: 2a e5                	sd	a0, 136(sp)
ffffffff80202ee8: 09 a0                	j	2
ffffffff80202eea: 2a 65                	ld	a0, 136(sp)
ffffffff80202eec: 97 e0 ff ff          	auipc	ra, 1048574
ffffffff80202ef0: e7 80 c0 a5          	jalr	-1444(ra)
ffffffff80202ef4: aa f5                	sd	a0, 232(sp)
ffffffff80202ef6: ae f9                	sd	a1, 240(sp)
ffffffff80202ef8: 09 a0                	j	2
ffffffff80202efa: a8 11                	addi	a0, sp, 232
ffffffff80202efc: 97 e0 ff ff          	auipc	ra, 1048574
ffffffff80202f00: e7 80 40 a8          	jalr	-1404(ra)
ffffffff80202f04: 2a e1                	sd	a0, 128(sp)
ffffffff80202f06: 09 a0                	j	2
ffffffff80202f08: 88 09                	addi	a0, sp, 208
ffffffff80202f0a: 8a 65                	ld	a1, 128(sp)
ffffffff80202f0c: 97 d0 ff ff          	auipc	ra, 1048573
ffffffff80202f10: e7 80 a0 6b          	jalr	1722(ra)
ffffffff80202f14: 09 a0                	j	2
ffffffff80202f16: 4e 65                	ld	a0, 208(sp)
ffffffff80202f18: 81 45                	mv	a1, zero
ffffffff80202f1a: 63 0e b5 02          	beq	a0, a1, 60
ffffffff80202f1e: 09 a0                	j	2
ffffffff80202f20: 6e 65                	ld	a0, 216(sp)
ffffffff80202f22: 8e 75                	ld	a1, 224(sp)
ffffffff80202f24: 2a e2                	sd	a0, 256(sp)
ffffffff80202f26: 2e e6                	sd	a1, 264(sp)

ffffffff80202f28 .LBB0_43:
ffffffff80202f28: 17 95 00 00          	auipc	a0, 9
ffffffff80202f2c: 13 05 85 e4          	addi	a0, a0, -440
ffffffff80202f30: 0c 61                	ld	a1, 0(a0)
ffffffff80202f32: 08 02                	addi	a0, sp, 256
ffffffff80202f34: aa ea                	sd	a0, 336(sp)
ffffffff80202f36: 23 34 a1 26          	sd	a0, 616(sp)

ffffffff80202f3a .LBB0_44:
ffffffff80202f3a: 17 26 00 00          	auipc	a2, 2
ffffffff80202f3e: 13 06 e6 dd          	addi	a2, a2, -546
ffffffff80202f42: ae fc                	sd	a1, 120(sp)
ffffffff80202f44: b2 85                	add	a1, zero, a2
ffffffff80202f46: 97 20 00 00          	auipc	ra, 2
ffffffff80202f4a: e7 80 e0 df          	jalr	-514(ra)
ffffffff80202f4e: aa f8                	sd	a0, 112(sp)
ffffffff80202f50: ae f4                	sd	a1, 104(sp)
ffffffff80202f52: 19 a8                	j	22
ffffffff80202f54: 00 00                	unimp	
ffffffff80202f56: 6e 65                	ld	a0, 216(sp)
ffffffff80202f58: aa fd                	sd	a0, 248(sp)
ffffffff80202f5a: aa e5                	sd	a0, 200(sp)
ffffffff80202f5c: a8 11                	addi	a0, sp, 232
ffffffff80202f5e: 97 f0 ff ff          	auipc	ra, 1048575
ffffffff80202f62: e7 80 20 d0          	jalr	-766(ra)
ffffffff80202f66: 15 a8                	j	52
ffffffff80202f68: 46 75                	ld	a0, 112(sp)
ffffffff80202f6a: aa e2                	sd	a0, 320(sp)
ffffffff80202f6c: a6 75                	ld	a1, 104(sp)
ffffffff80202f6e: ae e6                	sd	a1, 328(sp)
ffffffff80202f70: 08 0a                	addi	a0, sp, 272
ffffffff80202f72: 94 02                	addi	a3, sp, 320
ffffffff80202f74: 05 46                	addi	a2, zero, 1
ffffffff80202f76: e6 75                	ld	a1, 120(sp)
ffffffff80202f78: b2 f0                	sd	a2, 96(sp)
ffffffff80202f7a: 06 77                	ld	a4, 96(sp)
ffffffff80202f7c: 97 d0 ff ff          	auipc	ra, 1048573
ffffffff80202f80: e7 80 e0 18          	jalr	398(ra)
ffffffff80202f84: 09 a0                	j	2

ffffffff80202f86 .LBB0_45:
ffffffff80202f86: 97 95 00 00          	auipc	a1, 9
ffffffff80202f8a: 93 85 25 e0          	addi	a1, a1, -510
ffffffff80202f8e: 08 0a                	addi	a0, sp, 272
ffffffff80202f90: 97 60 00 00          	auipc	ra, 6
ffffffff80202f94: e7 80 40 94          	jalr	-1724(ra)
ffffffff80202f98: 00 00                	unimp	

ffffffff80202f9a .LBB0_46:
ffffffff80202f9a: 17 85 00 00          	auipc	a0, 8
ffffffff80202f9e: 13 05 c5 19          	addi	a0, a0, 412
ffffffff80202fa2: 97 d0 ff ff          	auipc	ra, 1048573
ffffffff80202fa6: e7 80 40 6e          	jalr	1764(ra)
ffffffff80202faa: aa ec                	sd	a0, 88(sp)
ffffffff80202fac: 09 a0                	j	2
ffffffff80202fae: 66 65                	ld	a0, 88(sp)
ffffffff80202fb0: 97 e0 ff ff          	auipc	ra, 1048574
ffffffff80202fb4: e7 80 80 99          	jalr	-1640(ra)
ffffffff80202fb8: aa fe                	sd	a0, 376(sp)
ffffffff80202fba: 2e e3                	sd	a1, 384(sp)
ffffffff80202fbc: 09 a0                	j	2
ffffffff80202fbe: a8 1a                	addi	a0, sp, 376
ffffffff80202fc0: 97 e0 ff ff          	auipc	ra, 1048574
ffffffff80202fc4: e7 80 00 9c          	jalr	-1600(ra)
ffffffff80202fc8: aa e8                	sd	a0, 80(sp)
ffffffff80202fca: 09 a0                	j	2
ffffffff80202fcc: 88 12                	addi	a0, sp, 352
ffffffff80202fce: c6 65                	ld	a1, 80(sp)
ffffffff80202fd0: 97 d0 ff ff          	auipc	ra, 1048573
ffffffff80202fd4: e7 80 60 5f          	jalr	1526(ra)
ffffffff80202fd8: 09 a0                	j	2
ffffffff80202fda: 16 75                	ld	a0, 352(sp)
ffffffff80202fdc: 81 45                	mv	a1, zero
ffffffff80202fde: 63 0e b5 02          	beq	a0, a1, 60
ffffffff80202fe2: 09 a0                	j	2
ffffffff80202fe4: 36 75                	ld	a0, 360(sp)
ffffffff80202fe6: d6 75                	ld	a1, 368(sp)
ffffffff80202fe8: 2a eb                	sd	a0, 400(sp)
ffffffff80202fea: 2e ef                	sd	a1, 408(sp)

ffffffff80202fec .LBB0_47:
ffffffff80202fec: 17 95 00 00          	auipc	a0, 9
ffffffff80202ff0: 13 05 45 d8          	addi	a0, a0, -636
ffffffff80202ff4: 0c 61                	ld	a1, 0(a0)
ffffffff80202ff6: 08 0b                	addi	a0, sp, 400
ffffffff80202ff8: aa f3                	sd	a0, 480(sp)
ffffffff80202ffa: 23 38 a1 26          	sd	a0, 624(sp)

ffffffff80202ffe .LBB0_48:
ffffffff80202ffe: 17 26 00 00          	auipc	a2, 2
ffffffff80203002: 13 06 a6 d1          	addi	a2, a2, -742
ffffffff80203006: ae e4                	sd	a1, 72(sp)
ffffffff80203008: b2 85                	add	a1, zero, a2
ffffffff8020300a: 97 20 00 00          	auipc	ra, 2
ffffffff8020300e: e7 80 a0 d3          	jalr	-710(ra)
ffffffff80203012: aa e0                	sd	a0, 64(sp)
ffffffff80203014: 2e fc                	sd	a1, 56(sp)
ffffffff80203016: 19 a8                	j	22
ffffffff80203018: 00 00                	unimp	
ffffffff8020301a: 36 75                	ld	a0, 360(sp)
ffffffff8020301c: 2a e7                	sd	a0, 392(sp)
ffffffff8020301e: aa ee                	sd	a0, 344(sp)
ffffffff80203020: a8 1a                	addi	a0, sp, 376
ffffffff80203022: 97 f0 ff ff          	auipc	ra, 1048575
ffffffff80203026: e7 80 e0 c3          	jalr	-962(ra)
ffffffff8020302a: 15 a8                	j	52
ffffffff8020302c: 06 65                	ld	a0, 64(sp)
ffffffff8020302e: aa eb                	sd	a0, 464(sp)
ffffffff80203030: e2 75                	ld	a1, 56(sp)
ffffffff80203032: ae ef                	sd	a1, 472(sp)
ffffffff80203034: 08 13                	addi	a0, sp, 416
ffffffff80203036: 94 0b                	addi	a3, sp, 464
ffffffff80203038: 05 46                	addi	a2, zero, 1
ffffffff8020303a: a6 65                	ld	a1, 72(sp)
ffffffff8020303c: 32 f8                	sd	a2, 48(sp)
ffffffff8020303e: 42 77                	ld	a4, 48(sp)
ffffffff80203040: 97 d0 ff ff          	auipc	ra, 1048573
ffffffff80203044: e7 80 a0 0c          	jalr	202(ra)
ffffffff80203048: 09 a0                	j	2

ffffffff8020304a .LBB0_49:
ffffffff8020304a: 97 95 00 00          	auipc	a1, 9
ffffffff8020304e: 93 85 65 d5          	addi	a1, a1, -682
ffffffff80203052: 08 13                	addi	a0, sp, 416
ffffffff80203054: 97 60 00 00          	auipc	ra, 6
ffffffff80203058: e7 80 00 88          	jalr	-1920(ra)
ffffffff8020305c: 00 00                	unimp	

ffffffff8020305e .LBB0_50:
ffffffff8020305e: 17 95 00 00          	auipc	a0, 9
ffffffff80203062: 13 05 25 d9          	addi	a0, a0, -622
ffffffff80203066: 0c 61                	ld	a1, 0(a0)
ffffffff80203068: a8 01                	addi	a0, sp, 200
ffffffff8020306a: 2e f4                	sd	a1, 40(sp)
ffffffff8020306c: 97 e0 ff ff          	auipc	ra, 1048574
ffffffff80203070: e7 80 a0 e5          	jalr	-422(ra)
ffffffff80203074: 23 3c a1 26          	sd	a0, 632(sp)
ffffffff80203078: 23 34 a1 24          	sd	a0, 584(sp)
ffffffff8020307c: 09 a0                	j	2
ffffffff8020307e: a8 0a                	addi	a0, sp, 344
ffffffff80203080: 97 e0 ff ff          	auipc	ra, 1048574
ffffffff80203084: e7 80 60 e4          	jalr	-442(ra)
ffffffff80203088: 23 30 a1 28          	sd	a0, 640(sp)
ffffffff8020308c: 23 38 a1 24          	sd	a0, 592(sp)
ffffffff80203090: 09 a0                	j	2
ffffffff80203092: a8 04                	addi	a0, sp, 584
ffffffff80203094: 23 3c a1 22          	sd	a0, 568(sp)
ffffffff80203098: 8c 0c                	addi	a1, sp, 592
ffffffff8020309a: 23 30 b1 24          	sd	a1, 576(sp)
ffffffff8020309e: 23 34 a1 28          	sd	a0, 648(sp)
ffffffff802030a2: 23 38 b1 28          	sd	a1, 656(sp)

ffffffff802030a6 .LBB0_51:
ffffffff802030a6: 17 d6 ff ff          	auipc	a2, 1048573
ffffffff802030aa: 13 06 e6 6c          	addi	a2, a2, 1742
ffffffff802030ae: 2e f0                	sd	a1, 32(sp)
ffffffff802030b0: b2 85                	add	a1, zero, a2
ffffffff802030b2: 97 f0 ff ff          	auipc	ra, 1048575
ffffffff802030b6: e7 80 20 03          	jalr	50(ra)
ffffffff802030ba: 2a ec                	sd	a0, 24(sp)
ffffffff802030bc: 2e e8                	sd	a1, 16(sp)
ffffffff802030be: 09 a0                	j	2

ffffffff802030c0 .LBB0_52:
ffffffff802030c0: 97 d5 ff ff          	auipc	a1, 1048573
ffffffff802030c4: 93 85 45 6b          	addi	a1, a1, 1716
ffffffff802030c8: 02 75                	ld	a0, 32(sp)
ffffffff802030ca: 97 f0 ff ff          	auipc	ra, 1048575
ffffffff802030ce: e7 80 a0 01          	jalr	26(ra)
ffffffff802030d2: 2a e4                	sd	a0, 8(sp)
ffffffff802030d4: 2e e0                	sd	a1, 0(sp)
ffffffff802030d6: 09 a0                	j	2
ffffffff802030d8: 62 65                	ld	a0, 24(sp)
ffffffff802030da: 23 3c a1 20          	sd	a0, 536(sp)
ffffffff802030de: c2 65                	ld	a1, 16(sp)
ffffffff802030e0: 23 30 b1 22          	sd	a1, 544(sp)
ffffffff802030e4: 22 66                	ld	a2, 8(sp)
ffffffff802030e6: 23 34 c1 22          	sd	a2, 552(sp)
ffffffff802030ea: 82 66                	ld	a3, 0(sp)
ffffffff802030ec: 23 38 d1 22          	sd	a3, 560(sp)
ffffffff802030f0: a8 13                	addi	a0, sp, 488
ffffffff802030f2: 0d 46                	addi	a2, zero, 3
ffffffff802030f4: 34 0c                	addi	a3, sp, 536
ffffffff802030f6: 09 47                	addi	a4, zero, 2
ffffffff802030f8: a2 75                	ld	a1, 40(sp)
ffffffff802030fa: 97 d0 ff ff          	auipc	ra, 1048573
ffffffff802030fe: e7 80 00 01          	jalr	16(ra)
ffffffff80203102: 09 a0                	j	2
ffffffff80203104: a8 13                	addi	a0, sp, 488
ffffffff80203106: 97 d0 ff ff          	auipc	ra, 1048573
ffffffff8020310a: e7 80 60 2e          	jalr	742(ra)
ffffffff8020310e: 09 a0                	j	2
ffffffff80203110: a8 0a                	addi	a0, sp, 344
ffffffff80203112: 97 f0 ff ff          	auipc	ra, 1048575
ffffffff80203116: e7 80 a0 bb          	jalr	-1094(ra)
ffffffff8020311a: 09 a0                	j	2
ffffffff8020311c: a8 01                	addi	a0, sp, 200
ffffffff8020311e: 97 f0 ff ff          	auipc	ra, 1048575
ffffffff80203122: e7 80 e0 ba          	jalr	-1106(ra)
ffffffff80203126: 09 a0                	j	2
ffffffff80203128: a5 b3                	j	-664

ffffffff8020312a _ZN4core4sync6atomic10AtomicBool16compare_and_swap17hd9ce0988f4d70475E:
ffffffff8020312a: 5d 71                	addi	sp, sp, -80
ffffffff8020312c: 86 e4                	sd	ra, 72(sp)
ffffffff8020312e: 36 87                	add	a4, zero, a3
ffffffff80203130: b2 87                	add	a5, zero, a2
ffffffff80203132: 2e 88                	add	a6, zero, a1
ffffffff80203134: 2a fc                	sd	a0, 56(sp)
ffffffff80203136: a3 01 b1 04          	sb	a1, 67(sp)
ffffffff8020313a: 23 02 c1 04          	sb	a2, 68(sp)
ffffffff8020313e: a3 02 d1 04          	sb	a3, 69(sp)
ffffffff80203142: 2a f0                	sd	a0, 32(sp)
ffffffff80203144: 36 85                	add	a0, zero, a3
ffffffff80203146: 3a ec                	sd	a4, 24(sp)
ffffffff80203148: 3e e8                	sd	a5, 16(sp)
ffffffff8020314a: 42 e4                	sd	a6, 8(sp)
ffffffff8020314c: 97 00 00 00          	auipc	ra, 0
ffffffff80203150: e7 80 00 2c          	jalr	704(ra)
ffffffff80203154: 13 77 f5 0f          	andi	a4, a0, 255
ffffffff80203158: 3a e0                	sd	a4, 0(sp)
ffffffff8020315a: 09 a0                	j	2
ffffffff8020315c: 02 75                	ld	a0, 32(sp)
ffffffff8020315e: a2 65                	ld	a1, 8(sp)
ffffffff80203160: 42 66                	ld	a2, 16(sp)
ffffffff80203162: e2 66                	ld	a3, 24(sp)
ffffffff80203164: 02 67                	ld	a4, 0(sp)
ffffffff80203166: 97 00 00 00          	auipc	ra, 0
ffffffff8020316a: e7 80 80 04          	jalr	72(ra)
ffffffff8020316e: 23 08 a1 02          	sb	a0, 48(sp)
ffffffff80203172: a3 08 b1 02          	sb	a1, 49(sp)
ffffffff80203176: 09 a0                	j	2
ffffffff80203178: 03 45 01 03          	lbu	a0, 48(sp)
ffffffff8020317c: 05 89                	andi	a0, a0, 1
ffffffff8020317e: 81 45                	mv	a1, zero
ffffffff80203180: 63 0b b5 00          	beq	a0, a1, 22
ffffffff80203184: 09 a0                	j	2
ffffffff80203186: 03 05 11 03          	lb	a0, 49(sp)
ffffffff8020318a: 23 03 a1 04          	sb	a0, 70(sp)
ffffffff8020318e: a3 07 a1 02          	sb	a0, 47(sp)
ffffffff80203192: 09 a8                	j	18
ffffffff80203194: 00 00                	unimp	
ffffffff80203196: 03 05 11 03          	lb	a0, 49(sp)
ffffffff8020319a: a3 03 a1 04          	sb	a0, 71(sp)
ffffffff8020319e: a3 07 a1 02          	sb	a0, 47(sp)
ffffffff802031a2: 09 a0                	j	2
ffffffff802031a4: 03 45 f1 02          	lbu	a0, 47(sp)
ffffffff802031a8: a6 60                	ld	ra, 72(sp)
ffffffff802031aa: 61 61                	addi	sp, sp, 80
ffffffff802031ac: 82 80                	ret

ffffffff802031ae _ZN4core4sync6atomic10AtomicBool16compare_exchange17h8b17fc9bb6fff0b7E:
ffffffff802031ae: 5d 71                	addi	sp, sp, -80
ffffffff802031b0: 86 e4                	sd	ra, 72(sp)
ffffffff802031b2: ba 87                	add	a5, zero, a4
ffffffff802031b4: 36 88                	add	a6, zero, a3
ffffffff802031b6: b2 88                	add	a7, zero, a2
ffffffff802031b8: ae 82                	add	t0, zero, a1
ffffffff802031ba: 2a fc                	sd	a0, 56(sp)
ffffffff802031bc: 23 01 b1 04          	sb	a1, 66(sp)
ffffffff802031c0: a3 01 c1 04          	sb	a2, 67(sp)
ffffffff802031c4: 23 02 d1 04          	sb	a3, 68(sp)
ffffffff802031c8: a3 02 e1 04          	sb	a4, 69(sp)
ffffffff802031cc: 3e f0                	sd	a5, 32(sp)
ffffffff802031ce: 42 ec                	sd	a6, 24(sp)
ffffffff802031d0: 46 e8                	sd	a7, 16(sp)
ffffffff802031d2: 16 e4                	sd	t0, 8(sp)
ffffffff802031d4: 97 20 00 00          	auipc	ra, 2
ffffffff802031d8: e7 80 40 1b          	jalr	436(ra)
ffffffff802031dc: 2a e0                	sd	a0, 0(sp)
ffffffff802031de: 09 a0                	j	2
ffffffff802031e0: 02 65                	ld	a0, 0(sp)
ffffffff802031e2: a2 65                	ld	a1, 8(sp)
ffffffff802031e4: 42 66                	ld	a2, 16(sp)
ffffffff802031e6: e2 66                	ld	a3, 24(sp)
ffffffff802031e8: 02 77                	ld	a4, 32(sp)
ffffffff802031ea: 97 10 00 00          	auipc	ra, 1
ffffffff802031ee: e7 80 c0 53          	jalr	1340(ra)
ffffffff802031f2: 23 08 a1 02          	sb	a0, 48(sp)
ffffffff802031f6: a3 08 b1 02          	sb	a1, 49(sp)
ffffffff802031fa: 09 a0                	j	2
ffffffff802031fc: 03 45 01 03          	lbu	a0, 48(sp)
ffffffff80203200: 05 89                	andi	a0, a0, 1
ffffffff80203202: 81 45                	mv	a1, zero
ffffffff80203204: 63 00 b5 02          	beq	a0, a1, 32
ffffffff80203208: 09 a0                	j	2
ffffffff8020320a: 03 45 11 03          	lbu	a0, 49(sp)
ffffffff8020320e: 23 03 a1 04          	sb	a0, 70(sp)
ffffffff80203212: 33 35 a0 00          	snez	a0, a0
ffffffff80203216: a3 04 a1 02          	sb	a0, 41(sp)
ffffffff8020321a: 05 45                	addi	a0, zero, 1
ffffffff8020321c: 23 04 a1 02          	sb	a0, 40(sp)
ffffffff80203220: 31 a8                	j	28
ffffffff80203222: 00 00                	unimp	
ffffffff80203224: 03 45 11 03          	lbu	a0, 49(sp)
ffffffff80203228: a3 03 a1 04          	sb	a0, 71(sp)
ffffffff8020322c: 33 35 a0 00          	snez	a0, a0
ffffffff80203230: a3 04 a1 02          	sb	a0, 41(sp)
ffffffff80203234: 01 45                	mv	a0, zero
ffffffff80203236: 23 04 a1 02          	sb	a0, 40(sp)
ffffffff8020323a: 09 a0                	j	2
ffffffff8020323c: 03 45 81 02          	lbu	a0, 40(sp)
ffffffff80203240: 83 05 91 02          	lb	a1, 41(sp)
ffffffff80203244: a6 60                	ld	ra, 72(sp)
ffffffff80203246: 61 61                	addi	sp, sp, 80
ffffffff80203248: 82 80                	ret

ffffffff8020324a _ZN4core4sync6atomic10AtomicBool3new17h0b1ec3fcc9dab388E:
ffffffff8020324a: 01 11                	addi	sp, sp, -32
ffffffff8020324c: 06 ec                	sd	ra, 24(sp)
ffffffff8020324e: aa 85                	add	a1, zero, a0
ffffffff80203250: a3 0b a1 00          	sb	a0, 23(sp)
ffffffff80203254: 2e e4                	sd	a1, 8(sp)
ffffffff80203256: 97 20 00 00          	auipc	ra, 2
ffffffff8020325a: e7 80 20 14          	jalr	322(ra)
ffffffff8020325e: 2a e0                	sd	a0, 0(sp)
ffffffff80203260: 09 a0                	j	2
ffffffff80203262: 02 65                	ld	a0, 0(sp)
ffffffff80203264: 23 08 a1 00          	sb	a0, 16(sp)
ffffffff80203268: e2 60                	ld	ra, 24(sp)
ffffffff8020326a: 05 61                	addi	sp, sp, 32
ffffffff8020326c: 82 80                	ret

ffffffff8020326e _ZN4core4sync6atomic10AtomicBool4load17h84747c5f2257c698E:
ffffffff8020326e: 79 71                	addi	sp, sp, -48
ffffffff80203270: 06 f4                	sd	ra, 40(sp)
ffffffff80203272: 2e 86                	add	a2, zero, a1
ffffffff80203274: 2a ec                	sd	a0, 24(sp)
ffffffff80203276: a3 03 b1 02          	sb	a1, 39(sp)
ffffffff8020327a: 32 e8                	sd	a2, 16(sp)
ffffffff8020327c: 97 20 00 00          	auipc	ra, 2
ffffffff80203280: e7 80 c0 10          	jalr	268(ra)
ffffffff80203284: 2a e4                	sd	a0, 8(sp)
ffffffff80203286: 09 a0                	j	2
ffffffff80203288: 22 65                	ld	a0, 8(sp)
ffffffff8020328a: c2 65                	ld	a1, 16(sp)
ffffffff8020328c: 97 10 00 00          	auipc	ra, 1
ffffffff80203290: e7 80 00 32          	jalr	800(ra)
ffffffff80203294: 2a e0                	sd	a0, 0(sp)
ffffffff80203296: 09 a0                	j	2
ffffffff80203298: 02 65                	ld	a0, 0(sp)
ffffffff8020329a: 93 75 f5 0f          	andi	a1, a0, 255
ffffffff8020329e: 33 35 b0 00          	snez	a0, a1
ffffffff802032a2: a2 70                	ld	ra, 40(sp)
ffffffff802032a4: 45 61                	addi	sp, sp, 48
ffffffff802032a6: 82 80                	ret

ffffffff802032a8 _ZN4core4sync6atomic10AtomicBool5store17hcf96ee37e8807a4aE:
ffffffff802032a8: 79 71                	addi	sp, sp, -48
ffffffff802032aa: 06 f4                	sd	ra, 40(sp)
ffffffff802032ac: b2 86                	add	a3, zero, a2
ffffffff802032ae: 2e 87                	add	a4, zero, a1
ffffffff802032b0: 2a ec                	sd	a0, 24(sp)
ffffffff802032b2: 23 03 b1 02          	sb	a1, 38(sp)
ffffffff802032b6: a3 03 c1 02          	sb	a2, 39(sp)
ffffffff802032ba: 36 e8                	sd	a3, 16(sp)
ffffffff802032bc: 3a e4                	sd	a4, 8(sp)
ffffffff802032be: 97 20 00 00          	auipc	ra, 2
ffffffff802032c2: e7 80 a0 0c          	jalr	202(ra)
ffffffff802032c6: 2a e0                	sd	a0, 0(sp)
ffffffff802032c8: 09 a0                	j	2
ffffffff802032ca: 02 65                	ld	a0, 0(sp)
ffffffff802032cc: a2 65                	ld	a1, 8(sp)
ffffffff802032ce: 42 66                	ld	a2, 16(sp)
ffffffff802032d0: 97 10 00 00          	auipc	ra, 1
ffffffff802032d4: e7 80 20 39          	jalr	914(ra)
ffffffff802032d8: 09 a0                	j	2
ffffffff802032da: a2 70                	ld	ra, 40(sp)
ffffffff802032dc: 45 61                	addi	sp, sp, 48
ffffffff802032de: 82 80                	ret

ffffffff802032e0 _ZN4core4sync6atomic11AtomicUsize16compare_and_swap17h2b0309d0568670b0E:
ffffffff802032e0: 19 71                	addi	sp, sp, -128
ffffffff802032e2: 86 fc                	sd	ra, 120(sp)
ffffffff802032e4: 36 87                	add	a4, zero, a3
ffffffff802032e6: aa e4                	sd	a0, 72(sp)
ffffffff802032e8: ae e8                	sd	a1, 80(sp)
ffffffff802032ea: b2 ec                	sd	a2, 88(sp)
ffffffff802032ec: a3 03 d1 06          	sb	a3, 103(sp)
ffffffff802032f0: 2a f4                	sd	a0, 40(sp)
ffffffff802032f2: 36 85                	add	a0, zero, a3
ffffffff802032f4: 32 f0                	sd	a2, 32(sp)
ffffffff802032f6: 2e ec                	sd	a1, 24(sp)
ffffffff802032f8: 3a e8                	sd	a4, 16(sp)
ffffffff802032fa: 97 00 00 00          	auipc	ra, 0
ffffffff802032fe: e7 80 20 11          	jalr	274(ra)
ffffffff80203302: 13 77 f5 0f          	andi	a4, a0, 255
ffffffff80203306: 3a e4                	sd	a4, 8(sp)
ffffffff80203308: 09 a0                	j	2
ffffffff8020330a: 22 75                	ld	a0, 40(sp)
ffffffff8020330c: e2 65                	ld	a1, 24(sp)
ffffffff8020330e: 02 76                	ld	a2, 32(sp)
ffffffff80203310: c2 66                	ld	a3, 16(sp)
ffffffff80203312: 22 67                	ld	a4, 8(sp)
ffffffff80203314: 97 00 00 00          	auipc	ra, 0
ffffffff80203318: e7 80 20 03          	jalr	50(ra)
ffffffff8020331c: 2a fc                	sd	a0, 56(sp)
ffffffff8020331e: ae e0                	sd	a1, 64(sp)
ffffffff80203320: 09 a0                	j	2
ffffffff80203322: 62 75                	ld	a0, 56(sp)
ffffffff80203324: 81 45                	mv	a1, zero
ffffffff80203326: 63 08 b5 00          	beq	a0, a1, 16
ffffffff8020332a: 09 a0                	j	2
ffffffff8020332c: 06 65                	ld	a0, 64(sp)
ffffffff8020332e: aa f4                	sd	a0, 104(sp)
ffffffff80203330: 2a f8                	sd	a0, 48(sp)
ffffffff80203332: 31 a0                	j	12
ffffffff80203334: 00 00                	unimp	
ffffffff80203336: 06 65                	ld	a0, 64(sp)
ffffffff80203338: aa f8                	sd	a0, 112(sp)
ffffffff8020333a: 2a f8                	sd	a0, 48(sp)
ffffffff8020333c: 09 a0                	j	2
ffffffff8020333e: 42 75                	ld	a0, 48(sp)
ffffffff80203340: e6 70                	ld	ra, 120(sp)
ffffffff80203342: 09 61                	addi	sp, sp, 128
ffffffff80203344: 82 80                	ret

ffffffff80203346 _ZN4core4sync6atomic11AtomicUsize16compare_exchange17h382573bd39c30e3fE:
ffffffff80203346: 1d 71                	addi	sp, sp, -96
ffffffff80203348: 86 ec                	sd	ra, 88(sp)
ffffffff8020334a: ba 87                	add	a5, zero, a4
ffffffff8020334c: 36 88                	add	a6, zero, a3
ffffffff8020334e: 2a fc                	sd	a0, 56(sp)
ffffffff80203350: ae e0                	sd	a1, 64(sp)
ffffffff80203352: b2 e4                	sd	a2, 72(sp)
ffffffff80203354: 23 0b d1 04          	sb	a3, 86(sp)
ffffffff80203358: a3 0b e1 04          	sb	a4, 87(sp)
ffffffff8020335c: 32 f8                	sd	a2, 48(sp)
ffffffff8020335e: 2e f4                	sd	a1, 40(sp)
ffffffff80203360: 3e f0                	sd	a5, 32(sp)
ffffffff80203362: 42 ec                	sd	a6, 24(sp)
ffffffff80203364: 97 50 00 00          	auipc	ra, 5
ffffffff80203368: e7 80 60 b6          	jalr	-1178(ra)
ffffffff8020336c: 2a e8                	sd	a0, 16(sp)
ffffffff8020336e: 09 a0                	j	2
ffffffff80203370: 42 65                	ld	a0, 16(sp)
ffffffff80203372: a2 75                	ld	a1, 40(sp)
ffffffff80203374: 42 76                	ld	a2, 48(sp)
ffffffff80203376: e2 66                	ld	a3, 24(sp)
ffffffff80203378: 02 77                	ld	a4, 32(sp)
ffffffff8020337a: 97 e0 ff ff          	auipc	ra, 1048574
ffffffff8020337e: e7 80 80 53          	jalr	1336(ra)
ffffffff80203382: 2a e4                	sd	a0, 8(sp)
ffffffff80203384: 2e e0                	sd	a1, 0(sp)
ffffffff80203386: 09 a0                	j	2
ffffffff80203388: 22 65                	ld	a0, 8(sp)
ffffffff8020338a: 82 65                	ld	a1, 0(sp)
ffffffff8020338c: e6 60                	ld	ra, 88(sp)
ffffffff8020338e: 25 61                	addi	sp, sp, 96
ffffffff80203390: 82 80                	ret

ffffffff80203392 _ZN4core4sync6atomic11AtomicUsize4load17h295509d46caf3c5eE:
ffffffff80203392: 79 71                	addi	sp, sp, -48
ffffffff80203394: 06 f4                	sd	ra, 40(sp)
ffffffff80203396: 2e 86                	add	a2, zero, a1
ffffffff80203398: 2a ec                	sd	a0, 24(sp)
ffffffff8020339a: a3 03 b1 02          	sb	a1, 39(sp)
ffffffff8020339e: 32 e8                	sd	a2, 16(sp)
ffffffff802033a0: 97 50 00 00          	auipc	ra, 5
ffffffff802033a4: e7 80 a0 b2          	jalr	-1238(ra)
ffffffff802033a8: 2a e4                	sd	a0, 8(sp)
ffffffff802033aa: 09 a0                	j	2
ffffffff802033ac: 22 65                	ld	a0, 8(sp)
ffffffff802033ae: c2 65                	ld	a1, 16(sp)
ffffffff802033b0: 97 e0 ff ff          	auipc	ra, 1048574
ffffffff802033b4: e7 80 a0 45          	jalr	1114(ra)
ffffffff802033b8: 2a e0                	sd	a0, 0(sp)
ffffffff802033ba: 09 a0                	j	2
ffffffff802033bc: 02 65                	ld	a0, 0(sp)
ffffffff802033be: a2 70                	ld	ra, 40(sp)
ffffffff802033c0: 45 61                	addi	sp, sp, 48
ffffffff802033c2: 82 80                	ret

ffffffff802033c4 _ZN4core4sync6atomic11AtomicUsize5store17hdae64bee918d7e27E:
ffffffff802033c4: 39 71                	addi	sp, sp, -64
ffffffff802033c6: 06 fc                	sd	ra, 56(sp)
ffffffff802033c8: b2 86                	add	a3, zero, a2
ffffffff802033ca: 2a f0                	sd	a0, 32(sp)
ffffffff802033cc: 2e f4                	sd	a1, 40(sp)
ffffffff802033ce: a3 0b c1 02          	sb	a2, 55(sp)
ffffffff802033d2: 2e ec                	sd	a1, 24(sp)
ffffffff802033d4: 36 e8                	sd	a3, 16(sp)
ffffffff802033d6: 97 50 00 00          	auipc	ra, 5
ffffffff802033da: e7 80 40 af          	jalr	-1292(ra)
ffffffff802033de: 2a e4                	sd	a0, 8(sp)
ffffffff802033e0: 09 a0                	j	2
ffffffff802033e2: 22 65                	ld	a0, 8(sp)
ffffffff802033e4: e2 65                	ld	a1, 24(sp)
ffffffff802033e6: 42 66                	ld	a2, 16(sp)
ffffffff802033e8: 97 50 00 00          	auipc	ra, 5
ffffffff802033ec: e7 80 c0 a3          	jalr	-1476(ra)
ffffffff802033f0: 09 a0                	j	2
ffffffff802033f2: e2 70                	ld	ra, 56(sp)
ffffffff802033f4: 21 61                	addi	sp, sp, 64
ffffffff802033f6: 82 80                	ret

ffffffff802033f8 _ZN4core4sync6atomic14spin_loop_hint17hd3c6df160cc06412E:
ffffffff802033f8: 41 11                	addi	sp, sp, -16
ffffffff802033fa: 06 e4                	sd	ra, 8(sp)
ffffffff802033fc: 97 d0 ff ff          	auipc	ra, 1048573
ffffffff80203400: e7 80 80 ee          	jalr	-280(ra)
ffffffff80203404: 09 a0                	j	2
ffffffff80203406: a2 60                	ld	ra, 8(sp)
ffffffff80203408: 41 01                	addi	sp, sp, 16
ffffffff8020340a: 82 80                	ret

ffffffff8020340c _ZN4core4sync6atomic26strongest_failure_ordering17h9cdc084a878e6eaeE:
ffffffff8020340c: 41 11                	addi	sp, sp, -16
ffffffff8020340e: aa 85                	add	a1, zero, a0
ffffffff80203410: 23 07 a1 00          	sb	a0, 14(sp)
ffffffff80203414: 13 75 f5 0f          	andi	a0, a0, 255
ffffffff80203418: 01 46                	mv	a2, zero
ffffffff8020341a: 2a e0                	sd	a0, 0(sp)
ffffffff8020341c: 63 0c c5 02          	beq	a0, a2, 56
ffffffff80203420: 09 a0                	j	2
ffffffff80203422: 05 45                	addi	a0, zero, 1
ffffffff80203424: 82 65                	ld	a1, 0(sp)
ffffffff80203426: 63 83 a5 02          	beq	a1, a0, 38
ffffffff8020342a: 09 a0                	j	2
ffffffff8020342c: 09 45                	addi	a0, zero, 2
ffffffff8020342e: 82 65                	ld	a1, 0(sp)
ffffffff80203430: 63 8a a5 02          	beq	a1, a0, 52
ffffffff80203434: 09 a0                	j	2
ffffffff80203436: 0d 45                	addi	a0, zero, 3
ffffffff80203438: 82 65                	ld	a1, 0(sp)
ffffffff8020343a: 63 84 a5 00          	beq	a1, a0, 8
ffffffff8020343e: 09 a0                	j	2
ffffffff80203440: 31 a8                	j	28
ffffffff80203442: 09 45                	addi	a0, zero, 2
ffffffff80203444: a3 07 a1 00          	sb	a0, 15(sp)
ffffffff80203448: 15 a0                	j	36
ffffffff8020344a: 00 00                	unimp	
ffffffff8020344c: 01 45                	mv	a0, zero
ffffffff8020344e: a3 07 a1 00          	sb	a0, 15(sp)
ffffffff80203452: 29 a8                	j	26
ffffffff80203454: 01 45                	mv	a0, zero
ffffffff80203456: a3 07 a1 00          	sb	a0, 15(sp)
ffffffff8020345a: 09 a8                	j	18
ffffffff8020345c: 11 45                	addi	a0, zero, 4
ffffffff8020345e: a3 07 a1 00          	sb	a0, 15(sp)
ffffffff80203462: 29 a0                	j	10
ffffffff80203464: 09 45                	addi	a0, zero, 2
ffffffff80203466: a3 07 a1 00          	sb	a0, 15(sp)
ffffffff8020346a: 09 a0                	j	2
ffffffff8020346c: 03 05 f1 00          	lb	a0, 15(sp)
ffffffff80203470: 41 01                	addi	sp, sp, 16
ffffffff80203472: 82 80                	ret

ffffffff80203474 _ZN2os3sbi15console_putchar17hd6efca0c397717aeE:
ffffffff80203474: 39 71                	addi	sp, sp, -64
ffffffff80203476: 2a e8                	sd	a0, 16(sp)
ffffffff80203478: 85 45                	addi	a1, zero, 1
ffffffff8020347a: 2e f0                	sd	a1, 32(sp)
ffffffff8020347c: 2a f4                	sd	a0, 40(sp)
ffffffff8020347e: 01 46                	mv	a2, zero
ffffffff80203480: 32 f8                	sd	a2, 48(sp)
ffffffff80203482: 32 fc                	sd	a2, 56(sp)
ffffffff80203484: 2e e4                	sd	a1, 8(sp)
ffffffff80203486: b2 85                	add	a1, zero, a2
ffffffff80203488: a2 68                	ld	a7, 8(sp)
ffffffff8020348a: 73 00 00 00          	ecall	
ffffffff8020348e: 2a ec                	sd	a0, 24(sp)
ffffffff80203490: 09 a0                	j	2
ffffffff80203492: 21 61                	addi	sp, sp, 64
ffffffff80203494: 82 80                	ret

ffffffff80203496 _ZN2os3sbi8shutdown17hc26935f08a356dabE:
ffffffff80203496: 39 71                	addi	sp, sp, -64
ffffffff80203498: 21 45                	addi	a0, zero, 8
ffffffff8020349a: 2a f0                	sd	a0, 32(sp)
ffffffff8020349c: 81 45                	mv	a1, zero
ffffffff8020349e: 2e f4                	sd	a1, 40(sp)
ffffffff802034a0: 2e f8                	sd	a1, 48(sp)
ffffffff802034a2: 2e fc                	sd	a1, 56(sp)
ffffffff802034a4: 2a e8                	sd	a0, 16(sp)
ffffffff802034a6: 2e 85                	add	a0, zero, a1
ffffffff802034a8: 2e e4                	sd	a1, 8(sp)
ffffffff802034aa: 22 66                	ld	a2, 8(sp)
ffffffff802034ac: c2 68                	ld	a7, 16(sp)
ffffffff802034ae: 73 00 00 00          	ecall	
ffffffff802034b2: 2a ec                	sd	a0, 24(sp)
ffffffff802034b4: 09 a0                	j	2

ffffffff802034b6 .LBB1_2:
ffffffff802034b6: 17 95 00 00          	auipc	a0, 9
ffffffff802034ba: 13 05 a5 96          	addi	a0, a0, -1686

ffffffff802034be .LBB1_3:
ffffffff802034be: 17 96 00 00          	auipc	a2, 9
ffffffff802034c2: 13 06 a6 99          	addi	a2, a2, -1638
ffffffff802034c6: 93 05 80 02          	addi	a1, zero, 40
ffffffff802034ca: 97 50 00 00          	auipc	ra, 5
ffffffff802034ce: e7 80 e0 39          	jalr	926(ra)
ffffffff802034d2: 00 00                	unimp	

ffffffff802034d4 _ZN2os3sbi9set_timer17h2aba495e5fc20b5dE:
ffffffff802034d4: 39 71                	addi	sp, sp, -64
ffffffff802034d6: 2a e8                	sd	a0, 16(sp)
ffffffff802034d8: 81 45                	mv	a1, zero
ffffffff802034da: 2e f0                	sd	a1, 32(sp)
ffffffff802034dc: 2a f4                	sd	a0, 40(sp)
ffffffff802034de: 2e f8                	sd	a1, 48(sp)
ffffffff802034e0: 2e fc                	sd	a1, 56(sp)
ffffffff802034e2: 2e e4                	sd	a1, 8(sp)
ffffffff802034e4: 22 66                	ld	a2, 8(sp)
ffffffff802034e6: a2 68                	ld	a7, 8(sp)
ffffffff802034e8: 73 00 00 00          	ecall	
ffffffff802034ec: 2a ec                	sd	a0, 24(sp)
ffffffff802034ee: 09 a0                	j	2
ffffffff802034f0: 21 61                	addi	sp, sp, 64
ffffffff802034f2: 82 80                	ret

ffffffff802034f4 _ZN4core4cell19UnsafeCell$LT$T$GT$3get17h2ed4223b72dee9edE:
ffffffff802034f4: 41 11                	addi	sp, sp, -16
ffffffff802034f6: 2a e4                	sd	a0, 8(sp)
ffffffff802034f8: 41 01                	addi	sp, sp, 16
ffffffff802034fa: 82 80                	ret

ffffffff802034fc _ZN4core4cell19UnsafeCell$LT$T$GT$3get17h7f6e5c80d2fc0d55E:
ffffffff802034fc: 41 11                	addi	sp, sp, -16
ffffffff802034fe: 2a e4                	sd	a0, 8(sp)
ffffffff80203500: 41 01                	addi	sp, sp, 16
ffffffff80203502: 82 80                	ret

ffffffff80203504 _ZN4core4cell19UnsafeCell$LT$T$GT$3get17had58617439cdec22E:
ffffffff80203504: 41 11                	addi	sp, sp, -16
ffffffff80203506: 2a e4                	sd	a0, 8(sp)
ffffffff80203508: 41 01                	addi	sp, sp, 16
ffffffff8020350a: 82 80                	ret

ffffffff8020350c _ZN4core4cell19UnsafeCell$LT$T$GT$3new17h9f0e055585babdedE:
ffffffff8020350c: 01 11                	addi	sp, sp, -32
ffffffff8020350e: 90 6d                	ld	a2, 24(a1)
ffffffff80203510: 32 ec                	sd	a2, 24(sp)
ffffffff80203512: 94 69                	ld	a3, 16(a1)
ffffffff80203514: 36 e8                	sd	a3, 16(sp)
ffffffff80203516: 98 65                	ld	a4, 8(a1)
ffffffff80203518: 3a e4                	sd	a4, 8(sp)
ffffffff8020351a: 8c 61                	ld	a1, 0(a1)
ffffffff8020351c: 2e e0                	sd	a1, 0(sp)
ffffffff8020351e: 10 ed                	sd	a2, 24(a0)
ffffffff80203520: 14 e9                	sd	a3, 16(a0)
ffffffff80203522: 18 e5                	sd	a4, 8(a0)
ffffffff80203524: 0c e1                	sd	a1, 0(a0)
ffffffff80203526: 05 61                	addi	sp, sp, 32
ffffffff80203528: 82 80                	ret

ffffffff8020352a _ZN4core3mem4swap17had204b3daa3878b6E:
ffffffff8020352a: 01 11                	addi	sp, sp, -32
ffffffff8020352c: 06 ec                	sd	ra, 24(sp)
ffffffff8020352e: 2a e4                	sd	a0, 8(sp)
ffffffff80203530: 2e e8                	sd	a1, 16(sp)
ffffffff80203532: 97 d0 ff ff          	auipc	ra, 1048573
ffffffff80203536: e7 80 e0 cf          	jalr	-770(ra)
ffffffff8020353a: 09 a0                	j	2
ffffffff8020353c: e2 60                	ld	ra, 24(sp)
ffffffff8020353e: 05 61                	addi	sp, sp, 32
ffffffff80203540: 82 80                	ret

ffffffff80203542 _ZN4core3mem7replace17h068322471a41d5a3E:
ffffffff80203542: 01 11                	addi	sp, sp, -32
ffffffff80203544: 06 ec                	sd	ra, 24(sp)
ffffffff80203546: 2e 86                	add	a2, zero, a1
ffffffff80203548: 2e c6                	sw	a1, 12(sp)
ffffffff8020354a: 2a e8                	sd	a0, 16(sp)
ffffffff8020354c: 6c 00                	addi	a1, sp, 12
ffffffff8020354e: 32 e0                	sd	a2, 0(sp)
ffffffff80203550: 97 00 00 00          	auipc	ra, 0
ffffffff80203554: e7 80 a0 fd          	jalr	-38(ra)
ffffffff80203558: 09 a0                	j	2
ffffffff8020355a: 32 45                	lw	a0, 12(sp)
ffffffff8020355c: e2 60                	ld	ra, 24(sp)
ffffffff8020355e: 05 61                	addi	sp, sp, 32
ffffffff80203560: 82 80                	ret

ffffffff80203562 _ZN5riscv8register6scause6Scause12is_interrupt17hd61c157cd3fbc109E:
ffffffff80203562: 39 71                	addi	sp, sp, -64
ffffffff80203564: 06 fc                	sd	ra, 56(sp)
ffffffff80203566: 2a f4                	sd	a0, 40(sp)
ffffffff80203568: a1 45                	addi	a1, zero, 8
ffffffff8020356a: 2e f8                	sd	a1, 48(sp)
ffffffff8020356c: 2a f0                	sd	a0, 32(sp)
ffffffff8020356e: 2e ec                	sd	a1, 24(sp)
ffffffff80203570: 09 a0                	j	2
ffffffff80203572: 62 65                	ld	a0, 24(sp)
ffffffff80203574: 93 15 35 00          	slli	a1, a0, 3
ffffffff80203578: 01 46                	mv	a2, zero
ffffffff8020357a: 2e e8                	sd	a1, 16(sp)
ffffffff8020357c: 0d e6                	bnez	a2, 42
ffffffff8020357e: 09 a0                	j	2
ffffffff80203580: 42 65                	ld	a0, 16(sp)
ffffffff80203582: 93 05 f5 ff          	addi	a1, a0, -1
ffffffff80203586: 2e e4                	sd	a1, 8(sp)
ffffffff80203588: 63 6e b5 02          	bltu	a0, a1, 60
ffffffff8020358c: 09 a0                	j	2
ffffffff8020358e: 02 75                	ld	a0, 32(sp)
ffffffff80203590: a2 65                	ld	a1, 8(sp)
ffffffff80203592: 97 e0 ff ff          	auipc	ra, 1048574
ffffffff80203596: e7 80 40 ed          	jalr	-300(ra)
ffffffff8020359a: 2a e0                	sd	a0, 0(sp)
ffffffff8020359c: 09 a0                	j	2
ffffffff8020359e: 02 65                	ld	a0, 0(sp)
ffffffff802035a0: e2 70                	ld	ra, 56(sp)
ffffffff802035a2: 21 61                	addi	sp, sp, 64
ffffffff802035a4: 82 80                	ret

ffffffff802035a6 .LBB0_7:
ffffffff802035a6: 17 95 00 00          	auipc	a0, 9
ffffffff802035aa: 13 05 a5 93          	addi	a0, a0, -1734

ffffffff802035ae .LBB0_8:
ffffffff802035ae: 17 96 00 00          	auipc	a2, 9
ffffffff802035b2: 13 06 a6 91          	addi	a2, a2, -1766
ffffffff802035b6: 93 05 10 02          	addi	a1, zero, 33
ffffffff802035ba: 97 50 00 00          	auipc	ra, 5
ffffffff802035be: e7 80 e0 2a          	jalr	686(ra)
ffffffff802035c2: 00 00                	unimp	

ffffffff802035c4 .LBB0_9:
ffffffff802035c4: 17 95 00 00          	auipc	a0, 9
ffffffff802035c8: 13 05 c5 94          	addi	a0, a0, -1716

ffffffff802035cc .LBB0_10:
ffffffff802035cc: 17 96 00 00          	auipc	a2, 9
ffffffff802035d0: 13 06 c6 8f          	addi	a2, a2, -1796
ffffffff802035d4: 93 05 10 02          	addi	a1, zero, 33
ffffffff802035d8: 97 50 00 00          	auipc	ra, 5
ffffffff802035dc: e7 80 00 29          	jalr	656(ra)
ffffffff802035e0: 00 00                	unimp	

ffffffff802035e2 _ZN5riscv8register6scause6Scause5cause17h561508ac00211d2bE:
ffffffff802035e2: 5d 71                	addi	sp, sp, -80
ffffffff802035e4: 86 e4                	sd	ra, 72(sp)
ffffffff802035e6: aa e0                	sd	a0, 64(sp)
ffffffff802035e8: 2a f8                	sd	a0, 48(sp)
ffffffff802035ea: 97 00 00 00          	auipc	ra, 0
ffffffff802035ee: e7 80 80 f7          	jalr	-136(ra)
ffffffff802035f2: 2a f4                	sd	a0, 40(sp)
ffffffff802035f4: 09 a0                	j	2
ffffffff802035f6: 22 75                	ld	a0, 40(sp)
ffffffff802035f8: 09 e9                	bnez	a0, 18
ffffffff802035fa: 09 a0                	j	2
ffffffff802035fc: 42 75                	ld	a0, 48(sp)
ffffffff802035fe: 97 50 00 00          	auipc	ra, 5
ffffffff80203602: e7 80 a0 a6          	jalr	-1430(ra)
ffffffff80203606: 2a f0                	sd	a0, 32(sp)
ffffffff80203608: 05 a8                	j	48
ffffffff8020360a: 42 75                	ld	a0, 48(sp)
ffffffff8020360c: 97 50 00 00          	auipc	ra, 5
ffffffff80203610: e7 80 c0 a5          	jalr	-1444(ra)
ffffffff80203614: 2a ec                	sd	a0, 24(sp)
ffffffff80203616: 09 a0                	j	2
ffffffff80203618: 62 65                	ld	a0, 24(sp)
ffffffff8020361a: 97 50 00 00          	auipc	ra, 5
ffffffff8020361e: e7 80 40 8f          	jalr	-1804(ra)
ffffffff80203622: 13 75 f5 0f          	andi	a0, a0, 255
ffffffff80203626: 2a e8                	sd	a0, 16(sp)
ffffffff80203628: 09 a0                	j	2
ffffffff8020362a: 42 65                	ld	a0, 16(sp)
ffffffff8020362c: a3 0c a1 02          	sb	a0, 57(sp)
ffffffff80203630: 81 45                	mv	a1, zero
ffffffff80203632: 23 0c b1 02          	sb	a1, 56(sp)
ffffffff80203636: 0d a0                	j	34
ffffffff80203638: 02 75                	ld	a0, 32(sp)
ffffffff8020363a: 97 50 00 00          	auipc	ra, 5
ffffffff8020363e: e7 80 40 95          	jalr	-1708(ra)
ffffffff80203642: 13 75 f5 0f          	andi	a0, a0, 255
ffffffff80203646: 2a e4                	sd	a0, 8(sp)
ffffffff80203648: 09 a0                	j	2
ffffffff8020364a: 22 65                	ld	a0, 8(sp)
ffffffff8020364c: a3 0c a1 02          	sb	a0, 57(sp)
ffffffff80203650: 85 45                	addi	a1, zero, 1
ffffffff80203652: 23 0c b1 02          	sb	a1, 56(sp)
ffffffff80203656: 09 a0                	j	2
ffffffff80203658: 03 45 81 03          	lbu	a0, 56(sp)
ffffffff8020365c: 83 05 91 03          	lb	a1, 57(sp)
ffffffff80203660: a6 60                	ld	ra, 72(sp)
ffffffff80203662: 61 61                	addi	sp, sp, 80
ffffffff80203664: 82 80                	ret

ffffffff80203666 _ZN4core5alloc6layout6Layout25from_size_align_unchecked17h7f50829c42a876aeE:
ffffffff80203666: 39 71                	addi	sp, sp, -64
ffffffff80203668: 06 fc                	sd	ra, 56(sp)
ffffffff8020366a: 2a f4                	sd	a0, 40(sp)
ffffffff8020366c: 2e f8                	sd	a1, 48(sp)
ffffffff8020366e: 2a e8                	sd	a0, 16(sp)
ffffffff80203670: 2e 85                	add	a0, zero, a1
ffffffff80203672: 97 d0 ff ff          	auipc	ra, 1048573
ffffffff80203676: e7 80 80 31          	jalr	792(ra)
ffffffff8020367a: 2a e4                	sd	a0, 8(sp)
ffffffff8020367c: 09 a0                	j	2
ffffffff8020367e: 42 65                	ld	a0, 16(sp)
ffffffff80203680: 2a ec                	sd	a0, 24(sp)
ffffffff80203682: a2 65                	ld	a1, 8(sp)
ffffffff80203684: 2e f0                	sd	a1, 32(sp)
ffffffff80203686: e2 70                	ld	ra, 56(sp)
ffffffff80203688: 21 61                	addi	sp, sp, 64
ffffffff8020368a: 82 80                	ret

ffffffff8020368c _ZN4core5alloc6layout6Layout4size17hd9d473ba1f858ce8E:
ffffffff8020368c: 41 11                	addi	sp, sp, -16
ffffffff8020368e: 2a e4                	sd	a0, 8(sp)
ffffffff80203690: 08 61                	ld	a0, 0(a0)
ffffffff80203692: 41 01                	addi	sp, sp, 16
ffffffff80203694: 82 80                	ret

ffffffff80203696 _ZN4core5alloc6layout6Layout5align17hc725523eb9553f0aE:
ffffffff80203696: 01 11                	addi	sp, sp, -32
ffffffff80203698: 06 ec                	sd	ra, 24(sp)
ffffffff8020369a: 2a e8                	sd	a0, 16(sp)
ffffffff8020369c: 08 65                	ld	a0, 8(a0)
ffffffff8020369e: 97 d0 ff ff          	auipc	ra, 1048573
ffffffff802036a2: e7 80 60 2f          	jalr	758(ra)
ffffffff802036a6: 2a e4                	sd	a0, 8(sp)
ffffffff802036a8: 09 a0                	j	2
ffffffff802036aa: 22 65                	ld	a0, 8(sp)
ffffffff802036ac: e2 60                	ld	ra, 24(sp)
ffffffff802036ae: 05 61                	addi	sp, sp, 32
ffffffff802036b0: 82 80                	ret

ffffffff802036b2 _ZN2os9interrupt4init17h73bda698e225e876E:
ffffffff802036b2: 39 71                	addi	sp, sp, -64
ffffffff802036b4: 06 fc                	sd	ra, 56(sp)
ffffffff802036b6: 97 e0 ff ff          	auipc	ra, 1048574
ffffffff802036ba: e7 80 80 8f          	jalr	-1800(ra)
ffffffff802036be: 09 a0                	j	2
ffffffff802036c0: 97 d0 ff ff          	auipc	ra, 1048573
ffffffff802036c4: e7 80 20 d7          	jalr	-654(ra)
ffffffff802036c8: 09 a0                	j	2

ffffffff802036ca .LBB0_5:
ffffffff802036ca: 17 95 00 00          	auipc	a0, 9
ffffffff802036ce: 13 05 65 89          	addi	a0, a0, -1898
ffffffff802036d2: 0c 61                	ld	a1, 0(a0)

ffffffff802036d4 .LBB0_6:
ffffffff802036d4: 17 95 00 00          	auipc	a0, 9
ffffffff802036d8: 13 05 45 89          	addi	a0, a0, -1900
ffffffff802036dc: 14 61                	ld	a3, 0(a0)
ffffffff802036de: 28 00                	addi	a0, sp, 8
ffffffff802036e0: 05 46                	addi	a2, zero, 1
ffffffff802036e2: 01 47                	mv	a4, zero
ffffffff802036e4: 97 d0 ff ff          	auipc	ra, 1048573
ffffffff802036e8: e7 80 60 a2          	jalr	-1498(ra)
ffffffff802036ec: 09 a0                	j	2
ffffffff802036ee: 28 00                	addi	a0, sp, 8
ffffffff802036f0: 97 d0 ff ff          	auipc	ra, 1048573
ffffffff802036f4: e7 80 c0 cf          	jalr	-772(ra)
ffffffff802036f8: 09 a0                	j	2
ffffffff802036fa: e2 70                	ld	ra, 56(sp)
ffffffff802036fc: 21 61                	addi	sp, sp, 64
ffffffff802036fe: 82 80                	ret

ffffffff80203700 __rust_alloc:
ffffffff80203700: 17 d3 ff ff          	auipc	t1, 1048573
ffffffff80203704: 67 00 c3 34          	jr	844(t1)

ffffffff80203708 __rust_dealloc:
ffffffff80203708: 17 d3 ff ff          	auipc	t1, 1048573
ffffffff8020370c: 67 00 a3 37          	jr	890(t1)

ffffffff80203710 __rust_alloc_zeroed:
ffffffff80203710: 17 d3 ff ff          	auipc	t1, 1048573
ffffffff80203714: 67 00 e3 3a          	jr	942(t1)

ffffffff80203718 _ZN22buddy_system_allocator4Heap11add_to_heap17h74608642e0d96118E:
ffffffff80203718: 2d 71                	addi	sp, sp, -288
ffffffff8020371a: 06 ee                	sd	ra, 280(sp)
ffffffff8020371c: ae e1                	sd	a1, 192(sp)
ffffffff8020371e: b2 e5                	sd	a2, 200(sp)
ffffffff80203720: aa f1                	sd	a0, 224(sp)
ffffffff80203722: 21 46                	addi	a2, zero, 8
ffffffff80203724: b2 fd                	sd	a2, 248(sp)
ffffffff80203726: 2a fd                	sd	a0, 184(sp)
ffffffff80203728: 2e f9                	sd	a1, 176(sp)
ffffffff8020372a: 32 f5                	sd	a2, 168(sp)
ffffffff8020372c: 09 a0                	j	2
ffffffff8020372e: 4a 75                	ld	a0, 176(sp)
ffffffff80203730: aa 75                	ld	a1, 168(sp)
ffffffff80203732: 33 06 b5 00          	add	a2, a0, a1
ffffffff80203736: 32 f1                	sd	a2, 160(sp)
ffffffff80203738: 63 63 a6 18          	bltu	a2, a0, 390
ffffffff8020373c: 09 a0                	j	2
ffffffff8020373e: 0a 75                	ld	a0, 160(sp)
ffffffff80203740: 93 05 f5 ff          	addi	a1, a0, -1
ffffffff80203744: 2e ed                	sd	a1, 152(sp)
ffffffff80203746: 63 6a b5 18          	bltu	a0, a1, 404
ffffffff8020374a: 09 a0                	j	2
ffffffff8020374c: 21 45                	addi	a0, zero, 8
ffffffff8020374e: 2a e2                	sd	a0, 256(sp)
ffffffff80203750: 2a e9                	sd	a0, 144(sp)
ffffffff80203752: 09 a0                	j	2
ffffffff80203754: 01 45                	mv	a0, zero
ffffffff80203756: ca 65                	ld	a1, 144(sp)
ffffffff80203758: 33 06 b5 40          	sub	a2, a0, a1
ffffffff8020375c: 32 e5                	sd	a2, 136(sp)
ffffffff8020375e: 63 0d a6 18          	beq	a2, a0, 410
ffffffff80203762: 09 a0                	j	2
ffffffff80203764: 6a 65                	ld	a0, 152(sp)
ffffffff80203766: aa 65                	ld	a1, 136(sp)
ffffffff80203768: 33 76 b5 00          	and	a2, a0, a1
ffffffff8020376c: b2 e1                	sd	a2, 192(sp)
ffffffff8020376e: 2e 66                	ld	a2, 200(sp)
ffffffff80203770: a1 46                	addi	a3, zero, 8
ffffffff80203772: 36 ea                	sd	a3, 272(sp)
ffffffff80203774: 32 e1                	sd	a2, 128(sp)
ffffffff80203776: b6 fc                	sd	a3, 120(sp)
ffffffff80203778: 09 a0                	j	2
ffffffff8020377a: 01 45                	mv	a0, zero
ffffffff8020377c: e6 75                	ld	a1, 120(sp)
ffffffff8020377e: 33 06 b5 40          	sub	a2, a0, a1
ffffffff80203782: b2 f8                	sd	a2, 112(sp)
ffffffff80203784: 63 08 a6 18          	beq	a2, a0, 400
ffffffff80203788: 09 a0                	j	2
ffffffff8020378a: 0a 65                	ld	a0, 128(sp)
ffffffff8020378c: c6 75                	ld	a1, 112(sp)
ffffffff8020378e: 33 76 b5 00          	and	a2, a0, a1
ffffffff80203792: b2 e5                	sd	a2, 200(sp)
ffffffff80203794: 8e 66                	ld	a3, 192(sp)
ffffffff80203796: 63 68 d6 00          	bltu	a2, a3, 16
ffffffff8020379a: 09 a0                	j	2
ffffffff8020379c: 01 45                	mv	a0, zero
ffffffff8020379e: aa e9                	sd	a0, 208(sp)
ffffffff802037a0: 0e 65                	ld	a0, 192(sp)
ffffffff802037a2: aa ed                	sd	a0, 216(sp)
ffffffff802037a4: 39 a8                	j	30

ffffffff802037a6 .LBB2_36:
ffffffff802037a6: 17 95 00 00          	auipc	a0, 9
ffffffff802037aa: 13 05 25 8f          	addi	a0, a0, -1806

ffffffff802037ae .LBB2_37:
ffffffff802037ae: 17 96 00 00          	auipc	a2, 9
ffffffff802037b2: 13 06 a6 90          	addi	a2, a2, -1782
ffffffff802037b6: f9 45                	addi	a1, zero, 30
ffffffff802037b8: 97 50 00 00          	auipc	ra, 5
ffffffff802037bc: e7 80 00 0b          	jalr	176(ra)
ffffffff802037c0: 00 00                	unimp	
ffffffff802037c2: 6e 65                	ld	a0, 216(sp)
ffffffff802037c4: a1 45                	addi	a1, zero, 8
ffffffff802037c6: 2e e6                	sd	a1, 264(sp)
ffffffff802037c8: aa f4                	sd	a0, 104(sp)
ffffffff802037ca: ae f0                	sd	a1, 96(sp)
ffffffff802037cc: 09 a0                	j	2
ffffffff802037ce: 26 75                	ld	a0, 104(sp)
ffffffff802037d0: 86 75                	ld	a1, 96(sp)
ffffffff802037d2: 33 06 b5 00          	add	a2, a0, a1
ffffffff802037d6: b2 ec                	sd	a2, 88(sp)
ffffffff802037d8: 63 6c a6 14          	bltu	a2, a0, 344
ffffffff802037dc: 09 a0                	j	2
ffffffff802037de: 2e 65                	ld	a0, 200(sp)
ffffffff802037e0: e6 65                	ld	a1, 88(sp)
ffffffff802037e2: 63 7c b5 00          	bgeu	a0, a1, 24
ffffffff802037e6: 09 a0                	j	2
ffffffff802037e8: 4e 65                	ld	a0, 208(sp)
ffffffff802037ea: ea 75                	ld	a1, 184(sp)
ffffffff802037ec: 03 b6 05 11          	ld	a2, 272(a1)
ffffffff802037f0: 32 95                	add	a0, a0, a2
ffffffff802037f2: aa e8                	sd	a0, 80(sp)
ffffffff802037f4: 63 61 c5 1e          	bltu	a0, a2, 482
ffffffff802037f8: 65 a8                	j	184
ffffffff802037fa: 6e 65                	ld	a0, 216(sp)
ffffffff802037fc: 81 45                	mv	a1, zero
ffffffff802037fe: 33 86 a5 40          	sub	a2, a1, a0
ffffffff80203802: aa e4                	sd	a0, 72(sp)
ffffffff80203804: b2 e0                	sd	a2, 64(sp)
ffffffff80203806: 63 03 b6 14          	beq	a2, a1, 326
ffffffff8020380a: 09 a0                	j	2
ffffffff8020380c: 26 65                	ld	a0, 72(sp)
ffffffff8020380e: 86 65                	ld	a1, 64(sp)
ffffffff80203810: 33 76 b5 00          	and	a2, a0, a1
ffffffff80203814: b2 f5                	sd	a2, 232(sp)
ffffffff80203816: ae 66                	ld	a3, 200(sp)
ffffffff80203818: 6e 67                	ld	a4, 216(sp)
ffffffff8020381a: 33 87 e6 40          	sub	a4, a3, a4
ffffffff8020381e: 32 fc                	sd	a2, 56(sp)
ffffffff80203820: 3a f8                	sd	a4, 48(sp)
ffffffff80203822: 63 e3 e6 14          	bltu	a3, a4, 326
ffffffff80203826: 09 a0                	j	2
ffffffff80203828: 42 75                	ld	a0, 48(sp)
ffffffff8020382a: 97 10 00 00          	auipc	ra, 1
ffffffff8020382e: e7 80 a0 b0          	jalr	-1270(ra)
ffffffff80203832: 2a f4                	sd	a0, 40(sp)
ffffffff80203834: 09 a0                	j	2
ffffffff80203836: 62 75                	ld	a0, 56(sp)
ffffffff80203838: a2 75                	ld	a1, 40(sp)
ffffffff8020383a: 97 20 00 00          	auipc	ra, 2
ffffffff8020383e: e7 80 20 fa          	jalr	-94(ra)
ffffffff80203842: aa 85                	add	a1, zero, a0
ffffffff80203844: aa f9                	sd	a0, 240(sp)
ffffffff80203846: 2e f0                	sd	a1, 32(sp)
ffffffff80203848: 09 a0                	j	2
ffffffff8020384a: 4e 65                	ld	a0, 208(sp)
ffffffff8020384c: 82 75                	ld	a1, 32(sp)
ffffffff8020384e: 33 06 b5 00          	add	a2, a0, a1
ffffffff80203852: 32 ec                	sd	a2, 24(sp)
ffffffff80203854: 63 69 a6 12          	bltu	a2, a0, 306
ffffffff80203858: 09 a0                	j	2
ffffffff8020385a: 62 65                	ld	a0, 24(sp)
ffffffff8020385c: aa e9                	sd	a0, 208(sp)
ffffffff8020385e: 02 75                	ld	a0, 32(sp)
ffffffff80203860: 97 10 00 00          	auipc	ra, 1
ffffffff80203864: e7 80 20 63          	jalr	1586(ra)
ffffffff80203868: 2a e8                	sd	a0, 16(sp)
ffffffff8020386a: 09 a0                	j	2
ffffffff8020386c: 42 65                	ld	a0, 16(sp)
ffffffff8020386e: 93 15 05 02          	slli	a1, a0, 32
ffffffff80203872: 81 91                	srli	a1, a1, 32
ffffffff80203874: 1b 06 05 00          	sext.w	a2, a0
ffffffff80203878: fd 46                	addi	a3, zero, 31
ffffffff8020387a: 2e e4                	sd	a1, 8(sp)
ffffffff8020387c: 63 e3 c6 12          	bltu	a3, a2, 294
ffffffff80203880: 09 a0                	j	2
ffffffff80203882: 22 65                	ld	a0, 8(sp)
ffffffff80203884: 93 15 35 00          	slli	a1, a0, 3
ffffffff80203888: 6a 76                	ld	a2, 184(sp)
ffffffff8020388a: 33 05 b6 00          	add	a0, a2, a1
ffffffff8020388e: ee 65                	ld	a1, 216(sp)
ffffffff80203890: 97 20 00 00          	auipc	ra, 2
ffffffff80203894: e7 80 00 3e          	jalr	992(ra)
ffffffff80203898: 09 a0                	j	2
ffffffff8020389a: 6e 65                	ld	a0, 216(sp)
ffffffff8020389c: 82 75                	ld	a1, 32(sp)
ffffffff8020389e: 33 06 b5 00          	add	a2, a0, a1
ffffffff802038a2: 32 e0                	sd	a2, 0(sp)
ffffffff802038a4: 63 6b a6 10          	bltu	a2, a0, 278
ffffffff802038a8: 09 a0                	j	2
ffffffff802038aa: 02 65                	ld	a0, 0(sp)
ffffffff802038ac: aa ed                	sd	a0, 216(sp)
ffffffff802038ae: 11 bf                	j	-236
ffffffff802038b0: 46 65                	ld	a0, 80(sp)
ffffffff802038b2: ea 75                	ld	a1, 184(sp)
ffffffff802038b4: 23 b8 a5 10          	sd	a0, 272(a1)
ffffffff802038b8: f2 60                	ld	ra, 280(sp)
ffffffff802038ba: 15 61                	addi	sp, sp, 288
ffffffff802038bc: 82 80                	ret

ffffffff802038be .LBB2_38:
ffffffff802038be: 17 85 00 00          	auipc	a0, 8
ffffffff802038c2: 13 05 25 74          	addi	a0, a0, 1858

ffffffff802038c6 .LBB2_39:
ffffffff802038c6: 17 86 00 00          	auipc	a2, 8
ffffffff802038ca: 13 06 a6 71          	addi	a2, a2, 1818
ffffffff802038ce: f1 45                	addi	a1, zero, 28
ffffffff802038d0: 97 50 00 00          	auipc	ra, 5
ffffffff802038d4: e7 80 80 f9          	jalr	-104(ra)
ffffffff802038d8: 00 00                	unimp	

ffffffff802038da .LBB2_40:
ffffffff802038da: 17 85 00 00          	auipc	a0, 8
ffffffff802038de: 13 05 65 76          	addi	a0, a0, 1894

ffffffff802038e2 .LBB2_41:
ffffffff802038e2: 17 86 00 00          	auipc	a2, 8
ffffffff802038e6: 13 06 e6 73          	addi	a2, a2, 1854
ffffffff802038ea: 93 05 10 02          	addi	a1, zero, 33
ffffffff802038ee: 97 50 00 00          	auipc	ra, 5
ffffffff802038f2: e7 80 a0 f7          	jalr	-134(ra)
ffffffff802038f6: 00 00                	unimp	

ffffffff802038f8 .LBB2_42:
ffffffff802038f8: 17 85 00 00          	auipc	a0, 8
ffffffff802038fc: 13 05 85 70          	addi	a0, a0, 1800

ffffffff80203900 .LBB2_43:
ffffffff80203900: 17 86 00 00          	auipc	a2, 8
ffffffff80203904: 13 06 86 76          	addi	a2, a2, 1896
ffffffff80203908: f1 45                	addi	a1, zero, 28
ffffffff8020390a: 97 50 00 00          	auipc	ra, 5
ffffffff8020390e: e7 80 e0 f5          	jalr	-162(ra)
ffffffff80203912: 00 00                	unimp	

ffffffff80203914 .LBB2_44:
ffffffff80203914: 17 85 00 00          	auipc	a0, 8
ffffffff80203918: 13 05 c5 6e          	addi	a0, a0, 1772

ffffffff8020391c .LBB2_45:
ffffffff8020391c: 17 86 00 00          	auipc	a2, 8
ffffffff80203920: 13 06 46 76          	addi	a2, a2, 1892
ffffffff80203924: f1 45                	addi	a1, zero, 28
ffffffff80203926: 97 50 00 00          	auipc	ra, 5
ffffffff8020392a: e7 80 20 f4          	jalr	-190(ra)
ffffffff8020392e: 00 00                	unimp	

ffffffff80203930 .LBB2_46:
ffffffff80203930: 17 85 00 00          	auipc	a0, 8
ffffffff80203934: 13 05 05 6d          	addi	a0, a0, 1744

ffffffff80203938 .LBB2_47:
ffffffff80203938: 17 86 00 00          	auipc	a2, 8
ffffffff8020393c: 13 06 86 79          	addi	a2, a2, 1944
ffffffff80203940: f1 45                	addi	a1, zero, 28
ffffffff80203942: 97 50 00 00          	auipc	ra, 5
ffffffff80203946: e7 80 60 f2          	jalr	-218(ra)
ffffffff8020394a: 00 00                	unimp	

ffffffff8020394c .LBB2_48:
ffffffff8020394c: 17 85 00 00          	auipc	a0, 8
ffffffff80203950: 13 05 45 6b          	addi	a0, a0, 1716

ffffffff80203954 .LBB2_49:
ffffffff80203954: 17 86 00 00          	auipc	a2, 8
ffffffff80203958: 13 06 46 79          	addi	a2, a2, 1940
ffffffff8020395c: f1 45                	addi	a1, zero, 28
ffffffff8020395e: 97 50 00 00          	auipc	ra, 5
ffffffff80203962: e7 80 a0 f0          	jalr	-246(ra)
ffffffff80203966: 00 00                	unimp	

ffffffff80203968 .LBB2_50:
ffffffff80203968: 17 85 00 00          	auipc	a0, 8
ffffffff8020396c: 13 05 85 6d          	addi	a0, a0, 1752

ffffffff80203970 .LBB2_51:
ffffffff80203970: 17 86 00 00          	auipc	a2, 8
ffffffff80203974: 13 06 06 79          	addi	a2, a2, 1936
ffffffff80203978: 93 05 10 02          	addi	a1, zero, 33
ffffffff8020397c: 97 50 00 00          	auipc	ra, 5
ffffffff80203980: e7 80 c0 ee          	jalr	-276(ra)
ffffffff80203984: 00 00                	unimp	

ffffffff80203986 .LBB2_52:
ffffffff80203986: 17 85 00 00          	auipc	a0, 8
ffffffff8020398a: 13 05 a5 67          	addi	a0, a0, 1658

ffffffff8020398e .LBB2_53:
ffffffff8020398e: 17 86 00 00          	auipc	a2, 8
ffffffff80203992: 13 06 a6 78          	addi	a2, a2, 1930
ffffffff80203996: f1 45                	addi	a1, zero, 28
ffffffff80203998: 97 50 00 00          	auipc	ra, 5
ffffffff8020399c: e7 80 00 ed          	jalr	-304(ra)
ffffffff802039a0: 00 00                	unimp	

ffffffff802039a2 .LBB2_54:
ffffffff802039a2: 17 86 00 00          	auipc	a2, 8
ffffffff802039a6: 13 06 e6 78          	addi	a2, a2, 1934
ffffffff802039aa: 93 05 00 02          	addi	a1, zero, 32
ffffffff802039ae: 22 65                	ld	a0, 8(sp)
ffffffff802039b0: 97 50 00 00          	auipc	ra, 5
ffffffff802039b4: e7 80 40 ee          	jalr	-284(ra)
ffffffff802039b8: 00 00                	unimp	

ffffffff802039ba .LBB2_55:
ffffffff802039ba: 17 85 00 00          	auipc	a0, 8
ffffffff802039be: 13 05 65 64          	addi	a0, a0, 1606

ffffffff802039c2 .LBB2_56:
ffffffff802039c2: 17 86 00 00          	auipc	a2, 8
ffffffff802039c6: 13 06 66 78          	addi	a2, a2, 1926
ffffffff802039ca: f1 45                	addi	a1, zero, 28
ffffffff802039cc: 97 50 00 00          	auipc	ra, 5
ffffffff802039d0: e7 80 c0 e9          	jalr	-356(ra)
ffffffff802039d4: 00 00                	unimp	

ffffffff802039d6 .LBB2_57:
ffffffff802039d6: 17 85 00 00          	auipc	a0, 8
ffffffff802039da: 13 05 a5 62          	addi	a0, a0, 1578

ffffffff802039de .LBB2_58:
ffffffff802039de: 17 86 00 00          	auipc	a2, 8
ffffffff802039e2: 13 06 26 78          	addi	a2, a2, 1922
ffffffff802039e6: f1 45                	addi	a1, zero, 28
ffffffff802039e8: 97 50 00 00          	auipc	ra, 5
ffffffff802039ec: e7 80 00 e8          	jalr	-384(ra)
ffffffff802039f0: 00 00                	unimp	

ffffffff802039f2 _ZN22buddy_system_allocator4Heap4init17hc621cb9da7a66e7fE:
ffffffff802039f2: 39 71                	addi	sp, sp, -64
ffffffff802039f4: 06 fc                	sd	ra, 56(sp)
ffffffff802039f6: 2a f0                	sd	a0, 32(sp)
ffffffff802039f8: 2e f4                	sd	a1, 40(sp)
ffffffff802039fa: 32 f8                	sd	a2, 48(sp)
ffffffff802039fc: 2e 96                	add	a2, a2, a1
ffffffff802039fe: 2e ec                	sd	a1, 24(sp)
ffffffff80203a00: 2a e8                	sd	a0, 16(sp)
ffffffff80203a02: 32 e4                	sd	a2, 8(sp)
ffffffff80203a04: 63 6e b6 00          	bltu	a2, a1, 28
ffffffff80203a08: 09 a0                	j	2
ffffffff80203a0a: 42 65                	ld	a0, 16(sp)
ffffffff80203a0c: e2 65                	ld	a1, 24(sp)
ffffffff80203a0e: 22 66                	ld	a2, 8(sp)
ffffffff80203a10: 97 00 00 00          	auipc	ra, 0
ffffffff80203a14: e7 80 80 d0          	jalr	-760(ra)
ffffffff80203a18: 09 a0                	j	2
ffffffff80203a1a: e2 70                	ld	ra, 56(sp)
ffffffff80203a1c: 21 61                	addi	sp, sp, 64
ffffffff80203a1e: 82 80                	ret

ffffffff80203a20 .LBB3_4:
ffffffff80203a20: 17 85 00 00          	auipc	a0, 8
ffffffff80203a24: 13 05 05 5e          	addi	a0, a0, 1504

ffffffff80203a28 .LBB3_5:
ffffffff80203a28: 17 86 00 00          	auipc	a2, 8
ffffffff80203a2c: 13 06 06 75          	addi	a2, a2, 1872
ffffffff80203a30: f1 45                	addi	a1, zero, 28
ffffffff80203a32: 97 50 00 00          	auipc	ra, 5
ffffffff80203a36: e7 80 60 e3          	jalr	-458(ra)
ffffffff80203a3a: 00 00                	unimp	

ffffffff80203a3c _ZN22buddy_system_allocator4Heap5alloc17h49b86f52cfc33c1dE:
ffffffff80203a3c: 13 01 01 de          	addi	sp, sp, -544
ffffffff80203a40: 23 3c 11 20          	sd	ra, 536(sp)
ffffffff80203a44: 2e f6                	sd	a1, 296(sp)
ffffffff80203a46: 32 fa                	sd	a2, 304(sp)
ffffffff80203a48: 2a ff                	sd	a0, 440(sp)
ffffffff80203a4a: 2c 12                	addi	a1, sp, 296
ffffffff80203a4c: 2a f2                	sd	a0, 288(sp)
ffffffff80203a4e: 2e 85                	add	a0, zero, a1
ffffffff80203a50: 97 10 00 00          	auipc	ra, 1
ffffffff80203a54: e7 80 20 2a          	jalr	674(ra)
ffffffff80203a58: 2a ee                	sd	a0, 280(sp)
ffffffff80203a5a: 09 a0                	j	2
ffffffff80203a5c: 72 65                	ld	a0, 280(sp)
ffffffff80203a5e: 97 10 00 00          	auipc	ra, 1
ffffffff80203a62: e7 80 e0 4f          	jalr	1278(ra)
ffffffff80203a66: 2a ea                	sd	a0, 272(sp)
ffffffff80203a68: 09 a0                	j	2
ffffffff80203a6a: 28 12                	addi	a0, sp, 296
ffffffff80203a6c: 97 10 00 00          	auipc	ra, 1
ffffffff80203a70: e7 80 00 29          	jalr	656(ra)
ffffffff80203a74: 2a e6                	sd	a0, 264(sp)
ffffffff80203a76: 09 a0                	j	2
ffffffff80203a78: 21 45                	addi	a0, zero, 8
ffffffff80203a7a: 23 38 a1 20          	sd	a0, 528(sp)
ffffffff80203a7e: 2a e2                	sd	a0, 256(sp)
ffffffff80203a80: 09 a0                	j	2
ffffffff80203a82: 32 65                	ld	a0, 264(sp)
ffffffff80203a84: 92 65                	ld	a1, 256(sp)
ffffffff80203a86: 97 20 00 00          	auipc	ra, 2
ffffffff80203a8a: e7 80 a0 d3          	jalr	-710(ra)
ffffffff80203a8e: aa fd                	sd	a0, 248(sp)
ffffffff80203a90: 09 a0                	j	2
ffffffff80203a92: 52 65                	ld	a0, 272(sp)
ffffffff80203a94: ee 75                	ld	a1, 248(sp)
ffffffff80203a96: 97 20 00 00          	auipc	ra, 2
ffffffff80203a9a: e7 80 a0 d2          	jalr	-726(ra)
ffffffff80203a9e: aa 85                	add	a1, zero, a0
ffffffff80203aa0: aa e3                	sd	a0, 448(sp)
ffffffff80203aa2: ae f9                	sd	a1, 240(sp)
ffffffff80203aa4: 09 a0                	j	2
ffffffff80203aa6: 4e 75                	ld	a0, 240(sp)
ffffffff80203aa8: 97 10 00 00          	auipc	ra, 1
ffffffff80203aac: e7 80 a0 3e          	jalr	1002(ra)
ffffffff80203ab0: aa f5                	sd	a0, 232(sp)
ffffffff80203ab2: 09 a0                	j	2
ffffffff80203ab4: 2e 75                	ld	a0, 232(sp)
ffffffff80203ab6: 93 15 05 02          	slli	a1, a0, 32
ffffffff80203aba: 81 91                	srli	a1, a1, 32
ffffffff80203abc: ae e7                	sd	a1, 456(sp)
ffffffff80203abe: 13 06 00 02          	addi	a2, zero, 32
ffffffff80203ac2: 12 75                	ld	a0, 288(sp)
ffffffff80203ac4: ae f1                	sd	a1, 224(sp)
ffffffff80203ac6: b2 85                	add	a1, zero, a2
ffffffff80203ac8: 97 20 00 00          	auipc	ra, 2
ffffffff80203acc: e7 80 c0 13          	jalr	316(ra)
ffffffff80203ad0: aa ed                	sd	a0, 216(sp)
ffffffff80203ad2: 09 a0                	j	2
ffffffff80203ad4: 0e 75                	ld	a0, 224(sp)
ffffffff80203ad6: aa e2                	sd	a0, 320(sp)
ffffffff80203ad8: ee 65                	ld	a1, 216(sp)
ffffffff80203ada: ae e6                	sd	a1, 328(sp)
ffffffff80203adc: 97 10 00 00          	auipc	ra, 1
ffffffff80203ae0: e7 80 c0 6a          	jalr	1708(ra)
ffffffff80203ae4: aa e9                	sd	a0, 208(sp)
ffffffff80203ae6: ae e5                	sd	a1, 200(sp)
ffffffff80203ae8: 09 a0                	j	2
ffffffff80203aea: 4e 65                	ld	a0, 208(sp)
ffffffff80203aec: aa ea                	sd	a0, 336(sp)
ffffffff80203aee: ae 65                	ld	a1, 200(sp)
ffffffff80203af0: ae ee                	sd	a1, 344(sp)
ffffffff80203af2: 09 a0                	j	2
ffffffff80203af4: 88 0a                	addi	a0, sp, 336
ffffffff80203af6: 97 10 00 00          	auipc	ra, 1
ffffffff80203afa: e7 80 a0 58          	jalr	1418(ra)
ffffffff80203afe: aa f2                	sd	a0, 352(sp)
ffffffff80203b00: ae f6                	sd	a1, 360(sp)
ffffffff80203b02: 09 a0                	j	2
ffffffff80203b04: 16 75                	ld	a0, 352(sp)
ffffffff80203b06: 81 45                	mv	a1, zero
ffffffff80203b08: 63 04 b5 00          	beq	a0, a1, 8
ffffffff80203b0c: 09 a0                	j	2
ffffffff80203b0e: 29 a0                	j	10
ffffffff80203b10: 01 45                	mv	a0, zero
ffffffff80203b12: 2a fe                	sd	a0, 312(sp)
ffffffff80203b14: 59 aa                	j	406
ffffffff80203b16: 00 00                	unimp	
ffffffff80203b18: 36 75                	ld	a0, 360(sp)
ffffffff80203b1a: aa eb                	sd	a0, 464(sp)
ffffffff80203b1c: aa ef                	sd	a0, 472(sp)
ffffffff80203b1e: aa f3                	sd	a0, 480(sp)
ffffffff80203b20: fd 45                	addi	a1, zero, 31
ffffffff80203b22: aa e1                	sd	a0, 192(sp)
ffffffff80203b24: 63 e3 a5 24          	bltu	a1, a0, 582
ffffffff80203b28: 09 a0                	j	2
ffffffff80203b2a: 0e 65                	ld	a0, 192(sp)
ffffffff80203b2c: 93 15 35 00          	slli	a1, a0, 3
ffffffff80203b30: 12 76                	ld	a2, 288(sp)
ffffffff80203b32: 33 05 b6 00          	add	a0, a2, a1
ffffffff80203b36: 97 20 00 00          	auipc	ra, 2
ffffffff80203b3a: e7 80 e0 11          	jalr	286(ra)
ffffffff80203b3e: 2a fd                	sd	a0, 184(sp)
ffffffff80203b40: 09 a0                	j	2
ffffffff80203b42: 01 45                	mv	a0, zero
ffffffff80203b44: ea 75                	ld	a1, 184(sp)
ffffffff80203b46: 63 84 a5 00          	beq	a1, a0, 8
ffffffff80203b4a: 09 a0                	j	2
ffffffff80203b4c: 65 b7                	j	-88
ffffffff80203b4e: 0e 75                	ld	a0, 224(sp)
ffffffff80203b50: 93 05 15 00          	addi	a1, a0, 1
ffffffff80203b54: 01 46                	mv	a2, zero
ffffffff80203b56: 2e f9                	sd	a1, 176(sp)
ffffffff80203b58: 63 15 06 22          	bnez	a2, 554
ffffffff80203b5c: 09 a0                	j	2
ffffffff80203b5e: 0e 65                	ld	a0, 192(sp)
ffffffff80203b60: 93 05 15 00          	addi	a1, a0, 1
ffffffff80203b64: 2e f5                	sd	a1, 168(sp)
ffffffff80203b66: 63 ec a5 22          	bltu	a1, a0, 568
ffffffff80203b6a: 09 a0                	j	2
ffffffff80203b6c: 4a 75                	ld	a0, 176(sp)
ffffffff80203b6e: aa fa                	sd	a0, 368(sp)
ffffffff80203b70: aa 75                	ld	a1, 168(sp)
ffffffff80203b72: ae fe                	sd	a1, 376(sp)
ffffffff80203b74: 97 10 00 00          	auipc	ra, 1
ffffffff80203b78: e7 80 60 5e          	jalr	1510(ra)
ffffffff80203b7c: 2a f1                	sd	a0, 160(sp)
ffffffff80203b7e: 2e ed                	sd	a1, 152(sp)
ffffffff80203b80: 09 a0                	j	2
ffffffff80203b82: 0a 75                	ld	a0, 160(sp)
ffffffff80203b84: ea 65                	ld	a1, 152(sp)
ffffffff80203b86: 97 10 00 00          	auipc	ra, 1
ffffffff80203b8a: e7 80 c0 60          	jalr	1548(ra)
ffffffff80203b8e: 2a e9                	sd	a0, 144(sp)
ffffffff80203b90: 2e e5                	sd	a1, 136(sp)
ffffffff80203b92: 09 a0                	j	2
ffffffff80203b94: 4a 65                	ld	a0, 144(sp)
ffffffff80203b96: 2a e3                	sd	a0, 384(sp)
ffffffff80203b98: aa 65                	ld	a1, 136(sp)
ffffffff80203b9a: 2e e7                	sd	a1, 392(sp)
ffffffff80203b9c: 09 a0                	j	2
ffffffff80203b9e: 08 03                	addi	a0, sp, 384
ffffffff80203ba0: 97 10 00 00          	auipc	ra, 1
ffffffff80203ba4: e7 80 c0 5f          	jalr	1532(ra)
ffffffff80203ba8: 2a eb                	sd	a0, 400(sp)
ffffffff80203baa: 2e ef                	sd	a1, 408(sp)
ffffffff80203bac: 09 a0                	j	2
ffffffff80203bae: 5a 65                	ld	a0, 400(sp)
ffffffff80203bb0: 81 45                	mv	a1, zero
ffffffff80203bb2: 63 04 b5 00          	beq	a0, a1, 8
ffffffff80203bb6: 09 a0                	j	2
ffffffff80203bb8: 01 a8                	j	16
ffffffff80203bba: 13 05 00 02          	addi	a0, zero, 32
ffffffff80203bbe: 8e 75                	ld	a1, 224(sp)
ffffffff80203bc0: 63 ec a5 0e          	bltu	a1, a0, 248
ffffffff80203bc4: c9 ac                	j	722
ffffffff80203bc6: 00 00                	unimp	
ffffffff80203bc8: 7a 65                	ld	a0, 408(sp)
ffffffff80203bca: aa f7                	sd	a0, 488(sp)
ffffffff80203bcc: aa fb                	sd	a0, 496(sp)
ffffffff80203bce: aa ff                	sd	a0, 504(sp)
ffffffff80203bd0: fd 45                	addi	a1, zero, 31
ffffffff80203bd2: 2a e1                	sd	a0, 128(sp)
ffffffff80203bd4: 63 e3 a5 1e          	bltu	a1, a0, 486
ffffffff80203bd8: 09 a0                	j	2
ffffffff80203bda: 0a 65                	ld	a0, 128(sp)
ffffffff80203bdc: 93 15 35 00          	slli	a1, a0, 3
ffffffff80203be0: 12 76                	ld	a2, 288(sp)
ffffffff80203be2: 33 05 b6 00          	add	a0, a2, a1
ffffffff80203be6: 97 20 00 00          	auipc	ra, 2
ffffffff80203bea: e7 80 a0 09          	jalr	154(ra)
ffffffff80203bee: 2a f3                	sd	a0, 416(sp)
ffffffff80203bf0: 2e f7                	sd	a1, 424(sp)
ffffffff80203bf2: 09 a0                	j	2
ffffffff80203bf4: 1a 75                	ld	a0, 416(sp)
ffffffff80203bf6: 85 45                	addi	a1, zero, 1
ffffffff80203bf8: 63 06 b5 00          	beq	a0, a1, 12
ffffffff80203bfc: 09 a0                	j	2
ffffffff80203bfe: 01 45                	mv	a0, zero
ffffffff80203c00: 2a fe                	sd	a0, 312(sp)
ffffffff80203c02: 55 a8                	j	180
ffffffff80203c04: 3a 75                	ld	a0, 424(sp)
ffffffff80203c06: 23 30 a1 20          	sd	a0, 512(sp)
ffffffff80203c0a: 8a 65                	ld	a1, 128(sp)
ffffffff80203c0c: 13 86 f5 ff          	addi	a2, a1, -1
ffffffff80203c10: aa fc                	sd	a0, 120(sp)
ffffffff80203c12: b2 f8                	sd	a2, 112(sp)
ffffffff80203c14: 63 ef c5 1a          	bltu	a1, a2, 446
ffffffff80203c18: 09 a0                	j	2
ffffffff80203c1a: 7d 45                	addi	a0, zero, 31
ffffffff80203c1c: c6 75                	ld	a1, 112(sp)
ffffffff80203c1e: 63 69 b5 1c          	bltu	a0, a1, 466
ffffffff80203c22: 09 a0                	j	2
ffffffff80203c24: 46 75                	ld	a0, 112(sp)
ffffffff80203c26: 93 15 35 00          	slli	a1, a0, 3
ffffffff80203c2a: 12 76                	ld	a2, 288(sp)
ffffffff80203c2c: 33 05 b6 00          	add	a0, a2, a1
ffffffff80203c30: e6 75                	ld	a1, 120(sp)
ffffffff80203c32: 8a 66                	ld	a3, 128(sp)
ffffffff80203c34: 13 87 f6 ff          	addi	a4, a3, -1
ffffffff80203c38: aa f4                	sd	a0, 104(sp)
ffffffff80203c3a: ae f0                	sd	a1, 96(sp)
ffffffff80203c3c: ba ec                	sd	a4, 88(sp)
ffffffff80203c3e: 63 e5 e6 1c          	bltu	a3, a4, 458
ffffffff80203c42: 09 a0                	j	2
ffffffff80203c44: 66 65                	ld	a0, 88(sp)
ffffffff80203c46: 93 75 05 fc          	andi	a1, a0, -64
ffffffff80203c4a: 05 46                	addi	a2, zero, 1
ffffffff80203c4c: 33 16 a6 00          	sll	a2, a2, a0
ffffffff80203c50: 81 46                	mv	a3, zero
ffffffff80203c52: b2 e8                	sd	a2, 80(sp)
ffffffff80203c54: 63 99 d5 1c          	bne	a1, a3, 466
ffffffff80203c58: 09 a0                	j	2
ffffffff80203c5a: 06 75                	ld	a0, 96(sp)
ffffffff80203c5c: c6 65                	ld	a1, 80(sp)
ffffffff80203c5e: 33 06 b5 00          	add	a2, a0, a1
ffffffff80203c62: b2 e4                	sd	a2, 72(sp)
ffffffff80203c64: 63 60 a6 1e          	bltu	a2, a0, 480
ffffffff80203c68: 09 a0                	j	2
ffffffff80203c6a: 26 75                	ld	a0, 104(sp)
ffffffff80203c6c: a6 65                	ld	a1, 72(sp)
ffffffff80203c6e: 97 20 00 00          	auipc	ra, 2
ffffffff80203c72: e7 80 20 00          	jalr	2(ra)
ffffffff80203c76: 09 a0                	j	2
ffffffff80203c78: 0a 65                	ld	a0, 128(sp)
ffffffff80203c7a: 93 05 f5 ff          	addi	a1, a0, -1
ffffffff80203c7e: ae e0                	sd	a1, 64(sp)
ffffffff80203c80: 63 60 b5 1e          	bltu	a0, a1, 480
ffffffff80203c84: 09 a0                	j	2
ffffffff80203c86: 7d 45                	addi	a0, zero, 31
ffffffff80203c88: 86 65                	ld	a1, 64(sp)
ffffffff80203c8a: 63 6a b5 1e          	bltu	a0, a1, 500
ffffffff80203c8e: 09 a0                	j	2
ffffffff80203c90: 06 65                	ld	a0, 64(sp)
ffffffff80203c92: 93 15 35 00          	slli	a1, a0, 3
ffffffff80203c96: 12 76                	ld	a2, 288(sp)
ffffffff80203c98: 33 05 b6 00          	add	a0, a2, a1
ffffffff80203c9c: e6 75                	ld	a1, 120(sp)
ffffffff80203c9e: 97 20 00 00          	auipc	ra, 2
ffffffff80203ca2: e7 80 20 fd          	jalr	-46(ra)
ffffffff80203ca6: 09 a0                	j	2
ffffffff80203ca8: dd bd                	j	-266
ffffffff80203caa: 72 75                	ld	a0, 312(sp)
ffffffff80203cac: 83 30 81 21          	ld	ra, 536(sp)
ffffffff80203cb0: 13 01 01 22          	addi	sp, sp, 544
ffffffff80203cb4: 82 80                	ret
ffffffff80203cb6: d5 bf                	j	-12
ffffffff80203cb8: 0e 75                	ld	a0, 224(sp)
ffffffff80203cba: 93 15 35 00          	slli	a1, a0, 3
ffffffff80203cbe: 12 76                	ld	a2, 288(sp)
ffffffff80203cc0: 33 05 b6 00          	add	a0, a2, a1
ffffffff80203cc4: 97 20 00 00          	auipc	ra, 2
ffffffff80203cc8: e7 80 c0 fb          	jalr	-68(ra)
ffffffff80203ccc: 2a fc                	sd	a0, 56(sp)
ffffffff80203cce: 2e f8                	sd	a1, 48(sp)
ffffffff80203cd0: 09 a0                	j	2

ffffffff80203cd2 .LBB4_69:
ffffffff80203cd2: 17 86 00 00          	auipc	a2, 8
ffffffff80203cd6: 13 06 66 60          	addi	a2, a2, 1542

ffffffff80203cda .LBB4_70:
ffffffff80203cda: 17 87 00 00          	auipc	a4, 8
ffffffff80203cde: 13 07 67 62          	addi	a4, a4, 1574
ffffffff80203ce2: 93 06 80 02          	addi	a3, zero, 40
ffffffff80203ce6: 62 75                	ld	a0, 56(sp)
ffffffff80203ce8: c2 75                	ld	a1, 48(sp)
ffffffff80203cea: 97 20 00 00          	auipc	ra, 2
ffffffff80203cee: e7 80 20 cc          	jalr	-830(ra)
ffffffff80203cf2: 2a f4                	sd	a0, 40(sp)
ffffffff80203cf4: 09 a0                	j	2
ffffffff80203cf6: 22 75                	ld	a0, 40(sp)
ffffffff80203cf8: 97 10 00 00          	auipc	ra, 1
ffffffff80203cfc: e7 80 00 64          	jalr	1600(ra)
ffffffff80203d00: 2a fb                	sd	a0, 432(sp)
ffffffff80203d02: 09 a0                	j	2
ffffffff80203d04: 5a 75                	ld	a0, 432(sp)
ffffffff80203d06: 81 45                	mv	a1, zero
ffffffff80203d08: 63 16 b5 00          	bne	a0, a1, 12
ffffffff80203d0c: 09 a0                	j	2
ffffffff80203d0e: 01 45                	mv	a0, zero
ffffffff80203d10: 2a fe                	sd	a0, 312(sp)
ffffffff80203d12: 99 a8                	j	86
ffffffff80203d14: 5a 75                	ld	a0, 432(sp)
ffffffff80203d16: 23 34 a1 20          	sd	a0, 520(sp)
ffffffff80203d1a: 2c 12                	addi	a1, sp, 296
ffffffff80203d1c: 2a f0                	sd	a0, 32(sp)
ffffffff80203d1e: 2e 85                	add	a0, zero, a1
ffffffff80203d20: 97 10 00 00          	auipc	ra, 1
ffffffff80203d24: e7 80 20 fd          	jalr	-46(ra)
ffffffff80203d28: 2a ec                	sd	a0, 24(sp)
ffffffff80203d2a: 09 a0                	j	2
ffffffff80203d2c: 12 75                	ld	a0, 288(sp)
ffffffff80203d2e: 83 35 05 10          	ld	a1, 256(a0)
ffffffff80203d32: 62 66                	ld	a2, 24(sp)
ffffffff80203d34: b3 86 c5 00          	add	a3, a1, a2
ffffffff80203d38: 36 e8                	sd	a3, 16(sp)
ffffffff80203d3a: 63 ea b6 16          	bltu	a3, a1, 372
ffffffff80203d3e: 09 a0                	j	2
ffffffff80203d40: 42 65                	ld	a0, 16(sp)
ffffffff80203d42: 92 75                	ld	a1, 288(sp)
ffffffff80203d44: 23 b0 a5 10          	sd	a0, 256(a1)
ffffffff80203d48: 03 b6 85 10          	ld	a2, 264(a1)
ffffffff80203d4c: ce 76                	ld	a3, 240(sp)
ffffffff80203d4e: 33 07 d6 00          	add	a4, a2, a3
ffffffff80203d52: 3a e4                	sd	a4, 8(sp)
ffffffff80203d54: 63 6b c7 16          	bltu	a4, a2, 374
ffffffff80203d58: 09 a0                	j	2
ffffffff80203d5a: 22 65                	ld	a0, 8(sp)
ffffffff80203d5c: 92 75                	ld	a1, 288(sp)
ffffffff80203d5e: 23 b4 a5 10          	sd	a0, 264(a1)
ffffffff80203d62: 02 76                	ld	a2, 32(sp)
ffffffff80203d64: 32 fe                	sd	a2, 312(sp)
ffffffff80203d66: 09 a0                	j	2
ffffffff80203d68: b9 b7                	j	-178

ffffffff80203d6a .LBB4_71:
ffffffff80203d6a: 17 86 00 00          	auipc	a2, 8
ffffffff80203d6e: 13 06 66 42          	addi	a2, a2, 1062
ffffffff80203d72: 93 05 00 02          	addi	a1, zero, 32
ffffffff80203d76: 0e 65                	ld	a0, 192(sp)
ffffffff80203d78: 97 50 00 00          	auipc	ra, 5
ffffffff80203d7c: e7 80 c0 b1          	jalr	-1252(ra)
ffffffff80203d80: 00 00                	unimp	

ffffffff80203d82 .LBB4_72:
ffffffff80203d82: 17 85 00 00          	auipc	a0, 8
ffffffff80203d86: 13 05 e5 27          	addi	a0, a0, 638

ffffffff80203d8a .LBB4_73:
ffffffff80203d8a: 17 86 00 00          	auipc	a2, 8
ffffffff80203d8e: 13 06 e6 41          	addi	a2, a2, 1054
ffffffff80203d92: f1 45                	addi	a1, zero, 28
ffffffff80203d94: 97 50 00 00          	auipc	ra, 5
ffffffff80203d98: e7 80 40 ad          	jalr	-1324(ra)
ffffffff80203d9c: 00 00                	unimp	

ffffffff80203d9e .LBB4_74:
ffffffff80203d9e: 17 85 00 00          	auipc	a0, 8
ffffffff80203da2: 13 05 25 26          	addi	a0, a0, 610

ffffffff80203da6 .LBB4_75:
ffffffff80203da6: 17 86 00 00          	auipc	a2, 8
ffffffff80203daa: 13 06 a6 41          	addi	a2, a2, 1050
ffffffff80203dae: f1 45                	addi	a1, zero, 28
ffffffff80203db0: 97 50 00 00          	auipc	ra, 5
ffffffff80203db4: e7 80 80 ab          	jalr	-1352(ra)
ffffffff80203db8: 00 00                	unimp	

ffffffff80203dba .LBB4_76:
ffffffff80203dba: 17 86 00 00          	auipc	a2, 8
ffffffff80203dbe: 13 06 e6 41          	addi	a2, a2, 1054
ffffffff80203dc2: 93 05 00 02          	addi	a1, zero, 32
ffffffff80203dc6: 0a 65                	ld	a0, 128(sp)
ffffffff80203dc8: 97 50 00 00          	auipc	ra, 5
ffffffff80203dcc: e7 80 c0 ac          	jalr	-1332(ra)
ffffffff80203dd0: 00 00                	unimp	

ffffffff80203dd2 .LBB4_77:
ffffffff80203dd2: 17 85 00 00          	auipc	a0, 8
ffffffff80203dd6: 13 05 e5 26          	addi	a0, a0, 622

ffffffff80203dda .LBB4_78:
ffffffff80203dda: 17 86 00 00          	auipc	a2, 8
ffffffff80203dde: 13 06 66 41          	addi	a2, a2, 1046
ffffffff80203de2: 93 05 10 02          	addi	a1, zero, 33
ffffffff80203de6: 97 50 00 00          	auipc	ra, 5
ffffffff80203dea: e7 80 20 a8          	jalr	-1406(ra)
ffffffff80203dee: 00 00                	unimp	

ffffffff80203df0 .LBB4_79:
ffffffff80203df0: 17 86 00 00          	auipc	a2, 8
ffffffff80203df4: 13 06 86 41          	addi	a2, a2, 1048
ffffffff80203df8: 93 05 00 02          	addi	a1, zero, 32
ffffffff80203dfc: 46 75                	ld	a0, 112(sp)
ffffffff80203dfe: 97 50 00 00          	auipc	ra, 5
ffffffff80203e02: e7 80 60 a9          	jalr	-1386(ra)
ffffffff80203e06: 00 00                	unimp	

ffffffff80203e08 .LBB4_80:
ffffffff80203e08: 17 85 00 00          	auipc	a0, 8
ffffffff80203e0c: 13 05 85 23          	addi	a0, a0, 568

ffffffff80203e10 .LBB4_81:
ffffffff80203e10: 17 86 00 00          	auipc	a2, 8
ffffffff80203e14: 13 06 06 41          	addi	a2, a2, 1040
ffffffff80203e18: 93 05 10 02          	addi	a1, zero, 33
ffffffff80203e1c: 97 50 00 00          	auipc	ra, 5
ffffffff80203e20: e7 80 c0 a4          	jalr	-1460(ra)
ffffffff80203e24: 00 00                	unimp	

ffffffff80203e26 .LBB4_82:
ffffffff80203e26: 17 85 00 00          	auipc	a0, 8
ffffffff80203e2a: 13 05 a5 42          	addi	a0, a0, 1066

ffffffff80203e2e .LBB4_83:
ffffffff80203e2e: 17 86 00 00          	auipc	a2, 8
ffffffff80203e32: 13 06 a6 40          	addi	a2, a2, 1034
ffffffff80203e36: 93 05 30 02          	addi	a1, zero, 35
ffffffff80203e3a: 97 50 00 00          	auipc	ra, 5
ffffffff80203e3e: e7 80 e0 a2          	jalr	-1490(ra)
ffffffff80203e42: 00 00                	unimp	

ffffffff80203e44 .LBB4_84:
ffffffff80203e44: 17 85 00 00          	auipc	a0, 8
ffffffff80203e48: 13 05 c5 1b          	addi	a0, a0, 444

ffffffff80203e4c .LBB4_85:
ffffffff80203e4c: 17 86 00 00          	auipc	a2, 8
ffffffff80203e50: 13 06 c6 42          	addi	a2, a2, 1068
ffffffff80203e54: f1 45                	addi	a1, zero, 28
ffffffff80203e56: 97 50 00 00          	auipc	ra, 5
ffffffff80203e5a: e7 80 20 a1          	jalr	-1518(ra)
ffffffff80203e5e: 00 00                	unimp	

ffffffff80203e60 .LBB4_86:
ffffffff80203e60: 17 85 00 00          	auipc	a0, 8
ffffffff80203e64: 13 05 05 1e          	addi	a0, a0, 480

ffffffff80203e68 .LBB4_87:
ffffffff80203e68: 17 86 00 00          	auipc	a2, 8
ffffffff80203e6c: 13 06 86 42          	addi	a2, a2, 1064
ffffffff80203e70: 93 05 10 02          	addi	a1, zero, 33
ffffffff80203e74: 97 50 00 00          	auipc	ra, 5
ffffffff80203e78: e7 80 40 9f          	jalr	-1548(ra)
ffffffff80203e7c: 00 00                	unimp	

ffffffff80203e7e .LBB4_88:
ffffffff80203e7e: 17 86 00 00          	auipc	a2, 8
ffffffff80203e82: 13 06 a6 42          	addi	a2, a2, 1066
ffffffff80203e86: 93 05 00 02          	addi	a1, zero, 32
ffffffff80203e8a: 06 65                	ld	a0, 64(sp)
ffffffff80203e8c: 97 50 00 00          	auipc	ra, 5
ffffffff80203e90: e7 80 80 a0          	jalr	-1528(ra)
ffffffff80203e94: 00 00                	unimp	

ffffffff80203e96 .LBB4_89:
ffffffff80203e96: 17 86 00 00          	auipc	a2, 8
ffffffff80203e9a: 13 06 a6 42          	addi	a2, a2, 1066
ffffffff80203e9e: 93 05 00 02          	addi	a1, zero, 32
ffffffff80203ea2: 0e 75                	ld	a0, 224(sp)
ffffffff80203ea4: 97 50 00 00          	auipc	ra, 5
ffffffff80203ea8: e7 80 00 9f          	jalr	-1552(ra)
ffffffff80203eac: 00 00                	unimp	

ffffffff80203eae .LBB4_90:
ffffffff80203eae: 17 85 00 00          	auipc	a0, 8
ffffffff80203eb2: 13 05 25 15          	addi	a0, a0, 338

ffffffff80203eb6 .LBB4_91:
ffffffff80203eb6: 17 86 00 00          	auipc	a2, 8
ffffffff80203eba: 13 06 26 46          	addi	a2, a2, 1122
ffffffff80203ebe: f1 45                	addi	a1, zero, 28
ffffffff80203ec0: 97 50 00 00          	auipc	ra, 5
ffffffff80203ec4: e7 80 80 9a          	jalr	-1624(ra)
ffffffff80203ec8: 00 00                	unimp	

ffffffff80203eca .LBB4_92:
ffffffff80203eca: 17 85 00 00          	auipc	a0, 8
ffffffff80203ece: 13 05 65 13          	addi	a0, a0, 310

ffffffff80203ed2 .LBB4_93:
ffffffff80203ed2: 17 86 00 00          	auipc	a2, 8
ffffffff80203ed6: 13 06 e6 45          	addi	a2, a2, 1118
ffffffff80203eda: f1 45                	addi	a1, zero, 28
ffffffff80203edc: 97 50 00 00          	auipc	ra, 5
ffffffff80203ee0: e7 80 c0 98          	jalr	-1652(ra)
ffffffff80203ee4: 00 00                	unimp	

ffffffff80203ee6 _ZN22buddy_system_allocator4Heap7dealloc17h5b8acefc215957e2E:
ffffffff80203ee6: 45 71                	addi	sp, sp, -464
ffffffff80203ee8: 86 e7                	sd	ra, 456(sp)
ffffffff80203eea: b2 f1                	sd	a2, 224(sp)
ffffffff80203eec: b6 f5                	sd	a3, 232(sp)
ffffffff80203eee: aa fe                	sd	a0, 376(sp)
ffffffff80203ef0: 2e e3                	sd	a1, 384(sp)
ffffffff80203ef2: 90 11                	addi	a2, sp, 224
ffffffff80203ef4: aa ed                	sd	a0, 216(sp)
ffffffff80203ef6: 32 85                	add	a0, zero, a2
ffffffff80203ef8: ae e9                	sd	a1, 208(sp)
ffffffff80203efa: 97 10 00 00          	auipc	ra, 1
ffffffff80203efe: e7 80 80 df          	jalr	-520(ra)
ffffffff80203f02: aa e5                	sd	a0, 200(sp)
ffffffff80203f04: 09 a0                	j	2
ffffffff80203f06: 2e 65                	ld	a0, 200(sp)
ffffffff80203f08: 97 10 00 00          	auipc	ra, 1
ffffffff80203f0c: e7 80 40 05          	jalr	84(ra)
ffffffff80203f10: aa e1                	sd	a0, 192(sp)
ffffffff80203f12: 09 a0                	j	2
ffffffff80203f14: 88 11                	addi	a0, sp, 224
ffffffff80203f16: 97 10 00 00          	auipc	ra, 1
ffffffff80203f1a: e7 80 60 de          	jalr	-538(ra)
ffffffff80203f1e: 2a fd                	sd	a0, 184(sp)
ffffffff80203f20: 09 a0                	j	2
ffffffff80203f22: 21 45                	addi	a0, zero, 8
ffffffff80203f24: aa e3                	sd	a0, 448(sp)
ffffffff80203f26: 2a f9                	sd	a0, 176(sp)
ffffffff80203f28: 09 a0                	j	2
ffffffff80203f2a: 6a 75                	ld	a0, 184(sp)
ffffffff80203f2c: ca 75                	ld	a1, 176(sp)
ffffffff80203f2e: 97 20 00 00          	auipc	ra, 2
ffffffff80203f32: e7 80 20 89          	jalr	-1902(ra)
ffffffff80203f36: 2a f5                	sd	a0, 168(sp)
ffffffff80203f38: 09 a0                	j	2
ffffffff80203f3a: 0e 65                	ld	a0, 192(sp)
ffffffff80203f3c: aa 75                	ld	a1, 168(sp)
ffffffff80203f3e: 97 20 00 00          	auipc	ra, 2
ffffffff80203f42: e7 80 20 88          	jalr	-1918(ra)
ffffffff80203f46: aa 85                	add	a1, zero, a0
ffffffff80203f48: 2a e7                	sd	a0, 392(sp)
ffffffff80203f4a: 2e f1                	sd	a1, 160(sp)
ffffffff80203f4c: 09 a0                	j	2
ffffffff80203f4e: 0a 75                	ld	a0, 160(sp)
ffffffff80203f50: 97 10 00 00          	auipc	ra, 1
ffffffff80203f54: e7 80 20 f4          	jalr	-190(ra)
ffffffff80203f58: 2a ed                	sd	a0, 152(sp)
ffffffff80203f5a: 09 a0                	j	2
ffffffff80203f5c: 6a 65                	ld	a0, 152(sp)
ffffffff80203f5e: 9b 05 05 00          	sext.w	a1, a0
ffffffff80203f62: 13 16 05 02          	slli	a2, a0, 32
ffffffff80203f66: 01 92                	srli	a2, a2, 32
ffffffff80203f68: 32 eb                	sd	a2, 400(sp)
ffffffff80203f6a: fd 46                	addi	a3, zero, 31
ffffffff80203f6c: 32 e9                	sd	a2, 144(sp)
ffffffff80203f6e: 63 ed b6 1e          	bltu	a3, a1, 506
ffffffff80203f72: 09 a0                	j	2
ffffffff80203f74: 4a 65                	ld	a0, 144(sp)
ffffffff80203f76: 93 15 35 00          	slli	a1, a0, 3
ffffffff80203f7a: 6e 66                	ld	a2, 216(sp)
ffffffff80203f7c: 33 05 b6 00          	add	a0, a2, a1
ffffffff80203f80: ce 65                	ld	a1, 208(sp)
ffffffff80203f82: 2a e5                	sd	a0, 136(sp)
ffffffff80203f84: 2e 85                	add	a0, zero, a1
ffffffff80203f86: 97 10 00 00          	auipc	ra, 1
ffffffff80203f8a: e7 80 20 3f          	jalr	1010(ra)
ffffffff80203f8e: 2a e1                	sd	a0, 128(sp)
ffffffff80203f90: 09 a0                	j	2
ffffffff80203f92: 2a 65                	ld	a0, 136(sp)
ffffffff80203f94: 8a 65                	ld	a1, 128(sp)
ffffffff80203f96: 97 20 00 00          	auipc	ra, 2
ffffffff80203f9a: e7 80 a0 cd          	jalr	-806(ra)
ffffffff80203f9e: 09 a0                	j	2
ffffffff80203fa0: 4e 65                	ld	a0, 208(sp)
ffffffff80203fa2: 97 10 00 00          	auipc	ra, 1
ffffffff80203fa6: e7 80 60 3d          	jalr	982(ra)
ffffffff80203faa: aa fc                	sd	a0, 120(sp)
ffffffff80203fac: 09 a0                	j	2
ffffffff80203fae: 66 75                	ld	a0, 120(sp)
ffffffff80203fb0: aa f9                	sd	a0, 240(sp)
ffffffff80203fb2: ca 65                	ld	a1, 144(sp)
ffffffff80203fb4: ae fd                	sd	a1, 248(sp)
ffffffff80203fb6: 09 a0                	j	2
ffffffff80203fb8: 6e 75                	ld	a0, 248(sp)
ffffffff80203fba: 93 05 00 02          	addi	a1, zero, 32
ffffffff80203fbe: 6e 66                	ld	a2, 216(sp)
ffffffff80203fc0: aa f8                	sd	a0, 112(sp)
ffffffff80203fc2: 32 85                	add	a0, zero, a2
ffffffff80203fc4: 97 20 00 00          	auipc	ra, 2
ffffffff80203fc8: e7 80 00 c4          	jalr	-960(ra)
ffffffff80203fcc: aa f4                	sd	a0, 104(sp)
ffffffff80203fce: 09 a0                	j	2
ffffffff80203fd0: 46 75                	ld	a0, 112(sp)
ffffffff80203fd2: a6 75                	ld	a1, 104(sp)
ffffffff80203fd4: 63 64 b5 00          	bltu	a0, a1, 8
ffffffff80203fd8: 09 a0                	j	2
ffffffff80203fda: 91 a2                	j	324
ffffffff80203fdc: 4e 75                	ld	a0, 240(sp)
ffffffff80203fde: ee 75                	ld	a1, 248(sp)
ffffffff80203fe0: 13 f6 05 fc          	andi	a2, a1, -64
ffffffff80203fe4: 85 46                	addi	a3, zero, 1
ffffffff80203fe6: b3 95 b6 00          	sll	a1, a3, a1
ffffffff80203fea: 81 46                	mv	a3, zero
ffffffff80203fec: aa f0                	sd	a0, 96(sp)
ffffffff80203fee: ae ec                	sd	a1, 88(sp)
ffffffff80203ff0: 63 18 d6 18          	bne	a2, a3, 400
ffffffff80203ff4: 09 a0                	j	2
ffffffff80203ff6: 06 75                	ld	a0, 96(sp)
ffffffff80203ff8: e6 65                	ld	a1, 88(sp)
ffffffff80203ffa: 33 46 b5 00          	xor	a2, a0, a1
ffffffff80203ffe: 32 ef                	sd	a2, 408(sp)
ffffffff80204000: 81 46                	mv	a3, zero
ffffffff80204002: a3 03 d1 10          	sb	a3, 263(sp)
ffffffff80204006: ee 76                	ld	a3, 248(sp)
ffffffff80204008: 7d 47                	addi	a4, zero, 31
ffffffff8020400a: b2 e8                	sd	a2, 80(sp)
ffffffff8020400c: b6 e4                	sd	a3, 72(sp)
ffffffff8020400e: 63 68 d7 18          	bltu	a4, a3, 400
ffffffff80204012: 09 a0                	j	2
ffffffff80204014: 26 65                	ld	a0, 72(sp)
ffffffff80204016: 93 15 35 00          	slli	a1, a0, 3
ffffffff8020401a: 6e 66                	ld	a2, 216(sp)
ffffffff8020401c: b2 95                	add	a1, a1, a2
ffffffff8020401e: 08 12                	addi	a0, sp, 288
ffffffff80204020: 97 20 00 00          	auipc	ra, 2
ffffffff80204024: e7 80 c0 c9          	jalr	-868(ra)
ffffffff80204028: 09 a0                	j	2
ffffffff8020402a: 28 02                	addi	a0, sp, 264
ffffffff8020402c: 0c 12                	addi	a1, sp, 288
ffffffff8020402e: 97 20 00 00          	auipc	ra, 2
ffffffff80204032: e7 80 80 c1          	jalr	-1000(ra)
ffffffff80204036: 09 a0                	j	2
ffffffff80204038: 72 65                	ld	a0, 280(sp)
ffffffff8020403a: aa e6                	sd	a0, 328(sp)
ffffffff8020403c: 52 65                	ld	a0, 272(sp)
ffffffff8020403e: aa e2                	sd	a0, 320(sp)
ffffffff80204040: 32 65                	ld	a0, 264(sp)
ffffffff80204042: 2a fe                	sd	a0, 312(sp)
ffffffff80204044: 09 a0                	j	2
ffffffff80204046: 88 0a                	addi	a0, sp, 336
ffffffff80204048: 2c 1a                	addi	a1, sp, 312
ffffffff8020404a: 97 20 00 00          	auipc	ra, 2
ffffffff8020404e: e7 80 c0 c9          	jalr	-868(ra)
ffffffff80204052: 09 a0                	j	2
ffffffff80204054: 56 65                	ld	a0, 336(sp)
ffffffff80204056: 81 45                	mv	a1, zero
ffffffff80204058: 63 04 b5 00          	beq	a0, a1, 8
ffffffff8020405c: 09 a0                	j	2
ffffffff8020405e: 19 a0                	j	6
ffffffff80204060: 0d a0                	j	34
ffffffff80204062: 00 00                	unimp	
ffffffff80204064: 76 65                	ld	a0, 344(sp)
ffffffff80204066: 96 75                	ld	a1, 352(sp)
ffffffff80204068: 2a f3                	sd	a0, 416(sp)
ffffffff8020406a: 2e f7                	sd	a1, 424(sp)
ffffffff8020406c: 2a fb                	sd	a0, 432(sp)
ffffffff8020406e: 2e ff                	sd	a1, 440(sp)
ffffffff80204070: aa f6                	sd	a0, 360(sp)
ffffffff80204072: ae fa                	sd	a1, 368(sp)
ffffffff80204074: a8 12                	addi	a0, sp, 360
ffffffff80204076: 97 20 00 00          	auipc	ra, 2
ffffffff8020407a: e7 80 60 c6          	jalr	-922(ra)
ffffffff8020407e: aa e0                	sd	a0, 64(sp)
ffffffff80204080: 31 a0                	j	12
ffffffff80204082: 03 45 71 10          	lbu	a0, 263(sp)
ffffffff80204086: 05 89                	andi	a0, a0, 1
ffffffff80204088: 05 e5                	bnez	a0, 40
ffffffff8020408a: 15 a0                	j	36
ffffffff8020408c: 06 65                	ld	a0, 64(sp)
ffffffff8020408e: c6 65                	ld	a1, 80(sp)
ffffffff80204090: 63 04 b5 00          	beq	a0, a1, 8
ffffffff80204094: 09 a0                	j	2
ffffffff80204096: 45 bf                	j	-80
ffffffff80204098: 36 75                	ld	a0, 360(sp)
ffffffff8020409a: d6 75                	ld	a1, 368(sp)
ffffffff8020409c: 97 20 00 00          	auipc	ra, 2
ffffffff802040a0: e7 80 00 c3          	jalr	-976(ra)
ffffffff802040a4: 09 a0                	j	2
ffffffff802040a6: 05 45                	addi	a0, zero, 1
ffffffff802040a8: a3 03 a1 10          	sb	a0, 263(sp)
ffffffff802040ac: d9 bf                	j	-42
ffffffff802040ae: 85 a8                	j	112
ffffffff802040b0: 6e 75                	ld	a0, 248(sp)
ffffffff802040b2: fd 45                	addi	a1, zero, 31
ffffffff802040b4: 2a fc                	sd	a0, 56(sp)
ffffffff802040b6: 63 e0 a5 10          	bltu	a1, a0, 256
ffffffff802040ba: 09 a0                	j	2
ffffffff802040bc: 62 75                	ld	a0, 56(sp)
ffffffff802040be: 93 15 35 00          	slli	a1, a0, 3
ffffffff802040c2: 6e 66                	ld	a2, 216(sp)
ffffffff802040c4: 33 05 b6 00          	add	a0, a2, a1
ffffffff802040c8: 97 20 00 00          	auipc	ra, 2
ffffffff802040cc: e7 80 80 bb          	jalr	-1096(ra)
ffffffff802040d0: 09 a0                	j	2
ffffffff802040d2: 4e 75                	ld	a0, 240(sp)
ffffffff802040d4: c6 65                	ld	a1, 80(sp)
ffffffff802040d6: 97 10 00 00          	auipc	ra, 1
ffffffff802040da: e7 80 60 70          	jalr	1798(ra)
ffffffff802040de: 2a f8                	sd	a0, 48(sp)
ffffffff802040e0: 09 a0                	j	2
ffffffff802040e2: 42 75                	ld	a0, 48(sp)
ffffffff802040e4: aa f9                	sd	a0, 240(sp)
ffffffff802040e6: ee 75                	ld	a1, 248(sp)
ffffffff802040e8: 13 86 15 00          	addi	a2, a1, 1
ffffffff802040ec: 32 f4                	sd	a2, 40(sp)
ffffffff802040ee: 63 60 b6 0e          	bltu	a2, a1, 224
ffffffff802040f2: 09 a0                	j	2
ffffffff802040f4: 22 75                	ld	a0, 40(sp)
ffffffff802040f6: aa fd                	sd	a0, 248(sp)
ffffffff802040f8: fd 45                	addi	a1, zero, 31
ffffffff802040fa: 22 76                	ld	a2, 40(sp)
ffffffff802040fc: 2a f0                	sd	a0, 32(sp)
ffffffff802040fe: 63 e6 c5 0e          	bltu	a1, a2, 236
ffffffff80204102: 09 a0                	j	2
ffffffff80204104: 02 75                	ld	a0, 32(sp)
ffffffff80204106: 93 15 35 00          	slli	a1, a0, 3
ffffffff8020410a: 6e 66                	ld	a2, 216(sp)
ffffffff8020410c: 33 05 b6 00          	add	a0, a2, a1
ffffffff80204110: ce 75                	ld	a1, 240(sp)
ffffffff80204112: 97 20 00 00          	auipc	ra, 2
ffffffff80204116: e7 80 e0 b5          	jalr	-1186(ra)
ffffffff8020411a: 09 a0                	j	2
ffffffff8020411c: 71 bd                	j	-356
ffffffff8020411e: 88 11                	addi	a0, sp, 224
ffffffff80204120: 97 10 00 00          	auipc	ra, 1
ffffffff80204124: e7 80 20 bd          	jalr	-1070(ra)
ffffffff80204128: 2a ec                	sd	a0, 24(sp)
ffffffff8020412a: 09 a0                	j	2
ffffffff8020412c: 6e 65                	ld	a0, 216(sp)
ffffffff8020412e: 83 35 05 10          	ld	a1, 256(a0)
ffffffff80204132: 62 66                	ld	a2, 24(sp)
ffffffff80204134: b3 86 c5 40          	sub	a3, a1, a2
ffffffff80204138: 36 e8                	sd	a3, 16(sp)
ffffffff8020413a: 63 e4 d5 0c          	bltu	a1, a3, 200
ffffffff8020413e: 09 a0                	j	2
ffffffff80204140: 42 65                	ld	a0, 16(sp)
ffffffff80204142: ee 65                	ld	a1, 216(sp)
ffffffff80204144: 23 b0 a5 10          	sd	a0, 256(a1)
ffffffff80204148: 03 b6 85 10          	ld	a2, 264(a1)
ffffffff8020414c: 8a 76                	ld	a3, 160(sp)
ffffffff8020414e: 33 07 d6 40          	sub	a4, a2, a3
ffffffff80204152: 3a e4                	sd	a4, 8(sp)
ffffffff80204154: 63 66 e6 0c          	bltu	a2, a4, 204
ffffffff80204158: 09 a0                	j	2
ffffffff8020415a: 22 65                	ld	a0, 8(sp)
ffffffff8020415c: ee 65                	ld	a1, 216(sp)
ffffffff8020415e: 23 b4 a5 10          	sd	a0, 264(a1)
ffffffff80204162: be 60                	ld	ra, 456(sp)
ffffffff80204164: 79 61                	addi	sp, sp, 464
ffffffff80204166: 82 80                	ret

ffffffff80204168 .LBB5_51:
ffffffff80204168: 17 86 00 00          	auipc	a2, 8
ffffffff8020416c: 13 06 06 1e          	addi	a2, a2, 480
ffffffff80204170: 93 05 00 02          	addi	a1, zero, 32
ffffffff80204174: 4a 65                	ld	a0, 144(sp)
ffffffff80204176: 97 40 00 00          	auipc	ra, 4
ffffffff8020417a: e7 80 e0 71          	jalr	1822(ra)
ffffffff8020417e: 00 00                	unimp	

ffffffff80204180 .LBB5_52:
ffffffff80204180: 17 85 00 00          	auipc	a0, 8
ffffffff80204184: 13 05 05 0d          	addi	a0, a0, 208

ffffffff80204188 .LBB5_53:
ffffffff80204188: 17 86 00 00          	auipc	a2, 8
ffffffff8020418c: 13 06 86 1d          	addi	a2, a2, 472
ffffffff80204190: 93 05 30 02          	addi	a1, zero, 35
ffffffff80204194: 97 40 00 00          	auipc	ra, 4
ffffffff80204198: e7 80 40 6d          	jalr	1748(ra)
ffffffff8020419c: 00 00                	unimp	

ffffffff8020419e .LBB5_54:
ffffffff8020419e: 17 86 00 00          	auipc	a2, 8
ffffffff802041a2: 13 06 a6 1d          	addi	a2, a2, 474
ffffffff802041a6: 93 05 00 02          	addi	a1, zero, 32
ffffffff802041aa: 26 65                	ld	a0, 72(sp)
ffffffff802041ac: 97 40 00 00          	auipc	ra, 4
ffffffff802041b0: e7 80 80 6e          	jalr	1768(ra)
ffffffff802041b4: 00 00                	unimp	

ffffffff802041b6 .LBB5_55:
ffffffff802041b6: 17 86 00 00          	auipc	a2, 8
ffffffff802041ba: 13 06 a6 1d          	addi	a2, a2, 474
ffffffff802041be: 93 05 00 02          	addi	a1, zero, 32
ffffffff802041c2: 62 75                	ld	a0, 56(sp)
ffffffff802041c4: 97 40 00 00          	auipc	ra, 4
ffffffff802041c8: e7 80 00 6d          	jalr	1744(ra)
ffffffff802041cc: 00 00                	unimp	

ffffffff802041ce .LBB5_56:
ffffffff802041ce: 17 85 00 00          	auipc	a0, 8
ffffffff802041d2: 13 05 25 e3          	addi	a0, a0, -462

ffffffff802041d6 .LBB5_57:
ffffffff802041d6: 17 86 00 00          	auipc	a2, 8
ffffffff802041da: 13 06 26 1d          	addi	a2, a2, 466
ffffffff802041de: f1 45                	addi	a1, zero, 28
ffffffff802041e0: 97 40 00 00          	auipc	ra, 4
ffffffff802041e4: e7 80 80 68          	jalr	1672(ra)
ffffffff802041e8: 00 00                	unimp	

ffffffff802041ea .LBB5_58:
ffffffff802041ea: 17 86 00 00          	auipc	a2, 8
ffffffff802041ee: 13 06 66 1d          	addi	a2, a2, 470
ffffffff802041f2: 93 05 00 02          	addi	a1, zero, 32
ffffffff802041f6: 02 75                	ld	a0, 32(sp)
ffffffff802041f8: 97 40 00 00          	auipc	ra, 4
ffffffff802041fc: e7 80 c0 69          	jalr	1692(ra)
ffffffff80204200: 00 00                	unimp	

ffffffff80204202 .LBB5_59:
ffffffff80204202: 17 85 00 00          	auipc	a0, 8
ffffffff80204206: 13 05 e5 e3          	addi	a0, a0, -450

ffffffff8020420a .LBB5_60:
ffffffff8020420a: 17 86 00 00          	auipc	a2, 8
ffffffff8020420e: 13 06 e6 1c          	addi	a2, a2, 462
ffffffff80204212: 93 05 10 02          	addi	a1, zero, 33
ffffffff80204216: 97 40 00 00          	auipc	ra, 4
ffffffff8020421a: e7 80 20 65          	jalr	1618(ra)
ffffffff8020421e: 00 00                	unimp	

ffffffff80204220 .LBB5_61:
ffffffff80204220: 17 85 00 00          	auipc	a0, 8
ffffffff80204224: 13 05 05 e2          	addi	a0, a0, -480

ffffffff80204228 .LBB5_62:
ffffffff80204228: 17 86 00 00          	auipc	a2, 8
ffffffff8020422c: 13 06 86 1c          	addi	a2, a2, 456
ffffffff80204230: 93 05 10 02          	addi	a1, zero, 33
ffffffff80204234: 97 40 00 00          	auipc	ra, 4
ffffffff80204238: e7 80 40 63          	jalr	1588(ra)
ffffffff8020423c: 00 00                	unimp	

ffffffff8020423e _ZN78_$LT$buddy_system_allocator..LockedHeap$u20$as$u20$core..ops..deref..Deref$GT$5deref17h4801163495e999d5E:
ffffffff8020423e: 41 11                	addi	sp, sp, -16
ffffffff80204240: 2a e4                	sd	a0, 8(sp)
ffffffff80204242: 41 01                	addi	sp, sp, 16
ffffffff80204244: 82 80                	ret

ffffffff80204246 _ZN87_$LT$buddy_system_allocator..LockedHeap$u20$as$u20$core..alloc..global..GlobalAlloc$GT$5alloc17h156c1c05692471bdE:
ffffffff80204246: 59 71                	addi	sp, sp, -112
ffffffff80204248: 86 f4                	sd	ra, 104(sp)
ffffffff8020424a: aa e8                	sd	a0, 80(sp)
ffffffff8020424c: ae ec                	sd	a1, 88(sp)
ffffffff8020424e: b2 f0                	sd	a2, 96(sp)
ffffffff80204250: 32 fc                	sd	a2, 56(sp)
ffffffff80204252: 2e f8                	sd	a1, 48(sp)
ffffffff80204254: 97 10 00 00          	auipc	ra, 1
ffffffff80204258: e7 80 a0 6f          	jalr	1786(ra)
ffffffff8020425c: aa e0                	sd	a0, 64(sp)
ffffffff8020425e: ae e4                	sd	a1, 72(sp)
ffffffff80204260: 09 a0                	j	2
ffffffff80204262: 88 00                	addi	a0, sp, 64
ffffffff80204264: 97 10 00 00          	auipc	ra, 1
ffffffff80204268: e7 80 e0 73          	jalr	1854(ra)
ffffffff8020426c: 2a f4                	sd	a0, 40(sp)
ffffffff8020426e: 09 a0                	j	2
ffffffff80204270: 22 75                	ld	a0, 40(sp)
ffffffff80204272: c2 75                	ld	a1, 48(sp)
ffffffff80204274: 62 76                	ld	a2, 56(sp)
ffffffff80204276: 97 f0 ff ff          	auipc	ra, 1048575
ffffffff8020427a: e7 80 60 7c          	jalr	1990(ra)
ffffffff8020427e: 2a f0                	sd	a0, 32(sp)
ffffffff80204280: 09 a0                	j	2
ffffffff80204282: 02 75                	ld	a0, 32(sp)
ffffffff80204284: 97 20 00 00          	auipc	ra, 2
ffffffff80204288: e7 80 00 99          	jalr	-1648(ra)
ffffffff8020428c: 2a ec                	sd	a0, 24(sp)
ffffffff8020428e: 09 a0                	j	2
ffffffff80204290: 01 45                	mv	a0, zero
ffffffff80204292: e2 65                	ld	a1, 24(sp)
ffffffff80204294: 2a e8                	sd	a0, 16(sp)
ffffffff80204296: 2e 85                	add	a0, zero, a1
ffffffff80204298: c2 65                	ld	a1, 16(sp)
ffffffff8020429a: 97 10 00 00          	auipc	ra, 1
ffffffff8020429e: e7 80 80 74          	jalr	1864(ra)
ffffffff802042a2: 2a e4                	sd	a0, 8(sp)
ffffffff802042a4: 09 a0                	j	2
ffffffff802042a6: 88 00                	addi	a0, sp, 64
ffffffff802042a8: 97 20 00 00          	auipc	ra, 2
ffffffff802042ac: e7 80 c0 8f          	jalr	-1796(ra)
ffffffff802042b0: 09 a0                	j	2
ffffffff802042b2: 22 65                	ld	a0, 8(sp)
ffffffff802042b4: a6 70                	ld	ra, 104(sp)
ffffffff802042b6: 65 61                	addi	sp, sp, 112
ffffffff802042b8: 82 80                	ret

ffffffff802042ba _ZN87_$LT$buddy_system_allocator..LockedHeap$u20$as$u20$core..alloc..global..GlobalAlloc$GT$5alloc28_$u7b$$u7b$closure$u7d$$u7d$17hb834b1a43a19ff9fE:
ffffffff802042ba: 01 11                	addi	sp, sp, -32
ffffffff802042bc: 06 ec                	sd	ra, 24(sp)
ffffffff802042be: 2a e8                	sd	a0, 16(sp)
ffffffff802042c0: 97 10 00 00          	auipc	ra, 1
ffffffff802042c4: e7 80 80 0b          	jalr	184(ra)
ffffffff802042c8: 2a e0                	sd	a0, 0(sp)
ffffffff802042ca: 09 a0                	j	2
ffffffff802042cc: 02 65                	ld	a0, 0(sp)
ffffffff802042ce: e2 60                	ld	ra, 24(sp)
ffffffff802042d0: 05 61                	addi	sp, sp, 32
ffffffff802042d2: 82 80                	ret

ffffffff802042d4 _ZN87_$LT$buddy_system_allocator..LockedHeap$u20$as$u20$core..alloc..global..GlobalAlloc$GT$7dealloc17h88955a9a241718c8E:
ffffffff802042d4: 1d 71                	addi	sp, sp, -96
ffffffff802042d6: 86 ec                	sd	ra, 88(sp)
ffffffff802042d8: 2a fc                	sd	a0, 56(sp)
ffffffff802042da: ae e0                	sd	a1, 64(sp)
ffffffff802042dc: b2 e4                	sd	a2, 72(sp)
ffffffff802042de: b6 e8                	sd	a3, 80(sp)
ffffffff802042e0: 36 f0                	sd	a3, 32(sp)
ffffffff802042e2: 32 ec                	sd	a2, 24(sp)
ffffffff802042e4: 2e e8                	sd	a1, 16(sp)
ffffffff802042e6: 97 10 00 00          	auipc	ra, 1
ffffffff802042ea: e7 80 80 66          	jalr	1640(ra)
ffffffff802042ee: 2a f4                	sd	a0, 40(sp)
ffffffff802042f0: 2e f8                	sd	a1, 48(sp)
ffffffff802042f2: 09 a0                	j	2
ffffffff802042f4: 28 10                	addi	a0, sp, 40
ffffffff802042f6: 97 10 00 00          	auipc	ra, 1
ffffffff802042fa: e7 80 c0 6a          	jalr	1708(ra)
ffffffff802042fe: 2a e4                	sd	a0, 8(sp)
ffffffff80204300: 09 a0                	j	2
ffffffff80204302: 42 65                	ld	a0, 16(sp)
ffffffff80204304: 97 10 00 00          	auipc	ra, 1
ffffffff80204308: e7 80 a0 02          	jalr	42(ra)
ffffffff8020430c: 2a e0                	sd	a0, 0(sp)
ffffffff8020430e: 09 a0                	j	2
ffffffff80204310: 22 65                	ld	a0, 8(sp)
ffffffff80204312: 82 65                	ld	a1, 0(sp)
ffffffff80204314: 62 66                	ld	a2, 24(sp)
ffffffff80204316: 82 76                	ld	a3, 32(sp)
ffffffff80204318: 97 00 00 00          	auipc	ra, 0
ffffffff8020431c: e7 80 e0 bc          	jalr	-1074(ra)
ffffffff80204320: 09 a0                	j	2
ffffffff80204322: 28 10                	addi	a0, sp, 40
ffffffff80204324: 97 20 00 00          	auipc	ra, 2
ffffffff80204328: e7 80 00 88          	jalr	-1920(ra)
ffffffff8020432c: 09 a0                	j	2
ffffffff8020432e: e6 60                	ld	ra, 88(sp)
ffffffff80204330: 25 61                	addi	sp, sp, 96
ffffffff80204332: 82 80                	ret

ffffffff80204334 _ZN22buddy_system_allocator17prev_power_of_two17h101d66ba1262e226E:
ffffffff80204334: 5d 71                	addi	sp, sp, -80
ffffffff80204336: 86 e4                	sd	ra, 72(sp)
ffffffff80204338: 2a fc                	sd	a0, 56(sp)
ffffffff8020433a: a1 45                	addi	a1, zero, 8
ffffffff8020433c: ae e0                	sd	a1, 64(sp)
ffffffff8020433e: 2a f8                	sd	a0, 48(sp)
ffffffff80204340: 2e f4                	sd	a1, 40(sp)
ffffffff80204342: 09 a0                	j	2
ffffffff80204344: 22 75                	ld	a0, 40(sp)
ffffffff80204346: 93 15 35 00          	slli	a1, a0, 3
ffffffff8020434a: 01 46                	mv	a2, zero
ffffffff8020434c: 2e f0                	sd	a1, 32(sp)
ffffffff8020434e: 31 ea                	bnez	a2, 84
ffffffff80204350: 09 a0                	j	2
ffffffff80204352: 42 75                	ld	a0, 48(sp)
ffffffff80204354: 97 10 00 00          	auipc	ra, 1
ffffffff80204358: e7 80 00 a7          	jalr	-1424(ra)
ffffffff8020435c: 2a ec                	sd	a0, 24(sp)
ffffffff8020435e: 09 a0                	j	2
ffffffff80204360: 62 65                	ld	a0, 24(sp)
ffffffff80204362: 93 15 05 02          	slli	a1, a0, 32
ffffffff80204366: 81 91                	srli	a1, a1, 32
ffffffff80204368: 02 76                	ld	a2, 32(sp)
ffffffff8020436a: b3 05 b6 40          	sub	a1, a2, a1
ffffffff8020436e: 2e e8                	sd	a1, 16(sp)
ffffffff80204370: 63 68 b6 04          	bltu	a2, a1, 80
ffffffff80204374: 09 a0                	j	2
ffffffff80204376: 42 65                	ld	a0, 16(sp)
ffffffff80204378: 93 05 f5 ff          	addi	a1, a0, -1
ffffffff8020437c: 2e e4                	sd	a1, 8(sp)
ffffffff8020437e: 63 60 b5 06          	bltu	a0, a1, 96
ffffffff80204382: 09 a0                	j	2
ffffffff80204384: 22 65                	ld	a0, 8(sp)
ffffffff80204386: 93 75 05 fc          	andi	a1, a0, -64
ffffffff8020438a: 05 46                	addi	a2, zero, 1
ffffffff8020438c: 33 15 a6 00          	sll	a0, a2, a0
ffffffff80204390: 01 46                	mv	a2, zero
ffffffff80204392: 2a e0                	sd	a0, 0(sp)
ffffffff80204394: 63 94 c5 06          	bne	a1, a2, 104
ffffffff80204398: 09 a0                	j	2
ffffffff8020439a: 02 65                	ld	a0, 0(sp)
ffffffff8020439c: a6 60                	ld	ra, 72(sp)
ffffffff8020439e: 61 61                	addi	sp, sp, 80
ffffffff802043a0: 82 80                	ret

ffffffff802043a2 .LBB21_11:
ffffffff802043a2: 17 85 00 00          	auipc	a0, 8
ffffffff802043a6: 13 05 e5 07          	addi	a0, a0, 126

ffffffff802043aa .LBB21_12:
ffffffff802043aa: 17 86 00 00          	auipc	a2, 8
ffffffff802043ae: 13 06 e6 05          	addi	a2, a2, 94
ffffffff802043b2: 93 05 10 02          	addi	a1, zero, 33
ffffffff802043b6: 97 40 00 00          	auipc	ra, 4
ffffffff802043ba: e7 80 20 4b          	jalr	1202(ra)
ffffffff802043be: 00 00                	unimp	

ffffffff802043c0 .LBB21_13:
ffffffff802043c0: 17 85 00 00          	auipc	a0, 8
ffffffff802043c4: 13 05 05 c8          	addi	a0, a0, -896

ffffffff802043c8 .LBB21_14:
ffffffff802043c8: 17 86 00 00          	auipc	a2, 8
ffffffff802043cc: 13 06 06 04          	addi	a2, a2, 64
ffffffff802043d0: 93 05 10 02          	addi	a1, zero, 33
ffffffff802043d4: 97 40 00 00          	auipc	ra, 4
ffffffff802043d8: e7 80 40 49          	jalr	1172(ra)
ffffffff802043dc: 00 00                	unimp	

ffffffff802043de .LBB21_15:
ffffffff802043de: 17 85 00 00          	auipc	a0, 8
ffffffff802043e2: 13 05 25 c6          	addi	a0, a0, -926

ffffffff802043e6 .LBB21_16:
ffffffff802043e6: 17 86 00 00          	auipc	a2, 8
ffffffff802043ea: 13 06 26 06          	addi	a2, a2, 98
ffffffff802043ee: 93 05 10 02          	addi	a1, zero, 33
ffffffff802043f2: 97 40 00 00          	auipc	ra, 4
ffffffff802043f6: e7 80 60 47          	jalr	1142(ra)
ffffffff802043fa: 00 00                	unimp	

ffffffff802043fc .LBB21_17:
ffffffff802043fc: 17 85 00 00          	auipc	a0, 8
ffffffff80204400: 13 05 45 e5          	addi	a0, a0, -428

ffffffff80204404 .LBB21_18:
ffffffff80204404: 17 86 00 00          	auipc	a2, 8
ffffffff80204408: 13 06 c6 05          	addi	a2, a2, 92
ffffffff8020440c: 93 05 30 02          	addi	a1, zero, 35
ffffffff80204410: 97 40 00 00          	auipc	ra, 4
ffffffff80204414: e7 80 80 45          	jalr	1112(ra)
ffffffff80204418: 00 00                	unimp	

ffffffff8020441a _ZN4core4sync6atomic10AtomicBool16compare_and_swap17h383af7a11c382e95E:
ffffffff8020441a: 5d 71                	addi	sp, sp, -80
ffffffff8020441c: 86 e4                	sd	ra, 72(sp)
ffffffff8020441e: 36 87                	add	a4, zero, a3
ffffffff80204420: b2 87                	add	a5, zero, a2
ffffffff80204422: 2e 88                	add	a6, zero, a1
ffffffff80204424: 2a fc                	sd	a0, 56(sp)
ffffffff80204426: a3 01 b1 04          	sb	a1, 67(sp)
ffffffff8020442a: 23 02 c1 04          	sb	a2, 68(sp)
ffffffff8020442e: a3 02 d1 04          	sb	a3, 69(sp)
ffffffff80204432: 2a f0                	sd	a0, 32(sp)
ffffffff80204434: 36 85                	add	a0, zero, a3
ffffffff80204436: 3a ec                	sd	a4, 24(sp)
ffffffff80204438: 3e e8                	sd	a5, 16(sp)
ffffffff8020443a: 42 e4                	sd	a6, 8(sp)
ffffffff8020443c: 97 00 00 00          	auipc	ra, 0
ffffffff80204440: e7 80 c0 7e          	jalr	2028(ra)
ffffffff80204444: 13 77 f5 0f          	andi	a4, a0, 255
ffffffff80204448: 3a e0                	sd	a4, 0(sp)
ffffffff8020444a: 09 a0                	j	2
ffffffff8020444c: 02 75                	ld	a0, 32(sp)
ffffffff8020444e: a2 65                	ld	a1, 8(sp)
ffffffff80204450: 42 66                	ld	a2, 16(sp)
ffffffff80204452: e2 66                	ld	a3, 24(sp)
ffffffff80204454: 02 67                	ld	a4, 0(sp)
ffffffff80204456: 97 00 00 00          	auipc	ra, 0
ffffffff8020445a: e7 80 80 04          	jalr	72(ra)
ffffffff8020445e: 23 08 a1 02          	sb	a0, 48(sp)
ffffffff80204462: a3 08 b1 02          	sb	a1, 49(sp)
ffffffff80204466: 09 a0                	j	2
ffffffff80204468: 03 45 01 03          	lbu	a0, 48(sp)
ffffffff8020446c: 05 89                	andi	a0, a0, 1
ffffffff8020446e: 81 45                	mv	a1, zero
ffffffff80204470: 63 0b b5 00          	beq	a0, a1, 22
ffffffff80204474: 09 a0                	j	2
ffffffff80204476: 03 05 11 03          	lb	a0, 49(sp)
ffffffff8020447a: 23 03 a1 04          	sb	a0, 70(sp)
ffffffff8020447e: a3 07 a1 02          	sb	a0, 47(sp)
ffffffff80204482: 09 a8                	j	18
ffffffff80204484: 00 00                	unimp	
ffffffff80204486: 03 05 11 03          	lb	a0, 49(sp)
ffffffff8020448a: a3 03 a1 04          	sb	a0, 71(sp)
ffffffff8020448e: a3 07 a1 02          	sb	a0, 47(sp)
ffffffff80204492: 09 a0                	j	2
ffffffff80204494: 03 45 f1 02          	lbu	a0, 47(sp)
ffffffff80204498: a6 60                	ld	ra, 72(sp)
ffffffff8020449a: 61 61                	addi	sp, sp, 80
ffffffff8020449c: 82 80                	ret

ffffffff8020449e _ZN4core4sync6atomic10AtomicBool16compare_exchange17hc22b8eee6d669380E:
ffffffff8020449e: 5d 71                	addi	sp, sp, -80
ffffffff802044a0: 86 e4                	sd	ra, 72(sp)
ffffffff802044a2: ba 87                	add	a5, zero, a4
ffffffff802044a4: 36 88                	add	a6, zero, a3
ffffffff802044a6: b2 88                	add	a7, zero, a2
ffffffff802044a8: ae 82                	add	t0, zero, a1
ffffffff802044aa: 2a fc                	sd	a0, 56(sp)
ffffffff802044ac: 23 01 b1 04          	sb	a1, 66(sp)
ffffffff802044b0: a3 01 c1 04          	sb	a2, 67(sp)
ffffffff802044b4: 23 02 d1 04          	sb	a3, 68(sp)
ffffffff802044b8: a3 02 e1 04          	sb	a4, 69(sp)
ffffffff802044bc: 3e f0                	sd	a5, 32(sp)
ffffffff802044be: 42 ec                	sd	a6, 24(sp)
ffffffff802044c0: 46 e8                	sd	a7, 16(sp)
ffffffff802044c2: 16 e4                	sd	t0, 8(sp)
ffffffff802044c4: 97 10 00 00          	auipc	ra, 1
ffffffff802044c8: e7 80 40 ec          	jalr	-316(ra)
ffffffff802044cc: 2a e0                	sd	a0, 0(sp)
ffffffff802044ce: 09 a0                	j	2
ffffffff802044d0: 02 65                	ld	a0, 0(sp)
ffffffff802044d2: a2 65                	ld	a1, 8(sp)
ffffffff802044d4: 42 66                	ld	a2, 16(sp)
ffffffff802044d6: e2 66                	ld	a3, 24(sp)
ffffffff802044d8: 02 77                	ld	a4, 32(sp)
ffffffff802044da: 97 00 00 00          	auipc	ra, 0
ffffffff802044de: e7 80 c0 24          	jalr	588(ra)
ffffffff802044e2: 23 08 a1 02          	sb	a0, 48(sp)
ffffffff802044e6: a3 08 b1 02          	sb	a1, 49(sp)
ffffffff802044ea: 09 a0                	j	2
ffffffff802044ec: 03 45 01 03          	lbu	a0, 48(sp)
ffffffff802044f0: 05 89                	andi	a0, a0, 1
ffffffff802044f2: 81 45                	mv	a1, zero
ffffffff802044f4: 63 00 b5 02          	beq	a0, a1, 32
ffffffff802044f8: 09 a0                	j	2
ffffffff802044fa: 03 45 11 03          	lbu	a0, 49(sp)
ffffffff802044fe: 23 03 a1 04          	sb	a0, 70(sp)
ffffffff80204502: 33 35 a0 00          	snez	a0, a0
ffffffff80204506: a3 04 a1 02          	sb	a0, 41(sp)
ffffffff8020450a: 05 45                	addi	a0, zero, 1
ffffffff8020450c: 23 04 a1 02          	sb	a0, 40(sp)
ffffffff80204510: 31 a8                	j	28
ffffffff80204512: 00 00                	unimp	
ffffffff80204514: 03 45 11 03          	lbu	a0, 49(sp)
ffffffff80204518: a3 03 a1 04          	sb	a0, 71(sp)
ffffffff8020451c: 33 35 a0 00          	snez	a0, a0
ffffffff80204520: a3 04 a1 02          	sb	a0, 41(sp)
ffffffff80204524: 01 45                	mv	a0, zero
ffffffff80204526: 23 04 a1 02          	sb	a0, 40(sp)
ffffffff8020452a: 09 a0                	j	2
ffffffff8020452c: 03 45 81 02          	lbu	a0, 40(sp)
ffffffff80204530: 83 05 91 02          	lb	a1, 41(sp)
ffffffff80204534: a6 60                	ld	ra, 72(sp)
ffffffff80204536: 61 61                	addi	sp, sp, 80
ffffffff80204538: 82 80                	ret

ffffffff8020453a _ZN4core4sync6atomic10AtomicBool4load17heaf403a7dbc8f696E:
ffffffff8020453a: 79 71                	addi	sp, sp, -48
ffffffff8020453c: 06 f4                	sd	ra, 40(sp)
ffffffff8020453e: 2e 86                	add	a2, zero, a1
ffffffff80204540: 2a ec                	sd	a0, 24(sp)
ffffffff80204542: a3 03 b1 02          	sb	a1, 39(sp)
ffffffff80204546: 32 e8                	sd	a2, 16(sp)
ffffffff80204548: 97 10 00 00          	auipc	ra, 1
ffffffff8020454c: e7 80 00 e4          	jalr	-448(ra)
ffffffff80204550: 2a e4                	sd	a0, 8(sp)
ffffffff80204552: 09 a0                	j	2
ffffffff80204554: 22 65                	ld	a0, 8(sp)
ffffffff80204556: c2 65                	ld	a1, 16(sp)
ffffffff80204558: 97 00 00 00          	auipc	ra, 0
ffffffff8020455c: e7 80 40 05          	jalr	84(ra)
ffffffff80204560: 2a e0                	sd	a0, 0(sp)
ffffffff80204562: 09 a0                	j	2
ffffffff80204564: 02 65                	ld	a0, 0(sp)
ffffffff80204566: 93 75 f5 0f          	andi	a1, a0, 255
ffffffff8020456a: 33 35 b0 00          	snez	a0, a1
ffffffff8020456e: a2 70                	ld	ra, 40(sp)
ffffffff80204570: 45 61                	addi	sp, sp, 48
ffffffff80204572: 82 80                	ret

ffffffff80204574 _ZN4core4sync6atomic10AtomicBool5store17hf594d3f847bc7f69E:
ffffffff80204574: 79 71                	addi	sp, sp, -48
ffffffff80204576: 06 f4                	sd	ra, 40(sp)
ffffffff80204578: b2 86                	add	a3, zero, a2
ffffffff8020457a: 2e 87                	add	a4, zero, a1
ffffffff8020457c: 2a ec                	sd	a0, 24(sp)
ffffffff8020457e: 23 03 b1 02          	sb	a1, 38(sp)
ffffffff80204582: a3 03 c1 02          	sb	a2, 39(sp)
ffffffff80204586: 36 e8                	sd	a3, 16(sp)
ffffffff80204588: 3a e4                	sd	a4, 8(sp)
ffffffff8020458a: 97 10 00 00          	auipc	ra, 1
ffffffff8020458e: e7 80 e0 df          	jalr	-514(ra)
ffffffff80204592: 2a e0                	sd	a0, 0(sp)
ffffffff80204594: 09 a0                	j	2
ffffffff80204596: 02 65                	ld	a0, 0(sp)
ffffffff80204598: a2 65                	ld	a1, 8(sp)
ffffffff8020459a: 42 66                	ld	a2, 16(sp)
ffffffff8020459c: 97 00 00 00          	auipc	ra, 0
ffffffff802045a0: e7 80 60 0c          	jalr	198(ra)
ffffffff802045a4: 09 a0                	j	2
ffffffff802045a6: a2 70                	ld	ra, 40(sp)
ffffffff802045a8: 45 61                	addi	sp, sp, 48
ffffffff802045aa: 82 80                	ret

ffffffff802045ac _ZN4core4sync6atomic11atomic_load17h7beb631ad57b1ed7E:
ffffffff802045ac: 01 11                	addi	sp, sp, -32
ffffffff802045ae: 2e 86                	add	a2, zero, a1
ffffffff802045b0: 23 0b b1 00          	sb	a1, 22(sp)
ffffffff802045b4: 2a ec                	sd	a0, 24(sp)
ffffffff802045b6: 93 f5 f5 0f          	andi	a1, a1, 255
ffffffff802045ba: 81 46                	mv	a3, zero
ffffffff802045bc: 2a e4                	sd	a0, 8(sp)
ffffffff802045be: 2e e0                	sd	a1, 0(sp)
ffffffff802045c0: 63 8c d5 04          	beq	a1, a3, 88
ffffffff802045c4: 09 a0                	j	2
ffffffff802045c6: 05 45                	addi	a0, zero, 1
ffffffff802045c8: 82 65                	ld	a1, 0(sp)
ffffffff802045ca: 63 89 a5 06          	beq	a1, a0, 114
ffffffff802045ce: 09 a0                	j	2
ffffffff802045d0: 09 45                	addi	a0, zero, 2
ffffffff802045d2: 82 65                	ld	a1, 0(sp)
ffffffff802045d4: 63 89 a5 02          	beq	a1, a0, 50
ffffffff802045d8: 09 a0                	j	2
ffffffff802045da: 0d 45                	addi	a0, zero, 3
ffffffff802045dc: 82 65                	ld	a1, 0(sp)
ffffffff802045de: 63 84 a5 00          	beq	a1, a0, 8
ffffffff802045e2: 09 a0                	j	2
ffffffff802045e4: 89 a0                	j	66

ffffffff802045e6 .LBB5_15:
ffffffff802045e6: 17 85 00 00          	auipc	a0, 8
ffffffff802045ea: 13 05 25 e9          	addi	a0, a0, -366

ffffffff802045ee .LBB5_16:
ffffffff802045ee: 17 86 00 00          	auipc	a2, 8
ffffffff802045f2: 13 06 26 f3          	addi	a2, a2, -206
ffffffff802045f6: 93 05 10 03          	addi	a1, zero, 49
ffffffff802045fa: 97 40 00 00          	auipc	ra, 4
ffffffff802045fe: e7 80 e0 26          	jalr	622(ra)
ffffffff80204602: 00 00                	unimp	
ffffffff80204604: 00 00                	unimp	
ffffffff80204606: 22 65                	ld	a0, 8(sp)
ffffffff80204608: 83 05 05 00          	lb	a1, 0(a0)
ffffffff8020460c: 0f 00 30 02          	fence	r, rw
ffffffff80204610: a3 0b b1 00          	sb	a1, 23(sp)
ffffffff80204614: 09 a0                	j	2
ffffffff80204616: 91 a0                	j	68
ffffffff80204618: 22 65                	ld	a0, 8(sp)
ffffffff8020461a: 83 05 05 00          	lb	a1, 0(a0)
ffffffff8020461e: a3 0b b1 00          	sb	a1, 23(sp)
ffffffff80204622: 09 a0                	j	2
ffffffff80204624: 1d a8                	j	54
ffffffff80204626: 0f 00 30 03          	fence	rw, rw
ffffffff8020462a: 22 65                	ld	a0, 8(sp)
ffffffff8020462c: 83 05 05 00          	lb	a1, 0(a0)
ffffffff80204630: 0f 00 30 02          	fence	r, rw
ffffffff80204634: a3 0b b1 00          	sb	a1, 23(sp)
ffffffff80204638: 09 a0                	j	2
ffffffff8020463a: 05 a0                	j	32

ffffffff8020463c .LBB5_17:
ffffffff8020463c: 17 85 00 00          	auipc	a0, 8
ffffffff80204640: 13 05 c5 ef          	addi	a0, a0, -260

ffffffff80204644 .LBB5_18:
ffffffff80204644: 17 86 00 00          	auipc	a2, 8
ffffffff80204648: 13 06 c6 ed          	addi	a2, a2, -292
ffffffff8020464c: 93 05 80 02          	addi	a1, zero, 40
ffffffff80204650: 97 40 00 00          	auipc	ra, 4
ffffffff80204654: e7 80 80 21          	jalr	536(ra)
ffffffff80204658: 00 00                	unimp	
ffffffff8020465a: 03 05 71 01          	lb	a0, 23(sp)
ffffffff8020465e: 05 61                	addi	sp, sp, 32
ffffffff80204660: 82 80                	ret

ffffffff80204662 _ZN4core4sync6atomic12atomic_store17h0d69ce0e727c3a49E:
ffffffff80204662: 39 71                	addi	sp, sp, -64
ffffffff80204664: b2 86                	add	a3, zero, a2
ffffffff80204666: 2e 87                	add	a4, zero, a1
ffffffff80204668: a3 03 c1 02          	sb	a2, 39(sp)
ffffffff8020466c: 2a f8                	sd	a0, 48(sp)
ffffffff8020466e: a3 0f b1 02          	sb	a1, 63(sp)
ffffffff80204672: 93 75 f6 0f          	andi	a1, a2, 255
ffffffff80204676: 01 46                	mv	a2, zero
ffffffff80204678: 2a ec                	sd	a0, 24(sp)
ffffffff8020467a: 3a e8                	sd	a4, 16(sp)
ffffffff8020467c: 2e e4                	sd	a1, 8(sp)
ffffffff8020467e: 63 8b c5 04          	beq	a1, a2, 86
ffffffff80204682: 09 a0                	j	2
ffffffff80204684: 05 45                	addi	a0, zero, 1
ffffffff80204686: a2 65                	ld	a1, 8(sp)
ffffffff80204688: 63 8e a5 02          	beq	a1, a0, 60
ffffffff8020468c: 09 a0                	j	2
ffffffff8020468e: 09 45                	addi	a0, zero, 2
ffffffff80204690: a2 65                	ld	a1, 8(sp)
ffffffff80204692: 63 8f a5 04          	beq	a1, a0, 94
ffffffff80204696: 09 a0                	j	2
ffffffff80204698: 0d 45                	addi	a0, zero, 3
ffffffff8020469a: a2 65                	ld	a1, 8(sp)
ffffffff8020469c: 63 84 a5 00          	beq	a1, a0, 8
ffffffff802046a0: 09 a0                	j	2
ffffffff802046a2: 3d a8                	j	62

ffffffff802046a4 .LBB6_15:
ffffffff802046a4: 17 85 00 00          	auipc	a0, 8
ffffffff802046a8: 13 05 c5 eb          	addi	a0, a0, -324

ffffffff802046ac .LBB6_16:
ffffffff802046ac: 17 86 00 00          	auipc	a2, 8
ffffffff802046b0: 13 06 46 e7          	addi	a2, a2, -396
ffffffff802046b4: 93 05 20 03          	addi	a1, zero, 50
ffffffff802046b8: 97 40 00 00          	auipc	ra, 4
ffffffff802046bc: e7 80 00 1b          	jalr	432(ra)
ffffffff802046c0: 00 00                	unimp	
ffffffff802046c2: 00 00                	unimp	
ffffffff802046c4: 0f 00 10 03          	fence	rw, w
ffffffff802046c8: 42 65                	ld	a0, 16(sp)
ffffffff802046ca: e2 65                	ld	a1, 24(sp)
ffffffff802046cc: 23 80 a5 00          	sb	a0, 0(a1)
ffffffff802046d0: 09 a0                	j	2
ffffffff802046d2: 35 a8                	j	60
ffffffff802046d4: 42 65                	ld	a0, 16(sp)
ffffffff802046d6: e2 65                	ld	a1, 24(sp)
ffffffff802046d8: 23 80 a5 00          	sb	a0, 0(a1)
ffffffff802046dc: 09 a0                	j	2
ffffffff802046de: 05 a8                	j	48
ffffffff802046e0: 0f 00 10 03          	fence	rw, w
ffffffff802046e4: 42 65                	ld	a0, 16(sp)
ffffffff802046e6: e2 65                	ld	a1, 24(sp)
ffffffff802046e8: 23 80 a5 00          	sb	a0, 0(a1)
ffffffff802046ec: 09 a0                	j	2
ffffffff802046ee: 05 a0                	j	32

ffffffff802046f0 .LBB6_17:
ffffffff802046f0: 17 85 00 00          	auipc	a0, 8
ffffffff802046f4: 13 05 25 ea          	addi	a0, a0, -350

ffffffff802046f8 .LBB6_18:
ffffffff802046f8: 17 86 00 00          	auipc	a2, 8
ffffffff802046fc: 13 06 86 e2          	addi	a2, a2, -472
ffffffff80204700: 93 05 a0 02          	addi	a1, zero, 42
ffffffff80204704: 97 40 00 00          	auipc	ra, 4
ffffffff80204708: e7 80 40 16          	jalr	356(ra)
ffffffff8020470c: 00 00                	unimp	
ffffffff8020470e: 21 61                	addi	sp, sp, 64
ffffffff80204710: 82 80                	ret

ffffffff80204712 _ZN4core4sync6atomic14spin_loop_hint17hbf4b2058ce12f5a4E:
ffffffff80204712: 41 11                	addi	sp, sp, -16
ffffffff80204714: 06 e4                	sd	ra, 8(sp)
ffffffff80204716: 97 10 00 00          	auipc	ra, 1
ffffffff8020471a: e7 80 40 4a          	jalr	1188(ra)
ffffffff8020471e: 09 a0                	j	2
ffffffff80204720: a2 60                	ld	ra, 8(sp)
ffffffff80204722: 41 01                	addi	sp, sp, 16
ffffffff80204724: 82 80                	ret

ffffffff80204726 _ZN4core4sync6atomic23atomic_compare_exchange17h3cddf94e0adee71fE:
ffffffff80204726: 59 71                	addi	sp, sp, -112
ffffffff80204728: ba 87                	add	a5, zero, a4
ffffffff8020472a: 36 88                	add	a6, zero, a3
ffffffff8020472c: b2 88                	add	a7, zero, a2
ffffffff8020472e: ae 82                	add	t0, zero, a1
ffffffff80204730: aa f0                	sd	a0, 96(sp)
ffffffff80204732: 23 05 b1 06          	sb	a1, 106(sp)
ffffffff80204736: a3 05 c1 06          	sb	a2, 107(sp)
ffffffff8020473a: 23 06 d1 06          	sb	a3, 108(sp)
ffffffff8020473e: a3 06 e1 06          	sb	a4, 109(sp)
ffffffff80204742: 23 0c d1 04          	sb	a3, 88(sp)
ffffffff80204746: a3 0c e1 04          	sb	a4, 89(sp)
ffffffff8020474a: 93 f5 f6 0f          	andi	a1, a3, 255
ffffffff8020474e: 01 46                	mv	a2, zero
ffffffff80204750: aa e0                	sd	a0, 64(sp)
ffffffff80204752: 46 fc                	sd	a7, 56(sp)
ffffffff80204754: 16 f8                	sd	t0, 48(sp)
ffffffff80204756: 2e f4                	sd	a1, 40(sp)
ffffffff80204758: 63 87 c5 02          	beq	a1, a2, 46
ffffffff8020475c: 09 a0                	j	2
ffffffff8020475e: 05 45                	addi	a0, zero, 1
ffffffff80204760: a2 75                	ld	a1, 40(sp)
ffffffff80204762: 63 84 a5 04          	beq	a1, a0, 72
ffffffff80204766: 09 a0                	j	2
ffffffff80204768: 09 45                	addi	a0, zero, 2
ffffffff8020476a: a2 75                	ld	a1, 40(sp)
ffffffff8020476c: 63 85 a5 04          	beq	a1, a0, 74
ffffffff80204770: 09 a0                	j	2
ffffffff80204772: 0d 45                	addi	a0, zero, 3
ffffffff80204774: a2 75                	ld	a1, 40(sp)
ffffffff80204776: 63 8c a5 04          	beq	a1, a0, 88
ffffffff8020477a: 09 a0                	j	2
ffffffff8020477c: 11 45                	addi	a0, zero, 4
ffffffff8020477e: a2 75                	ld	a1, 40(sp)
ffffffff80204780: 63 83 a5 06          	beq	a1, a0, 102
ffffffff80204784: 39 a0                	j	14
ffffffff80204786: 03 45 91 05          	lbu	a0, 89(sp)
ffffffff8020478a: 81 45                	mv	a1, zero
ffffffff8020478c: 63 03 b5 1c          	beq	a0, a1, 454
ffffffff80204790: 09 a0                	j	2
ffffffff80204792: 03 45 91 05          	lbu	a0, 89(sp)
ffffffff80204796: 85 45                	addi	a1, zero, 1
ffffffff80204798: 2a f0                	sd	a0, 32(sp)
ffffffff8020479a: 63 07 b5 42          	beq	a0, a1, 1070
ffffffff8020479e: 09 a0                	j	2
ffffffff802047a0: 0d 45                	addi	a0, zero, 3
ffffffff802047a2: 82 75                	ld	a1, 32(sp)
ffffffff802047a4: 63 83 a5 40          	beq	a1, a0, 1030
ffffffff802047a8: 85 a0                	j	96
ffffffff802047aa: 03 45 91 05          	lbu	a0, 89(sp)
ffffffff802047ae: 81 45                	mv	a1, zero
ffffffff802047b0: 63 0d b5 0c          	beq	a0, a1, 218
ffffffff802047b4: f9 bf                	j	-34
ffffffff802047b6: 03 45 91 05          	lbu	a0, 89(sp)
ffffffff802047ba: 81 45                	mv	a1, zero
ffffffff802047bc: 2a ec                	sd	a0, 24(sp)
ffffffff802047be: 63 0e b5 24          	beq	a0, a1, 604
ffffffff802047c2: 09 a0                	j	2
ffffffff802047c4: 09 45                	addi	a0, zero, 2
ffffffff802047c6: e2 65                	ld	a1, 24(sp)
ffffffff802047c8: 63 8f a5 04          	beq	a1, a0, 94
ffffffff802047cc: d9 b7                	j	-58
ffffffff802047ce: 03 45 91 05          	lbu	a0, 89(sp)
ffffffff802047d2: 81 45                	mv	a1, zero
ffffffff802047d4: 2a e8                	sd	a0, 16(sp)
ffffffff802047d6: 63 04 b5 2a          	beq	a0, a1, 680
ffffffff802047da: 09 a0                	j	2
ffffffff802047dc: 09 45                	addi	a0, zero, 2
ffffffff802047de: c2 65                	ld	a1, 16(sp)
ffffffff802047e0: 63 87 a5 10          	beq	a1, a0, 270
ffffffff802047e4: 7d b7                	j	-82
ffffffff802047e6: 03 45 91 05          	lbu	a0, 89(sp)
ffffffff802047ea: 81 45                	mv	a1, zero
ffffffff802047ec: 2a e4                	sd	a0, 8(sp)
ffffffff802047ee: 63 0a b5 2e          	beq	a0, a1, 756
ffffffff802047f2: 09 a0                	j	2
ffffffff802047f4: 09 45                	addi	a0, zero, 2
ffffffff802047f6: a2 65                	ld	a1, 8(sp)
ffffffff802047f8: 63 87 a5 34          	beq	a1, a0, 846
ffffffff802047fc: 09 a0                	j	2
ffffffff802047fe: 11 45                	addi	a0, zero, 4
ffffffff80204800: a2 65                	ld	a1, 8(sp)
ffffffff80204802: 63 8a a5 1a          	beq	a1, a0, 436
ffffffff80204806: 71 b7                	j	-116

ffffffff80204808 .LBB8_41:
ffffffff80204808: 17 85 00 00          	auipc	a0, 8
ffffffff8020480c: 13 05 45 db          	addi	a0, a0, -588

ffffffff80204810 .LBB8_42:
ffffffff80204810: 17 86 00 00          	auipc	a2, 8
ffffffff80204814: 13 06 06 d1          	addi	a2, a2, -752
ffffffff80204818: 93 05 c0 03          	addi	a1, zero, 60
ffffffff8020481c: 97 40 00 00          	auipc	ra, 4
ffffffff80204820: e7 80 c0 04          	jalr	76(ra)
ffffffff80204824: 00 00                	unimp	
ffffffff80204826: 06 65                	ld	a0, 64(sp)
ffffffff80204828: 93 75 c5 ff          	andi	a1, a0, -4
ffffffff8020482c: 13 16 35 00          	slli	a2, a0, 3
ffffffff80204830: 61 8a                	andi	a2, a2, 24
ffffffff80204832: 93 06 f0 0f          	addi	a3, zero, 255
ffffffff80204836: bb 96 c6 00          	sllw	a3, a3, a2
ffffffff8020483a: 42 77                	ld	a4, 48(sp)
ffffffff8020483c: 93 77 f7 0f          	andi	a5, a4, 255
ffffffff80204840: bb 97 c7 00          	sllw	a5, a5, a2
ffffffff80204844: 62 78                	ld	a6, 56(sp)
ffffffff80204846: 93 78 f8 0f          	andi	a7, a6, 255
ffffffff8020484a: bb 98 c8 00          	sllw	a7, a7, a2
ffffffff8020484e: af a2 05 14          	<unknown>
ffffffff80204852: 33 f3 d2 00          	and	t1, t0, a3
ffffffff80204856: 63 1c f3 00          	bne	t1, a5, 24
ffffffff8020485a: 33 c3 12 01          	xor	t1, t0, a7
ffffffff8020485e: 33 73 d3 00          	and	t1, t1, a3
ffffffff80204862: 33 c3 62 00          	xor	t1, t0, t1
ffffffff80204866: 2f a3 65 18          	<unknown>
ffffffff8020486a: e3 12 03 fe          	bnez	t1, -28
ffffffff8020486e: bb d5 c2 00          	srlw	a1, t0, a2
ffffffff80204872: 33 f6 d2 00          	and	a2, t0, a3
ffffffff80204876: 01 26                	sext.w	a2, a2
ffffffff80204878: 3d 8e                	xor	a2, a2, a5
ffffffff8020487a: 13 36 16 00          	seqz	a2, a2
ffffffff8020487e: 23 08 b1 04          	sb	a1, 80(sp)
ffffffff80204882: a3 08 c1 04          	sb	a2, 81(sp)
ffffffff80204886: 09 a0                	j	2
ffffffff80204888: b9 ae                	j	862
ffffffff8020488a: 06 65                	ld	a0, 64(sp)
ffffffff8020488c: 93 75 c5 ff          	andi	a1, a0, -4
ffffffff80204890: 13 16 35 00          	slli	a2, a0, 3
ffffffff80204894: 61 8a                	andi	a2, a2, 24
ffffffff80204896: 93 06 f0 0f          	addi	a3, zero, 255
ffffffff8020489a: bb 96 c6 00          	sllw	a3, a3, a2
ffffffff8020489e: 42 77                	ld	a4, 48(sp)
ffffffff802048a0: 93 77 f7 0f          	andi	a5, a4, 255
ffffffff802048a4: bb 97 c7 00          	sllw	a5, a5, a2
ffffffff802048a8: 62 78                	ld	a6, 56(sp)
ffffffff802048aa: 93 78 f8 0f          	andi	a7, a6, 255
ffffffff802048ae: bb 98 c8 00          	sllw	a7, a7, a2
ffffffff802048b2: af a2 05 10          	<unknown>
ffffffff802048b6: 33 f3 d2 00          	and	t1, t0, a3
ffffffff802048ba: 63 1c f3 00          	bne	t1, a5, 24
ffffffff802048be: 33 c3 12 01          	xor	t1, t0, a7
ffffffff802048c2: 33 73 d3 00          	and	t1, t1, a3
ffffffff802048c6: 33 c3 62 00          	xor	t1, t0, t1
ffffffff802048ca: 2f a3 65 1a          	<unknown>
ffffffff802048ce: e3 12 03 fe          	bnez	t1, -28
ffffffff802048d2: bb d5 c2 00          	srlw	a1, t0, a2
ffffffff802048d6: 33 f6 d2 00          	and	a2, t0, a3
ffffffff802048da: 01 26                	sext.w	a2, a2
ffffffff802048dc: 3d 8e                	xor	a2, a2, a5
ffffffff802048de: 13 36 16 00          	seqz	a2, a2
ffffffff802048e2: 23 08 b1 04          	sb	a1, 80(sp)
ffffffff802048e6: a3 08 c1 04          	sb	a2, 81(sp)
ffffffff802048ea: 09 a0                	j	2
ffffffff802048ec: ed ac                	j	762
ffffffff802048ee: 06 65                	ld	a0, 64(sp)
ffffffff802048f0: 93 75 c5 ff          	andi	a1, a0, -4
ffffffff802048f4: 13 16 35 00          	slli	a2, a0, 3
ffffffff802048f8: 61 8a                	andi	a2, a2, 24
ffffffff802048fa: 93 06 f0 0f          	addi	a3, zero, 255
ffffffff802048fe: bb 96 c6 00          	sllw	a3, a3, a2
ffffffff80204902: 42 77                	ld	a4, 48(sp)
ffffffff80204904: 93 77 f7 0f          	andi	a5, a4, 255
ffffffff80204908: bb 97 c7 00          	sllw	a5, a5, a2
ffffffff8020490c: 62 78                	ld	a6, 56(sp)
ffffffff8020490e: 93 78 f8 0f          	andi	a7, a6, 255
ffffffff80204912: bb 98 c8 00          	sllw	a7, a7, a2
ffffffff80204916: af a2 05 14          	<unknown>
ffffffff8020491a: 33 f3 d2 00          	and	t1, t0, a3
ffffffff8020491e: 63 1c f3 00          	bne	t1, a5, 24
ffffffff80204922: 33 c3 12 01          	xor	t1, t0, a7
ffffffff80204926: 33 73 d3 00          	and	t1, t1, a3
ffffffff8020492a: 33 c3 62 00          	xor	t1, t0, t1
ffffffff8020492e: 2f a3 65 1a          	<unknown>
ffffffff80204932: e3 12 03 fe          	bnez	t1, -28
ffffffff80204936: bb d5 c2 00          	srlw	a1, t0, a2
ffffffff8020493a: 33 f6 d2 00          	and	a2, t0, a3
ffffffff8020493e: 01 26                	sext.w	a2, a2
ffffffff80204940: 3d 8e                	xor	a2, a2, a5
ffffffff80204942: 13 36 16 00          	seqz	a2, a2
ffffffff80204946: 23 08 b1 04          	sb	a1, 80(sp)
ffffffff8020494a: a3 08 c1 04          	sb	a2, 81(sp)
ffffffff8020494e: 09 a0                	j	2
ffffffff80204950: 59 ac                	j	662
ffffffff80204952: 06 65                	ld	a0, 64(sp)
ffffffff80204954: 93 75 c5 ff          	andi	a1, a0, -4
ffffffff80204958: 13 16 35 00          	slli	a2, a0, 3
ffffffff8020495c: 61 8a                	andi	a2, a2, 24
ffffffff8020495e: 93 06 f0 0f          	addi	a3, zero, 255
ffffffff80204962: bb 96 c6 00          	sllw	a3, a3, a2
ffffffff80204966: 42 77                	ld	a4, 48(sp)
ffffffff80204968: 93 77 f7 0f          	andi	a5, a4, 255
ffffffff8020496c: bb 97 c7 00          	sllw	a5, a5, a2
ffffffff80204970: 62 78                	ld	a6, 56(sp)
ffffffff80204972: 93 78 f8 0f          	andi	a7, a6, 255
ffffffff80204976: bb 98 c8 00          	sllw	a7, a7, a2
ffffffff8020497a: af a2 05 10          	<unknown>
ffffffff8020497e: 33 f3 d2 00          	and	t1, t0, a3
ffffffff80204982: 63 1c f3 00          	bne	t1, a5, 24
ffffffff80204986: 33 c3 12 01          	xor	t1, t0, a7
ffffffff8020498a: 33 73 d3 00          	and	t1, t1, a3
ffffffff8020498e: 33 c3 62 00          	xor	t1, t0, t1
ffffffff80204992: 2f a3 65 18          	<unknown>
ffffffff80204996: e3 12 03 fe          	bnez	t1, -28
ffffffff8020499a: bb d5 c2 00          	srlw	a1, t0, a2
ffffffff8020499e: 33 f6 d2 00          	and	a2, t0, a3
ffffffff802049a2: 01 26                	sext.w	a2, a2
ffffffff802049a4: 3d 8e                	xor	a2, a2, a5
ffffffff802049a6: 13 36 16 00          	seqz	a2, a2
ffffffff802049aa: 23 08 b1 04          	sb	a1, 80(sp)
ffffffff802049ae: a3 08 c1 04          	sb	a2, 81(sp)
ffffffff802049b2: 09 a0                	j	2
ffffffff802049b4: 0d ac                	j	562
ffffffff802049b6: 06 65                	ld	a0, 64(sp)
ffffffff802049b8: 93 75 c5 ff          	andi	a1, a0, -4
ffffffff802049bc: 13 16 35 00          	slli	a2, a0, 3
ffffffff802049c0: 61 8a                	andi	a2, a2, 24
ffffffff802049c2: 93 06 f0 0f          	addi	a3, zero, 255
ffffffff802049c6: bb 96 c6 00          	sllw	a3, a3, a2
ffffffff802049ca: 42 77                	ld	a4, 48(sp)
ffffffff802049cc: 93 77 f7 0f          	andi	a5, a4, 255
ffffffff802049d0: bb 97 c7 00          	sllw	a5, a5, a2
ffffffff802049d4: 62 78                	ld	a6, 56(sp)
ffffffff802049d6: 93 78 f8 0f          	andi	a7, a6, 255
ffffffff802049da: bb 98 c8 00          	sllw	a7, a7, a2
ffffffff802049de: af a2 05 16          	<unknown>
ffffffff802049e2: 33 f3 d2 00          	and	t1, t0, a3
ffffffff802049e6: 63 1c f3 00          	bne	t1, a5, 24
ffffffff802049ea: 33 c3 12 01          	xor	t1, t0, a7
ffffffff802049ee: 33 73 d3 00          	and	t1, t1, a3
ffffffff802049f2: 33 c3 62 00          	xor	t1, t0, t1
ffffffff802049f6: 2f a3 65 1e          	<unknown>
ffffffff802049fa: e3 12 03 fe          	bnez	t1, -28
ffffffff802049fe: bb d5 c2 00          	srlw	a1, t0, a2
ffffffff80204a02: 33 f6 d2 00          	and	a2, t0, a3
ffffffff80204a06: 01 26                	sext.w	a2, a2
ffffffff80204a08: 3d 8e                	xor	a2, a2, a5
ffffffff80204a0a: 13 36 16 00          	seqz	a2, a2
ffffffff80204a0e: 23 08 b1 04          	sb	a1, 80(sp)
ffffffff80204a12: a3 08 c1 04          	sb	a2, 81(sp)
ffffffff80204a16: 09 a0                	j	2
ffffffff80204a18: f9 a2                	j	462
ffffffff80204a1a: 06 65                	ld	a0, 64(sp)
ffffffff80204a1c: 93 75 c5 ff          	andi	a1, a0, -4
ffffffff80204a20: 13 16 35 00          	slli	a2, a0, 3
ffffffff80204a24: 61 8a                	andi	a2, a2, 24
ffffffff80204a26: 93 06 f0 0f          	addi	a3, zero, 255
ffffffff80204a2a: bb 96 c6 00          	sllw	a3, a3, a2
ffffffff80204a2e: 42 77                	ld	a4, 48(sp)
ffffffff80204a30: 93 77 f7 0f          	andi	a5, a4, 255
ffffffff80204a34: bb 97 c7 00          	sllw	a5, a5, a2
ffffffff80204a38: 62 78                	ld	a6, 56(sp)
ffffffff80204a3a: 93 78 f8 0f          	andi	a7, a6, 255
ffffffff80204a3e: bb 98 c8 00          	sllw	a7, a7, a2
ffffffff80204a42: af a2 05 14          	<unknown>
ffffffff80204a46: 33 f3 d2 00          	and	t1, t0, a3
ffffffff80204a4a: 63 1c f3 00          	bne	t1, a5, 24
ffffffff80204a4e: 33 c3 12 01          	xor	t1, t0, a7
ffffffff80204a52: 33 73 d3 00          	and	t1, t1, a3
ffffffff80204a56: 33 c3 62 00          	xor	t1, t0, t1
ffffffff80204a5a: 2f a3 65 18          	<unknown>
ffffffff80204a5e: e3 12 03 fe          	bnez	t1, -28
ffffffff80204a62: bb d5 c2 00          	srlw	a1, t0, a2
ffffffff80204a66: 33 f6 d2 00          	and	a2, t0, a3
ffffffff80204a6a: 01 26                	sext.w	a2, a2
ffffffff80204a6c: 3d 8e                	xor	a2, a2, a5
ffffffff80204a6e: 13 36 16 00          	seqz	a2, a2
ffffffff80204a72: 23 08 b1 04          	sb	a1, 80(sp)
ffffffff80204a76: a3 08 c1 04          	sb	a2, 81(sp)
ffffffff80204a7a: 09 a0                	j	2
ffffffff80204a7c: ad a2                	j	362
ffffffff80204a7e: 06 65                	ld	a0, 64(sp)
ffffffff80204a80: 93 75 c5 ff          	andi	a1, a0, -4
ffffffff80204a84: 13 16 35 00          	slli	a2, a0, 3
ffffffff80204a88: 61 8a                	andi	a2, a2, 24
ffffffff80204a8a: 93 06 f0 0f          	addi	a3, zero, 255
ffffffff80204a8e: bb 96 c6 00          	sllw	a3, a3, a2
ffffffff80204a92: 42 77                	ld	a4, 48(sp)
ffffffff80204a94: 93 77 f7 0f          	andi	a5, a4, 255
ffffffff80204a98: bb 97 c7 00          	sllw	a5, a5, a2
ffffffff80204a9c: 62 78                	ld	a6, 56(sp)
ffffffff80204a9e: 93 78 f8 0f          	andi	a7, a6, 255
ffffffff80204aa2: bb 98 c8 00          	sllw	a7, a7, a2
ffffffff80204aa6: af a2 05 14          	<unknown>
ffffffff80204aaa: 33 f3 d2 00          	and	t1, t0, a3
ffffffff80204aae: 63 1c f3 00          	bne	t1, a5, 24
ffffffff80204ab2: 33 c3 12 01          	xor	t1, t0, a7
ffffffff80204ab6: 33 73 d3 00          	and	t1, t1, a3
ffffffff80204aba: 33 c3 62 00          	xor	t1, t0, t1
ffffffff80204abe: 2f a3 65 1a          	<unknown>
ffffffff80204ac2: e3 12 03 fe          	bnez	t1, -28
ffffffff80204ac6: bb d5 c2 00          	srlw	a1, t0, a2
ffffffff80204aca: 33 f6 d2 00          	and	a2, t0, a3
ffffffff80204ace: 01 26                	sext.w	a2, a2
ffffffff80204ad0: 3d 8e                	xor	a2, a2, a5
ffffffff80204ad2: 13 36 16 00          	seqz	a2, a2
ffffffff80204ad6: 23 08 b1 04          	sb	a1, 80(sp)
ffffffff80204ada: a3 08 c1 04          	sb	a2, 81(sp)
ffffffff80204ade: 09 a0                	j	2
ffffffff80204ae0: 19 a2                	j	262
ffffffff80204ae2: 06 65                	ld	a0, 64(sp)
ffffffff80204ae4: 93 75 c5 ff          	andi	a1, a0, -4
ffffffff80204ae8: 13 16 35 00          	slli	a2, a0, 3
ffffffff80204aec: 61 8a                	andi	a2, a2, 24
ffffffff80204aee: 93 06 f0 0f          	addi	a3, zero, 255
ffffffff80204af2: bb 96 c6 00          	sllw	a3, a3, a2
ffffffff80204af6: 42 77                	ld	a4, 48(sp)
ffffffff80204af8: 93 77 f7 0f          	andi	a5, a4, 255
ffffffff80204afc: bb 97 c7 00          	sllw	a5, a5, a2
ffffffff80204b00: 62 78                	ld	a6, 56(sp)
ffffffff80204b02: 93 78 f8 0f          	andi	a7, a6, 255
ffffffff80204b06: bb 98 c8 00          	sllw	a7, a7, a2
ffffffff80204b0a: af a2 05 16          	<unknown>
ffffffff80204b0e: 33 f3 d2 00          	and	t1, t0, a3
ffffffff80204b12: 63 1c f3 00          	bne	t1, a5, 24
ffffffff80204b16: 33 c3 12 01          	xor	t1, t0, a7
ffffffff80204b1a: 33 73 d3 00          	and	t1, t1, a3
ffffffff80204b1e: 33 c3 62 00          	xor	t1, t0, t1
ffffffff80204b22: 2f a3 65 1e          	<unknown>
ffffffff80204b26: e3 12 03 fe          	bnez	t1, -28
ffffffff80204b2a: bb d5 c2 00          	srlw	a1, t0, a2
ffffffff80204b2e: 33 f6 d2 00          	and	a2, t0, a3
ffffffff80204b32: 01 26                	sext.w	a2, a2
ffffffff80204b34: 3d 8e                	xor	a2, a2, a5
ffffffff80204b36: 13 36 16 00          	seqz	a2, a2
ffffffff80204b3a: 23 08 b1 04          	sb	a1, 80(sp)
ffffffff80204b3e: a3 08 c1 04          	sb	a2, 81(sp)
ffffffff80204b42: 09 a0                	j	2
ffffffff80204b44: 4d a0                	j	162
ffffffff80204b46: 06 65                	ld	a0, 64(sp)
ffffffff80204b48: 93 75 c5 ff          	andi	a1, a0, -4
ffffffff80204b4c: 13 16 35 00          	slli	a2, a0, 3
ffffffff80204b50: 61 8a                	andi	a2, a2, 24
ffffffff80204b52: 93 06 f0 0f          	addi	a3, zero, 255
ffffffff80204b56: bb 96 c6 00          	sllw	a3, a3, a2
ffffffff80204b5a: 42 77                	ld	a4, 48(sp)
ffffffff80204b5c: 93 77 f7 0f          	andi	a5, a4, 255
ffffffff80204b60: bb 97 c7 00          	sllw	a5, a5, a2
ffffffff80204b64: 62 78                	ld	a6, 56(sp)
ffffffff80204b66: 93 78 f8 0f          	andi	a7, a6, 255
ffffffff80204b6a: bb 98 c8 00          	sllw	a7, a7, a2
ffffffff80204b6e: af a2 05 16          	<unknown>
ffffffff80204b72: 33 f3 d2 00          	and	t1, t0, a3
ffffffff80204b76: 63 1c f3 00          	bne	t1, a5, 24
ffffffff80204b7a: 33 c3 12 01          	xor	t1, t0, a7
ffffffff80204b7e: 33 73 d3 00          	and	t1, t1, a3
ffffffff80204b82: 33 c3 62 00          	xor	t1, t0, t1
ffffffff80204b86: 2f a3 65 1e          	<unknown>
ffffffff80204b8a: e3 12 03 fe          	bnez	t1, -28
ffffffff80204b8e: bb d5 c2 00          	srlw	a1, t0, a2
ffffffff80204b92: 33 f6 d2 00          	and	a2, t0, a3
ffffffff80204b96: 01 26                	sext.w	a2, a2
ffffffff80204b98: 3d 8e                	xor	a2, a2, a5
ffffffff80204b9a: 13 36 16 00          	seqz	a2, a2
ffffffff80204b9e: 23 08 b1 04          	sb	a1, 80(sp)
ffffffff80204ba2: a3 08 c1 04          	sb	a2, 81(sp)
ffffffff80204ba6: 09 a0                	j	2
ffffffff80204ba8: 3d a8                	j	62

ffffffff80204baa .LBB8_70:
ffffffff80204baa: 17 85 00 00          	auipc	a0, 8
ffffffff80204bae: 13 05 e5 a4          	addi	a0, a0, -1458

ffffffff80204bb2 .LBB8_71:
ffffffff80204bb2: 17 86 00 00          	auipc	a2, 8
ffffffff80204bb6: 13 06 e6 96          	addi	a2, a2, -1682
ffffffff80204bba: 93 05 d0 03          	addi	a1, zero, 61
ffffffff80204bbe: 97 40 00 00          	auipc	ra, 4
ffffffff80204bc2: e7 80 a0 ca          	jalr	-854(ra)
ffffffff80204bc6: 00 00                	unimp	

ffffffff80204bc8 .LBB8_72:
ffffffff80204bc8: 17 85 00 00          	auipc	a0, 8
ffffffff80204bcc: 13 05 d5 a6          	addi	a0, a0, -1427

ffffffff80204bd0 .LBB8_73:
ffffffff80204bd0: 17 86 00 00          	auipc	a2, 8
ffffffff80204bd4: 13 06 06 95          	addi	a2, a2, -1712
ffffffff80204bd8: 93 05 40 03          	addi	a1, zero, 52
ffffffff80204bdc: 97 40 00 00          	auipc	ra, 4
ffffffff80204be0: e7 80 c0 c8          	jalr	-884(ra)
ffffffff80204be4: 00 00                	unimp	
ffffffff80204be6: 03 45 01 05          	lbu	a0, 80(sp)
ffffffff80204bea: 23 07 a1 06          	sb	a0, 110(sp)
ffffffff80204bee: 83 45 11 05          	lbu	a1, 81(sp)
ffffffff80204bf2: 13 f6 15 00          	andi	a2, a1, 1
ffffffff80204bf6: a3 07 b1 06          	sb	a1, 111(sp)
ffffffff80204bfa: 2a e0                	sd	a0, 0(sp)
ffffffff80204bfc: 09 ea                	bnez	a2, 18
ffffffff80204bfe: 09 a0                	j	2
ffffffff80204c00: 02 65                	ld	a0, 0(sp)
ffffffff80204c02: a3 04 a1 04          	sb	a0, 73(sp)
ffffffff80204c06: 85 45                	addi	a1, zero, 1
ffffffff80204c08: 23 04 b1 04          	sb	a1, 72(sp)
ffffffff80204c0c: 01 a8                	j	16
ffffffff80204c0e: 02 65                	ld	a0, 0(sp)
ffffffff80204c10: a3 04 a1 04          	sb	a0, 73(sp)
ffffffff80204c14: 81 45                	mv	a1, zero
ffffffff80204c16: 23 04 b1 04          	sb	a1, 72(sp)
ffffffff80204c1a: 09 a0                	j	2
ffffffff80204c1c: 03 45 81 04          	lbu	a0, 72(sp)
ffffffff80204c20: 83 05 91 04          	lb	a1, 73(sp)
ffffffff80204c24: 65 61                	addi	sp, sp, 112
ffffffff80204c26: 82 80                	ret

ffffffff80204c28 _ZN4core4sync6atomic26strongest_failure_ordering17h9ece9e2c7061a01eE:
ffffffff80204c28: 41 11                	addi	sp, sp, -16
ffffffff80204c2a: aa 85                	add	a1, zero, a0
ffffffff80204c2c: 23 07 a1 00          	sb	a0, 14(sp)
ffffffff80204c30: 13 75 f5 0f          	andi	a0, a0, 255
ffffffff80204c34: 01 46                	mv	a2, zero
ffffffff80204c36: 2a e0                	sd	a0, 0(sp)
ffffffff80204c38: 63 0c c5 02          	beq	a0, a2, 56
ffffffff80204c3c: 09 a0                	j	2
ffffffff80204c3e: 05 45                	addi	a0, zero, 1
ffffffff80204c40: 82 65                	ld	a1, 0(sp)
ffffffff80204c42: 63 83 a5 02          	beq	a1, a0, 38
ffffffff80204c46: 09 a0                	j	2
ffffffff80204c48: 09 45                	addi	a0, zero, 2
ffffffff80204c4a: 82 65                	ld	a1, 0(sp)
ffffffff80204c4c: 63 8a a5 02          	beq	a1, a0, 52
ffffffff80204c50: 09 a0                	j	2
ffffffff80204c52: 0d 45                	addi	a0, zero, 3
ffffffff80204c54: 82 65                	ld	a1, 0(sp)
ffffffff80204c56: 63 84 a5 00          	beq	a1, a0, 8
ffffffff80204c5a: 09 a0                	j	2
ffffffff80204c5c: 31 a8                	j	28
ffffffff80204c5e: 09 45                	addi	a0, zero, 2
ffffffff80204c60: a3 07 a1 00          	sb	a0, 15(sp)
ffffffff80204c64: 15 a0                	j	36
ffffffff80204c66: 00 00                	unimp	
ffffffff80204c68: 01 45                	mv	a0, zero
ffffffff80204c6a: a3 07 a1 00          	sb	a0, 15(sp)
ffffffff80204c6e: 29 a8                	j	26
ffffffff80204c70: 01 45                	mv	a0, zero
ffffffff80204c72: a3 07 a1 00          	sb	a0, 15(sp)
ffffffff80204c76: 09 a8                	j	18
ffffffff80204c78: 11 45                	addi	a0, zero, 4
ffffffff80204c7a: a3 07 a1 00          	sb	a0, 15(sp)
ffffffff80204c7e: 29 a0                	j	10
ffffffff80204c80: 09 45                	addi	a0, zero, 2
ffffffff80204c82: a3 07 a1 00          	sb	a0, 15(sp)
ffffffff80204c86: 09 a0                	j	2
ffffffff80204c88: 03 05 f1 00          	lb	a0, 15(sp)
ffffffff80204c8c: 41 01                	addi	sp, sp, 16
ffffffff80204c8e: 82 80                	ret

ffffffff80204c90 _ZN4core10intrinsics11write_bytes17h2be155d8c38055c1E:
ffffffff80204c90: 79 71                	addi	sp, sp, -48
ffffffff80204c92: 06 f4                	sd	ra, 40(sp)
ffffffff80204c94: ae 86                	add	a3, zero, a1
ffffffff80204c96: 2a e8                	sd	a0, 16(sp)
ffffffff80204c98: a3 0f b1 00          	sb	a1, 31(sp)
ffffffff80204c9c: 32 f0                	sd	a2, 32(sp)
ffffffff80204c9e: 36 e4                	sd	a3, 8(sp)
ffffffff80204ca0: 97 60 00 00          	auipc	ra, 6
ffffffff80204ca4: e7 80 60 b3          	jalr	-1226(ra)
ffffffff80204ca8: 09 a0                	j	2
ffffffff80204caa: a2 70                	ld	ra, 40(sp)
ffffffff80204cac: 45 61                	addi	sp, sp, 48
ffffffff80204cae: 82 80                	ret

ffffffff80204cb0 _ZN4core10intrinsics19copy_nonoverlapping17hba3e291a010069c1E:
ffffffff80204cb0: 79 71                	addi	sp, sp, -48
ffffffff80204cb2: 06 f4                	sd	ra, 40(sp)
ffffffff80204cb4: 2a e8                	sd	a0, 16(sp)
ffffffff80204cb6: 2e ec                	sd	a1, 24(sp)
ffffffff80204cb8: 32 f0                	sd	a2, 32(sp)
ffffffff80204cba: 2a e4                	sd	a0, 8(sp)
ffffffff80204cbc: 2e 85                	add	a0, zero, a1
ffffffff80204cbe: a2 65                	ld	a1, 8(sp)
ffffffff80204cc0: 97 60 00 00          	auipc	ra, 6
ffffffff80204cc4: e7 80 00 b0          	jalr	-1280(ra)
ffffffff80204cc8: 09 a0                	j	2
ffffffff80204cca: a2 70                	ld	ra, 40(sp)
ffffffff80204ccc: 45 61                	addi	sp, sp, 48
ffffffff80204cce: 82 80                	ret

ffffffff80204cd0 _ZN4core10intrinsics19copy_nonoverlapping17he682f7ef9c8b1e27E:
ffffffff80204cd0: 79 71                	addi	sp, sp, -48
ffffffff80204cd2: 06 f4                	sd	ra, 40(sp)
ffffffff80204cd4: 2a e8                	sd	a0, 16(sp)
ffffffff80204cd6: 2e ec                	sd	a1, 24(sp)
ffffffff80204cd8: 32 f0                	sd	a2, 32(sp)
ffffffff80204cda: 0e 06                	slli	a2, a2, 3
ffffffff80204cdc: 2a e4                	sd	a0, 8(sp)
ffffffff80204cde: 2e 85                	add	a0, zero, a1
ffffffff80204ce0: a2 65                	ld	a1, 8(sp)
ffffffff80204ce2: 97 60 00 00          	auipc	ra, 6
ffffffff80204ce6: e7 80 e0 ad          	jalr	-1314(ra)
ffffffff80204cea: 09 a0                	j	2
ffffffff80204cec: a2 70                	ld	ra, 40(sp)
ffffffff80204cee: 45 61                	addi	sp, sp, 48
ffffffff80204cf0: 82 80                	ret

ffffffff80204cf2 _ZN4core5alloc6layout6Layout4size17hc7570d57f9c21f43E:
ffffffff80204cf2: 41 11                	addi	sp, sp, -16
ffffffff80204cf4: 2a e4                	sd	a0, 8(sp)
ffffffff80204cf6: 08 61                	ld	a0, 0(a0)
ffffffff80204cf8: 41 01                	addi	sp, sp, 16
ffffffff80204cfa: 82 80                	ret

ffffffff80204cfc _ZN4core5alloc6layout6Layout5align17h3f0be4659dd89e98E:
ffffffff80204cfc: 01 11                	addi	sp, sp, -32
ffffffff80204cfe: 06 ec                	sd	ra, 24(sp)
ffffffff80204d00: 2a e8                	sd	a0, 16(sp)
ffffffff80204d02: 08 65                	ld	a0, 8(a0)
ffffffff80204d04: 97 00 00 00          	auipc	ra, 0
ffffffff80204d08: e7 80 20 06          	jalr	98(ra)
ffffffff80204d0c: 2a e4                	sd	a0, 8(sp)
ffffffff80204d0e: 09 a0                	j	2
ffffffff80204d10: 22 65                	ld	a0, 8(sp)
ffffffff80204d12: e2 60                	ld	ra, 24(sp)
ffffffff80204d14: 05 61                	addi	sp, sp, 32
ffffffff80204d16: 82 80                	ret

ffffffff80204d18 _ZN44_$LT$$RF$T$u20$as$u20$core..fmt..Display$GT$3fmt17hb657afcfa28e4934E:
ffffffff80204d18: 79 71                	addi	sp, sp, -48
ffffffff80204d1a: 06 f4                	sd	ra, 40(sp)
ffffffff80204d1c: 2a ec                	sd	a0, 24(sp)
ffffffff80204d1e: 2e f0                	sd	a1, 32(sp)
ffffffff80204d20: 10 61                	ld	a2, 0(a0)
ffffffff80204d22: 08 65                	ld	a0, 8(a0)
ffffffff80204d24: 2a e8                	sd	a0, 16(sp)
ffffffff80204d26: 32 85                	add	a0, zero, a2
ffffffff80204d28: 42 66                	ld	a2, 16(sp)
ffffffff80204d2a: 2e e4                	sd	a1, 8(sp)
ffffffff80204d2c: b2 85                	add	a1, zero, a2
ffffffff80204d2e: 22 66                	ld	a2, 8(sp)
ffffffff80204d30: 97 50 00 00          	auipc	ra, 5
ffffffff80204d34: e7 80 a0 ba          	jalr	-1110(ra)
ffffffff80204d38: 2a e0                	sd	a0, 0(sp)
ffffffff80204d3a: 09 a0                	j	2
ffffffff80204d3c: 02 65                	ld	a0, 0(sp)
ffffffff80204d3e: a2 70                	ld	ra, 40(sp)
ffffffff80204d40: 45 61                	addi	sp, sp, 48
ffffffff80204d42: 82 80                	ret

ffffffff80204d44 _ZN4core3fmt10ArgumentV13new17hd5ba5e54562858acE:
ffffffff80204d44: 5d 71                	addi	sp, sp, -80
ffffffff80204d46: 2a f8                	sd	a0, 48(sp)
ffffffff80204d48: 2e fc                	sd	a1, 56(sp)
ffffffff80204d4a: ae e0                	sd	a1, 64(sp)
ffffffff80204d4c: 2a ec                	sd	a0, 24(sp)
ffffffff80204d4e: 2e e8                	sd	a1, 16(sp)
ffffffff80204d50: 09 a0                	j	2
ffffffff80204d52: 62 65                	ld	a0, 24(sp)
ffffffff80204d54: aa e4                	sd	a0, 72(sp)
ffffffff80204d56: 2a e4                	sd	a0, 8(sp)
ffffffff80204d58: 09 a0                	j	2
ffffffff80204d5a: 22 65                	ld	a0, 8(sp)
ffffffff80204d5c: 2a f0                	sd	a0, 32(sp)
ffffffff80204d5e: c2 65                	ld	a1, 16(sp)
ffffffff80204d60: 2e f4                	sd	a1, 40(sp)
ffffffff80204d62: 61 61                	addi	sp, sp, 80
ffffffff80204d64: 82 80                	ret

ffffffff80204d66 _ZN4core3num12NonZeroUsize3get17hd90bb0e5a826779bE:
ffffffff80204d66: 41 11                	addi	sp, sp, -16
ffffffff80204d68: 2a e4                	sd	a0, 8(sp)
ffffffff80204d6a: 41 01                	addi	sp, sp, 16
ffffffff80204d6c: 82 80                	ret

ffffffff80204d6e _ZN4core3num23_$LT$impl$u20$usize$GT$11checked_sub17h048a054c1cf4da9aE:
ffffffff80204d6e: 5d 71                	addi	sp, sp, -80
ffffffff80204d70: 86 e4                	sd	ra, 72(sp)
ffffffff80204d72: 2a f4                	sd	a0, 40(sp)
ffffffff80204d74: 2e f8                	sd	a1, 48(sp)
ffffffff80204d76: 97 00 00 00          	auipc	ra, 0
ffffffff80204d7a: e7 80 80 1b          	jalr	440(ra)
ffffffff80204d7e: 2a e8                	sd	a0, 16(sp)
ffffffff80204d80: 2e e4                	sd	a1, 8(sp)
ffffffff80204d82: 09 a0                	j	2
ffffffff80204d84: 42 65                	ld	a0, 16(sp)
ffffffff80204d86: 2a fc                	sd	a0, 56(sp)
ffffffff80204d88: a2 65                	ld	a1, 8(sp)
ffffffff80204d8a: 13 f6 15 00          	andi	a2, a1, 1
ffffffff80204d8e: a3 03 c1 04          	sb	a2, 71(sp)
ffffffff80204d92: 19 e6                	bnez	a2, 14
ffffffff80204d94: 09 a0                	j	2
ffffffff80204d96: 42 65                	ld	a0, 16(sp)
ffffffff80204d98: 2a f0                	sd	a0, 32(sp)
ffffffff80204d9a: 85 45                	addi	a1, zero, 1
ffffffff80204d9c: 2e ec                	sd	a1, 24(sp)
ffffffff80204d9e: 21 a0                	j	8
ffffffff80204da0: 01 45                	mv	a0, zero
ffffffff80204da2: 2a ec                	sd	a0, 24(sp)
ffffffff80204da4: 09 a0                	j	2
ffffffff80204da6: 62 65                	ld	a0, 24(sp)
ffffffff80204da8: 82 75                	ld	a1, 32(sp)
ffffffff80204daa: a6 60                	ld	ra, 72(sp)
ffffffff80204dac: 61 61                	addi	sp, sp, 80
ffffffff80204dae: 82 80                	ret

ffffffff80204db0 _ZN4core3num23_$LT$impl$u20$usize$GT$12wrapping_sub17h36a9dc9ac3a5e841E:
ffffffff80204db0: 01 11                	addi	sp, sp, -32
ffffffff80204db2: 2a e4                	sd	a0, 8(sp)
ffffffff80204db4: 2e e8                	sd	a1, 16(sp)
ffffffff80204db6: 0d 8d                	sub	a0, a0, a1
ffffffff80204db8: 2a ec                	sd	a0, 24(sp)
ffffffff80204dba: 2a e0                	sd	a0, 0(sp)
ffffffff80204dbc: 09 a0                	j	2
ffffffff80204dbe: 02 65                	ld	a0, 0(sp)
ffffffff80204dc0: 05 61                	addi	sp, sp, 32
ffffffff80204dc2: 82 80                	ret

ffffffff80204dc4 _ZN4core3num23_$LT$impl$u20$usize$GT$13leading_zeros17h851feaea1dacf3c8E:
ffffffff80204dc4: 01 11                	addi	sp, sp, -32
ffffffff80204dc6: 2a e8                	sd	a0, 16(sp)
ffffffff80204dc8: 93 55 15 00          	srli	a1, a0, 1
ffffffff80204dcc: 4d 8d                	or	a0, a0, a1
ffffffff80204dce: 93 55 25 00          	srli	a1, a0, 2
ffffffff80204dd2: 4d 8d                	or	a0, a0, a1
ffffffff80204dd4: 93 55 45 00          	srli	a1, a0, 4
ffffffff80204dd8: 4d 8d                	or	a0, a0, a1
ffffffff80204dda: 93 55 85 00          	srli	a1, a0, 8
ffffffff80204dde: 4d 8d                	or	a0, a0, a1
ffffffff80204de0: 93 55 05 01          	srli	a1, a0, 16
ffffffff80204de4: 4d 8d                	or	a0, a0, a1
ffffffff80204de6: 93 55 05 02          	srli	a1, a0, 32
ffffffff80204dea: 4d 8d                	or	a0, a0, a1
ffffffff80204dec: 13 45 f5 ff          	not	a0, a0
ffffffff80204df0: 93 55 15 00          	srli	a1, a0, 1
ffffffff80204df4: 37 56 55 05          	lui	a2, 21845
ffffffff80204df8: 1b 06 56 55          	addiw	a2, a2, 1365
ffffffff80204dfc: 32 06                	slli	a2, a2, 12
ffffffff80204dfe: 13 06 56 55          	addi	a2, a2, 1365
ffffffff80204e02: 32 06                	slli	a2, a2, 12
ffffffff80204e04: 13 06 56 55          	addi	a2, a2, 1365
ffffffff80204e08: 32 06                	slli	a2, a2, 12
ffffffff80204e0a: 13 06 56 55          	addi	a2, a2, 1365
ffffffff80204e0e: f1 8d                	and	a1, a1, a2
ffffffff80204e10: 0d 8d                	sub	a0, a0, a1
ffffffff80204e12: b7 35 33 03          	lui	a1, 13107
ffffffff80204e16: 9b 85 35 33          	addiw	a1, a1, 819
ffffffff80204e1a: b2 05                	slli	a1, a1, 12
ffffffff80204e1c: 93 85 35 33          	addi	a1, a1, 819
ffffffff80204e20: b2 05                	slli	a1, a1, 12
ffffffff80204e22: 93 85 35 33          	addi	a1, a1, 819
ffffffff80204e26: b2 05                	slli	a1, a1, 12
ffffffff80204e28: 93 85 35 33          	addi	a1, a1, 819
ffffffff80204e2c: 33 76 b5 00          	and	a2, a0, a1
ffffffff80204e30: 09 81                	srli	a0, a0, 2
ffffffff80204e32: 6d 8d                	and	a0, a0, a1
ffffffff80204e34: 32 95                	add	a0, a0, a2
ffffffff80204e36: 93 55 45 00          	srli	a1, a0, 4
ffffffff80204e3a: 2e 95                	add	a0, a0, a1
ffffffff80204e3c: b7 f5 f0 00          	lui	a1, 3855
ffffffff80204e40: 9b 85 15 0f          	addiw	a1, a1, 241
ffffffff80204e44: b2 05                	slli	a1, a1, 12
ffffffff80204e46: 93 85 f5 f0          	addi	a1, a1, -241
ffffffff80204e4a: b2 05                	slli	a1, a1, 12
ffffffff80204e4c: 93 85 15 0f          	addi	a1, a1, 241
ffffffff80204e50: b2 05                	slli	a1, a1, 12
ffffffff80204e52: 93 85 f5 f0          	addi	a1, a1, -241
ffffffff80204e56: 6d 8d                	and	a0, a0, a1
ffffffff80204e58: b7 05 01 01          	lui	a1, 4112
ffffffff80204e5c: 9b 85 15 10          	addiw	a1, a1, 257
ffffffff80204e60: c2 05                	slli	a1, a1, 16
ffffffff80204e62: 93 85 15 10          	addi	a1, a1, 257
ffffffff80204e66: c2 05                	slli	a1, a1, 16
ffffffff80204e68: 93 85 15 10          	addi	a1, a1, 257
ffffffff80204e6c: 33 05 b5 02          	<unknown>
ffffffff80204e70: 61 91                	srli	a0, a0, 56
ffffffff80204e72: 2a ec                	sd	a0, 24(sp)
ffffffff80204e74: 2a e4                	sd	a0, 8(sp)
ffffffff80204e76: 09 a0                	j	2
ffffffff80204e78: 22 65                	ld	a0, 8(sp)
ffffffff80204e7a: 05 61                	addi	sp, sp, 32
ffffffff80204e7c: 82 80                	ret

ffffffff80204e7e _ZN4core3num23_$LT$impl$u20$usize$GT$13unchecked_add17hd07f8ffe6001c43dE:
ffffffff80204e7e: 01 11                	addi	sp, sp, -32
ffffffff80204e80: 2a e4                	sd	a0, 8(sp)
ffffffff80204e82: 2e e8                	sd	a1, 16(sp)
ffffffff80204e84: 2e 95                	add	a0, a0, a1
ffffffff80204e86: 2a ec                	sd	a0, 24(sp)
ffffffff80204e88: 2a e0                	sd	a0, 0(sp)
ffffffff80204e8a: 09 a0                	j	2
ffffffff80204e8c: 02 65                	ld	a0, 0(sp)
ffffffff80204e8e: 05 61                	addi	sp, sp, 32
ffffffff80204e90: 82 80                	ret

ffffffff80204e92 _ZN4core3num23_$LT$impl$u20$usize$GT$14trailing_zeros17h8a134a1eb02d2c71E:
ffffffff80204e92: 01 11                	addi	sp, sp, -32
ffffffff80204e94: 2a e8                	sd	a0, 16(sp)
ffffffff80204e96: 93 05 f5 ff          	addi	a1, a0, -1
ffffffff80204e9a: 13 45 f5 ff          	not	a0, a0
ffffffff80204e9e: 6d 8d                	and	a0, a0, a1
ffffffff80204ea0: 93 55 15 00          	srli	a1, a0, 1
ffffffff80204ea4: 37 56 55 05          	lui	a2, 21845
ffffffff80204ea8: 1b 06 56 55          	addiw	a2, a2, 1365
ffffffff80204eac: 32 06                	slli	a2, a2, 12
ffffffff80204eae: 13 06 56 55          	addi	a2, a2, 1365
ffffffff80204eb2: 32 06                	slli	a2, a2, 12
ffffffff80204eb4: 13 06 56 55          	addi	a2, a2, 1365
ffffffff80204eb8: 32 06                	slli	a2, a2, 12
ffffffff80204eba: 13 06 56 55          	addi	a2, a2, 1365
ffffffff80204ebe: f1 8d                	and	a1, a1, a2
ffffffff80204ec0: 0d 8d                	sub	a0, a0, a1
ffffffff80204ec2: b7 35 33 03          	lui	a1, 13107
ffffffff80204ec6: 9b 85 35 33          	addiw	a1, a1, 819
ffffffff80204eca: b2 05                	slli	a1, a1, 12
ffffffff80204ecc: 93 85 35 33          	addi	a1, a1, 819
ffffffff80204ed0: b2 05                	slli	a1, a1, 12
ffffffff80204ed2: 93 85 35 33          	addi	a1, a1, 819
ffffffff80204ed6: b2 05                	slli	a1, a1, 12
ffffffff80204ed8: 93 85 35 33          	addi	a1, a1, 819
ffffffff80204edc: 33 76 b5 00          	and	a2, a0, a1
ffffffff80204ee0: 09 81                	srli	a0, a0, 2
ffffffff80204ee2: 6d 8d                	and	a0, a0, a1
ffffffff80204ee4: 32 95                	add	a0, a0, a2
ffffffff80204ee6: 93 55 45 00          	srli	a1, a0, 4
ffffffff80204eea: 2e 95                	add	a0, a0, a1
ffffffff80204eec: b7 f5 f0 00          	lui	a1, 3855
ffffffff80204ef0: 9b 85 15 0f          	addiw	a1, a1, 241
ffffffff80204ef4: b2 05                	slli	a1, a1, 12
ffffffff80204ef6: 93 85 f5 f0          	addi	a1, a1, -241
ffffffff80204efa: b2 05                	slli	a1, a1, 12
ffffffff80204efc: 93 85 15 0f          	addi	a1, a1, 241
ffffffff80204f00: b2 05                	slli	a1, a1, 12
ffffffff80204f02: 93 85 f5 f0          	addi	a1, a1, -241
ffffffff80204f06: 6d 8d                	and	a0, a0, a1
ffffffff80204f08: b7 05 01 01          	lui	a1, 4112
ffffffff80204f0c: 9b 85 15 10          	addiw	a1, a1, 257
ffffffff80204f10: c2 05                	slli	a1, a1, 16
ffffffff80204f12: 93 85 15 10          	addi	a1, a1, 257
ffffffff80204f16: c2 05                	slli	a1, a1, 16
ffffffff80204f18: 93 85 15 10          	addi	a1, a1, 257
ffffffff80204f1c: 33 05 b5 02          	<unknown>
ffffffff80204f20: 61 91                	srli	a0, a0, 56
ffffffff80204f22: 2a ec                	sd	a0, 24(sp)
ffffffff80204f24: 2a e4                	sd	a0, 8(sp)
ffffffff80204f26: 09 a0                	j	2
ffffffff80204f28: 22 65                	ld	a0, 8(sp)
ffffffff80204f2a: 05 61                	addi	sp, sp, 32
ffffffff80204f2c: 82 80                	ret

ffffffff80204f2e _ZN4core3num23_$LT$impl$u20$usize$GT$15overflowing_sub17haeee3d3c2dc4652aE:
ffffffff80204f2e: 5d 71                	addi	sp, sp, -80
ffffffff80204f30: 2a f0                	sd	a0, 32(sp)
ffffffff80204f32: 2e f4                	sd	a1, 40(sp)
ffffffff80204f34: b3 05 b5 40          	sub	a1, a0, a1
ffffffff80204f38: 33 35 b5 00          	sltu	a0, a0, a1
ffffffff80204f3c: 2e f8                	sd	a1, 48(sp)
ffffffff80204f3e: 23 0c a1 02          	sb	a0, 56(sp)
ffffffff80204f42: 2e e4                	sd	a1, 8(sp)
ffffffff80204f44: 2a e0                	sd	a0, 0(sp)
ffffffff80204f46: 09 a0                	j	2
ffffffff80204f48: 22 65                	ld	a0, 8(sp)
ffffffff80204f4a: aa e0                	sd	a0, 64(sp)
ffffffff80204f4c: 82 65                	ld	a1, 0(sp)
ffffffff80204f4e: a3 07 b1 04          	sb	a1, 79(sp)
ffffffff80204f52: 2a e8                	sd	a0, 16(sp)
ffffffff80204f54: 23 0c b1 00          	sb	a1, 24(sp)
ffffffff80204f58: 61 61                	addi	sp, sp, 80
ffffffff80204f5a: 82 80                	ret

ffffffff80204f5c _ZN4core3num23_$LT$impl$u20$usize$GT$17next_power_of_two17h6a5ae75ef4042b84E:
ffffffff80204f5c: 01 11                	addi	sp, sp, -32
ffffffff80204f5e: 06 ec                	sd	ra, 24(sp)
ffffffff80204f60: 2a e8                	sd	a0, 16(sp)
ffffffff80204f62: 97 00 00 00          	auipc	ra, 0
ffffffff80204f66: e7 80 e0 03          	jalr	62(ra)
ffffffff80204f6a: 2a e4                	sd	a0, 8(sp)
ffffffff80204f6c: 09 a0                	j	2
ffffffff80204f6e: 22 65                	ld	a0, 8(sp)
ffffffff80204f70: 93 05 15 00          	addi	a1, a0, 1
ffffffff80204f74: 2e e0                	sd	a1, 0(sp)
ffffffff80204f76: 63 e7 a5 00          	bltu	a1, a0, 14
ffffffff80204f7a: 09 a0                	j	2
ffffffff80204f7c: 02 65                	ld	a0, 0(sp)
ffffffff80204f7e: e2 60                	ld	ra, 24(sp)
ffffffff80204f80: 05 61                	addi	sp, sp, 32
ffffffff80204f82: 82 80                	ret

ffffffff80204f84 .LBB8_4:
ffffffff80204f84: 17 75 00 00          	auipc	a0, 7
ffffffff80204f88: 13 05 c5 77          	addi	a0, a0, 1916

ffffffff80204f8c .LBB8_5:
ffffffff80204f8c: 17 76 00 00          	auipc	a2, 7
ffffffff80204f90: 13 06 46 75          	addi	a2, a2, 1876
ffffffff80204f94: f1 45                	addi	a1, zero, 28
ffffffff80204f96: 97 40 00 00          	auipc	ra, 4
ffffffff80204f9a: e7 80 20 8d          	jalr	-1838(ra)
ffffffff80204f9e: 00 00                	unimp	

ffffffff80204fa0 _ZN4core3num23_$LT$impl$u20$usize$GT$31one_less_than_next_power_of_two17he8ef4b8fc9932ee9E:
ffffffff80204fa0: 39 71                	addi	sp, sp, -64
ffffffff80204fa2: 2a f0                	sd	a0, 32(sp)
ffffffff80204fa4: 89 45                	addi	a1, zero, 2
ffffffff80204fa6: 2a e8                	sd	a0, 16(sp)
ffffffff80204fa8: 63 60 b5 0c          	bltu	a0, a1, 192
ffffffff80204fac: 09 a0                	j	2
ffffffff80204fae: 42 65                	ld	a0, 16(sp)
ffffffff80204fb0: 93 05 f5 ff          	addi	a1, a0, -1
ffffffff80204fb4: 2e f4                	sd	a1, 40(sp)
ffffffff80204fb6: 13 d6 15 00          	srli	a2, a1, 1
ffffffff80204fba: d1 8d                	or	a1, a1, a2
ffffffff80204fbc: 13 d6 25 00          	srli	a2, a1, 2
ffffffff80204fc0: d1 8d                	or	a1, a1, a2
ffffffff80204fc2: 13 d6 45 00          	srli	a2, a1, 4
ffffffff80204fc6: d1 8d                	or	a1, a1, a2
ffffffff80204fc8: 13 d6 85 00          	srli	a2, a1, 8
ffffffff80204fcc: d1 8d                	or	a1, a1, a2
ffffffff80204fce: 13 d6 05 01          	srli	a2, a1, 16
ffffffff80204fd2: d1 8d                	or	a1, a1, a2
ffffffff80204fd4: 13 d6 05 02          	srli	a2, a1, 32
ffffffff80204fd8: d1 8d                	or	a1, a1, a2
ffffffff80204fda: 93 c5 f5 ff          	not	a1, a1
ffffffff80204fde: 13 d6 15 00          	srli	a2, a1, 1
ffffffff80204fe2: b7 56 55 05          	lui	a3, 21845
ffffffff80204fe6: 9b 86 56 55          	addiw	a3, a3, 1365
ffffffff80204fea: b2 06                	slli	a3, a3, 12
ffffffff80204fec: 93 86 56 55          	addi	a3, a3, 1365
ffffffff80204ff0: b2 06                	slli	a3, a3, 12
ffffffff80204ff2: 93 86 56 55          	addi	a3, a3, 1365
ffffffff80204ff6: b2 06                	slli	a3, a3, 12
ffffffff80204ff8: 93 86 56 55          	addi	a3, a3, 1365
ffffffff80204ffc: 75 8e                	and	a2, a2, a3
ffffffff80204ffe: 91 8d                	sub	a1, a1, a2
ffffffff80205000: 37 36 33 03          	lui	a2, 13107
ffffffff80205004: 1b 06 36 33          	addiw	a2, a2, 819
ffffffff80205008: 32 06                	slli	a2, a2, 12
ffffffff8020500a: 13 06 36 33          	addi	a2, a2, 819
ffffffff8020500e: 32 06                	slli	a2, a2, 12
ffffffff80205010: 13 06 36 33          	addi	a2, a2, 819
ffffffff80205014: 32 06                	slli	a2, a2, 12
ffffffff80205016: 13 06 36 33          	addi	a2, a2, 819
ffffffff8020501a: b3 f6 c5 00          	and	a3, a1, a2
ffffffff8020501e: 89 81                	srli	a1, a1, 2
ffffffff80205020: f1 8d                	and	a1, a1, a2
ffffffff80205022: b6 95                	add	a1, a1, a3
ffffffff80205024: 13 d6 45 00          	srli	a2, a1, 4
ffffffff80205028: b2 95                	add	a1, a1, a2
ffffffff8020502a: 37 f6 f0 00          	lui	a2, 3855
ffffffff8020502e: 1b 06 16 0f          	addiw	a2, a2, 241
ffffffff80205032: 32 06                	slli	a2, a2, 12
ffffffff80205034: 13 06 f6 f0          	addi	a2, a2, -241
ffffffff80205038: 32 06                	slli	a2, a2, 12
ffffffff8020503a: 13 06 16 0f          	addi	a2, a2, 241
ffffffff8020503e: 32 06                	slli	a2, a2, 12
ffffffff80205040: 13 06 f6 f0          	addi	a2, a2, -241
ffffffff80205044: f1 8d                	and	a1, a1, a2
ffffffff80205046: 37 06 01 01          	lui	a2, 4112
ffffffff8020504a: 1b 06 16 10          	addiw	a2, a2, 257
ffffffff8020504e: 42 06                	slli	a2, a2, 16
ffffffff80205050: 13 06 16 10          	addi	a2, a2, 257
ffffffff80205054: 42 06                	slli	a2, a2, 16
ffffffff80205056: 13 06 16 10          	addi	a2, a2, 257
ffffffff8020505a: b3 85 c5 02          	<unknown>
ffffffff8020505e: e1 91                	srli	a1, a1, 56
ffffffff80205060: 2e f8                	sd	a1, 48(sp)
ffffffff80205062: 2e fc                	sd	a1, 56(sp)
ffffffff80205064: 2e e4                	sd	a1, 8(sp)
ffffffff80205066: 39 a0                	j	14
ffffffff80205068: 01 45                	mv	a0, zero
ffffffff8020506a: 2a ec                	sd	a0, 24(sp)
ffffffff8020506c: 09 a0                	j	2
ffffffff8020506e: 62 65                	ld	a0, 24(sp)
ffffffff80205070: 21 61                	addi	sp, sp, 64
ffffffff80205072: 82 80                	ret
ffffffff80205074: 7d 55                	addi	a0, zero, -1
ffffffff80205076: a2 65                	ld	a1, 8(sp)
ffffffff80205078: 33 55 b5 00          	srl	a0, a0, a1
ffffffff8020507c: 2a ec                	sd	a0, 24(sp)
ffffffff8020507e: c5 bf                	j	-16

ffffffff80205080 _ZN4core4iter5range101_$LT$impl$u20$core..iter..traits..iterator..Iterator$u20$for$u20$core..ops..range..Range$LT$A$GT$$GT$4next17h8b417ca8a14a58adE:
ffffffff80205080: 5d 71                	addi	sp, sp, -80
ffffffff80205082: 86 e4                	sd	ra, 72(sp)
ffffffff80205084: 2a fc                	sd	a0, 56(sp)
ffffffff80205086: 93 05 85 00          	addi	a1, a0, 8
ffffffff8020508a: 2a f0                	sd	a0, 32(sp)
ffffffff8020508c: 97 00 00 00          	auipc	ra, 0
ffffffff80205090: e7 80 40 17          	jalr	372(ra)
ffffffff80205094: 2a ec                	sd	a0, 24(sp)
ffffffff80205096: 09 a0                	j	2
ffffffff80205098: 62 65                	ld	a0, 24(sp)
ffffffff8020509a: 09 e5                	bnez	a0, 10
ffffffff8020509c: 09 a0                	j	2
ffffffff8020509e: 01 45                	mv	a0, zero
ffffffff802050a0: 2a f4                	sd	a0, 40(sp)
ffffffff802050a2: 3d a8                	j	62
ffffffff802050a4: 02 75                	ld	a0, 32(sp)
ffffffff802050a6: 97 10 00 00          	auipc	ra, 1
ffffffff802050aa: e7 80 60 b1          	jalr	-1258(ra)
ffffffff802050ae: 2a e8                	sd	a0, 16(sp)
ffffffff802050b0: 09 a0                	j	2
ffffffff802050b2: 85 45                	addi	a1, zero, 1
ffffffff802050b4: 42 65                	ld	a0, 16(sp)
ffffffff802050b6: 97 10 00 00          	auipc	ra, 1
ffffffff802050ba: e7 80 e0 a5          	jalr	-1442(ra)
ffffffff802050be: aa 85                	add	a1, zero, a0
ffffffff802050c0: aa e0                	sd	a0, 64(sp)
ffffffff802050c2: 2e e4                	sd	a1, 8(sp)
ffffffff802050c4: 09 a0                	j	2
ffffffff802050c6: 02 75                	ld	a0, 32(sp)
ffffffff802050c8: a2 65                	ld	a1, 8(sp)
ffffffff802050ca: 97 00 00 00          	auipc	ra, 0
ffffffff802050ce: e7 80 40 1d          	jalr	468(ra)
ffffffff802050d2: 2a e0                	sd	a0, 0(sp)
ffffffff802050d4: 09 a0                	j	2
ffffffff802050d6: 02 65                	ld	a0, 0(sp)
ffffffff802050d8: 2a f8                	sd	a0, 48(sp)
ffffffff802050da: 85 45                	addi	a1, zero, 1
ffffffff802050dc: 2e f4                	sd	a1, 40(sp)
ffffffff802050de: 09 a0                	j	2
ffffffff802050e0: 22 75                	ld	a0, 40(sp)
ffffffff802050e2: c2 75                	ld	a1, 48(sp)
ffffffff802050e4: a6 60                	ld	ra, 72(sp)
ffffffff802050e6: 61 61                	addi	sp, sp, 80
ffffffff802050e8: 82 80                	ret

ffffffff802050ea _ZN4core4iter5range116_$LT$impl$u20$core..iter..traits..double_ended..DoubleEndedIterator$u20$for$u20$core..ops..range..Range$LT$A$GT$$GT$9next_back17h30a729f5af1fff0cE:
ffffffff802050ea: 5d 71                	addi	sp, sp, -80
ffffffff802050ec: 86 e4                	sd	ra, 72(sp)
ffffffff802050ee: aa e0                	sd	a0, 64(sp)
ffffffff802050f0: 93 05 85 00          	addi	a1, a0, 8
ffffffff802050f4: 2a f0                	sd	a0, 32(sp)
ffffffff802050f6: 97 00 00 00          	auipc	ra, 0
ffffffff802050fa: e7 80 a0 10          	jalr	266(ra)
ffffffff802050fe: 2a ec                	sd	a0, 24(sp)
ffffffff80205100: 09 a0                	j	2
ffffffff80205102: 62 65                	ld	a0, 24(sp)
ffffffff80205104: 09 e5                	bnez	a0, 10
ffffffff80205106: 09 a0                	j	2
ffffffff80205108: 01 45                	mv	a0, zero
ffffffff8020510a: 2a f4                	sd	a0, 40(sp)
ffffffff8020510c: 3d a0                	j	46
ffffffff8020510e: 02 75                	ld	a0, 32(sp)
ffffffff80205110: 21 05                	addi	a0, a0, 8
ffffffff80205112: 97 10 00 00          	auipc	ra, 1
ffffffff80205116: e7 80 a0 aa          	jalr	-1366(ra)
ffffffff8020511a: 2a e8                	sd	a0, 16(sp)
ffffffff8020511c: 09 a0                	j	2
ffffffff8020511e: 85 45                	addi	a1, zero, 1
ffffffff80205120: 42 65                	ld	a0, 16(sp)
ffffffff80205122: 97 10 00 00          	auipc	ra, 1
ffffffff80205126: e7 80 e0 a0          	jalr	-1522(ra)
ffffffff8020512a: 2a e4                	sd	a0, 8(sp)
ffffffff8020512c: 09 a0                	j	2
ffffffff8020512e: 19 a8                	j	22
ffffffff80205130: 62 75                	ld	a0, 56(sp)
ffffffff80205132: 2a f8                	sd	a0, 48(sp)
ffffffff80205134: 05 45                	addi	a0, zero, 1
ffffffff80205136: 2a f4                	sd	a0, 40(sp)
ffffffff80205138: 09 a0                	j	2
ffffffff8020513a: 22 75                	ld	a0, 40(sp)
ffffffff8020513c: c2 75                	ld	a1, 48(sp)
ffffffff8020513e: a6 60                	ld	ra, 72(sp)
ffffffff80205140: 61 61                	addi	sp, sp, 80
ffffffff80205142: 82 80                	ret
ffffffff80205144: 02 75                	ld	a0, 32(sp)
ffffffff80205146: 21 05                	addi	a0, a0, 8
ffffffff80205148: a2 65                	ld	a1, 8(sp)
ffffffff8020514a: 02 76                	ld	a2, 32(sp)
ffffffff8020514c: 0c e6                	sd	a1, 8(a2)
ffffffff8020514e: 97 10 00 00          	auipc	ra, 1
ffffffff80205152: e7 80 e0 a6          	jalr	-1426(ra)
ffffffff80205156: 2a fc                	sd	a0, 56(sp)
ffffffff80205158: e1 bf                	j	-40

ffffffff8020515a _ZN4core4iter6traits8iterator8Iterator3rev17h1e8ff5b88465e8c1E:
ffffffff8020515a: 79 71                	addi	sp, sp, -48
ffffffff8020515c: 06 f4                	sd	ra, 40(sp)
ffffffff8020515e: 2a ec                	sd	a0, 24(sp)
ffffffff80205160: 2e f0                	sd	a1, 32(sp)
ffffffff80205162: 97 00 00 00          	auipc	ra, 0
ffffffff80205166: e7 80 80 01          	jalr	24(ra)
ffffffff8020516a: 2a e8                	sd	a0, 16(sp)
ffffffff8020516c: 2e e4                	sd	a1, 8(sp)
ffffffff8020516e: 09 a0                	j	2
ffffffff80205170: 42 65                	ld	a0, 16(sp)
ffffffff80205172: a2 65                	ld	a1, 8(sp)
ffffffff80205174: a2 70                	ld	ra, 40(sp)
ffffffff80205176: 45 61                	addi	sp, sp, 48
ffffffff80205178: 82 80                	ret

ffffffff8020517a _ZN4core4iter8adapters12Rev$LT$T$GT$3new17h62efdbb2a2aaf6e2E:
ffffffff8020517a: 01 11                	addi	sp, sp, -32
ffffffff8020517c: 2a e8                	sd	a0, 16(sp)
ffffffff8020517e: 2e ec                	sd	a1, 24(sp)
ffffffff80205180: 2a e0                	sd	a0, 0(sp)
ffffffff80205182: 2e e4                	sd	a1, 8(sp)
ffffffff80205184: 05 61                	addi	sp, sp, 32
ffffffff80205186: 82 80                	ret

ffffffff80205188 _ZN63_$LT$I$u20$as$u20$core..iter..traits..collect..IntoIterator$GT$9into_iter17h5da59ea8bdf46535E:
ffffffff80205188: 41 11                	addi	sp, sp, -16
ffffffff8020518a: 2a e0                	sd	a0, 0(sp)
ffffffff8020518c: 2e e4                	sd	a1, 8(sp)
ffffffff8020518e: 41 01                	addi	sp, sp, 16
ffffffff80205190: 82 80                	ret

ffffffff80205192 _ZN63_$LT$I$u20$as$u20$core..iter..traits..collect..IntoIterator$GT$9into_iter17he5223fd439398ac6E:
ffffffff80205192: 41 11                	addi	sp, sp, -16
ffffffff80205194: 2a e0                	sd	a0, 0(sp)
ffffffff80205196: 2e e4                	sd	a1, 8(sp)
ffffffff80205198: 41 01                	addi	sp, sp, 16
ffffffff8020519a: 82 80                	ret

ffffffff8020519c _ZN93_$LT$core..iter..adapters..Rev$LT$I$GT$$u20$as$u20$core..iter..traits..iterator..Iterator$GT$4next17h782b4fc626dcd0e9E:
ffffffff8020519c: 01 11                	addi	sp, sp, -32
ffffffff8020519e: 06 ec                	sd	ra, 24(sp)
ffffffff802051a0: 2a e8                	sd	a0, 16(sp)
ffffffff802051a2: 97 00 00 00          	auipc	ra, 0
ffffffff802051a6: e7 80 80 f4          	jalr	-184(ra)
ffffffff802051aa: 2a e4                	sd	a0, 8(sp)
ffffffff802051ac: 2e e0                	sd	a1, 0(sp)
ffffffff802051ae: 09 a0                	j	2
ffffffff802051b0: 22 65                	ld	a0, 8(sp)
ffffffff802051b2: 82 65                	ld	a1, 0(sp)
ffffffff802051b4: e2 60                	ld	ra, 24(sp)
ffffffff802051b6: 05 61                	addi	sp, sp, 32
ffffffff802051b8: 82 80                	ret

ffffffff802051ba _ZN4core3cmp5impls50_$LT$impl$u20$core..cmp..Ord$u20$for$u20$usize$GT$3cmp17h499c480ecdbdb3d5E:
ffffffff802051ba: 79 71                	addi	sp, sp, -48
ffffffff802051bc: 2a f0                	sd	a0, 32(sp)
ffffffff802051be: 2e f4                	sd	a1, 40(sp)
ffffffff802051c0: 10 61                	ld	a2, 0(a0)
ffffffff802051c2: 94 61                	ld	a3, 0(a1)
ffffffff802051c4: 2e e8                	sd	a1, 16(sp)
ffffffff802051c6: 2a e4                	sd	a0, 8(sp)
ffffffff802051c8: 63 6a d6 00          	bltu	a2, a3, 20
ffffffff802051cc: 09 a0                	j	2
ffffffff802051ce: 22 65                	ld	a0, 8(sp)
ffffffff802051d0: 0c 61                	ld	a1, 0(a0)
ffffffff802051d2: 42 66                	ld	a2, 16(sp)
ffffffff802051d4: 14 62                	ld	a3, 0(a2)
ffffffff802051d6: 63 8c d5 00          	beq	a1, a3, 24
ffffffff802051da: 31 a0                	j	12
ffffffff802051dc: 13 05 f0 0f          	addi	a0, zero, 255
ffffffff802051e0: a3 0f a1 00          	sb	a0, 31(sp)
ffffffff802051e4: 11 a8                	j	20
ffffffff802051e6: 05 45                	addi	a0, zero, 1
ffffffff802051e8: a3 0f a1 00          	sb	a0, 31(sp)
ffffffff802051ec: 29 a0                	j	10
ffffffff802051ee: 01 45                	mv	a0, zero
ffffffff802051f0: a3 0f a1 00          	sb	a0, 31(sp)
ffffffff802051f4: 09 a0                	j	2
ffffffff802051f6: 09 a0                	j	2
ffffffff802051f8: 03 05 f1 01          	lb	a0, 31(sp)
ffffffff802051fc: 45 61                	addi	sp, sp, 48
ffffffff802051fe: 82 80                	ret

ffffffff80205200 _ZN4core3cmp5impls57_$LT$impl$u20$core..cmp..PartialOrd$u20$for$u20$usize$GT$2lt17h74426eef2f258f8aE:
ffffffff80205200: 41 11                	addi	sp, sp, -16
ffffffff80205202: 2a e0                	sd	a0, 0(sp)
ffffffff80205204: 2e e4                	sd	a1, 8(sp)
ffffffff80205206: 08 61                	ld	a0, 0(a0)
ffffffff80205208: 8c 61                	ld	a1, 0(a1)
ffffffff8020520a: 33 35 b5 00          	sltu	a0, a0, a1
ffffffff8020520e: 41 01                	addi	sp, sp, 16
ffffffff80205210: 82 80                	ret

ffffffff80205212 _ZN4core3ptr9const_ptr33_$LT$impl$u20$$BP$const$u20$T$GT$12wrapping_add17hd5d7dad0ae3f3ac1E:
ffffffff80205212: 01 11                	addi	sp, sp, -32
ffffffff80205214: 06 ec                	sd	ra, 24(sp)
ffffffff80205216: 2a e4                	sd	a0, 8(sp)
ffffffff80205218: 2e e8                	sd	a1, 16(sp)
ffffffff8020521a: 97 00 00 00          	auipc	ra, 0
ffffffff8020521e: e7 80 40 01          	jalr	20(ra)
ffffffff80205222: 2a e0                	sd	a0, 0(sp)
ffffffff80205224: 09 a0                	j	2
ffffffff80205226: 02 65                	ld	a0, 0(sp)
ffffffff80205228: e2 60                	ld	ra, 24(sp)
ffffffff8020522a: 05 61                	addi	sp, sp, 32
ffffffff8020522c: 82 80                	ret

ffffffff8020522e _ZN4core3ptr9const_ptr33_$LT$impl$u20$$BP$const$u20$T$GT$15wrapping_offset17h99c147e5f6024a1aE:
ffffffff8020522e: 01 11                	addi	sp, sp, -32
ffffffff80205230: 2a e4                	sd	a0, 8(sp)
ffffffff80205232: 2e e8                	sd	a1, 16(sp)
ffffffff80205234: 2e 95                	add	a0, a0, a1
ffffffff80205236: 2a ec                	sd	a0, 24(sp)
ffffffff80205238: 2a e0                	sd	a0, 0(sp)
ffffffff8020523a: 09 a0                	j	2
ffffffff8020523c: 02 65                	ld	a0, 0(sp)
ffffffff8020523e: 05 61                	addi	sp, sp, 32
ffffffff80205240: 82 80                	ret

ffffffff80205242 _ZN4core3ptr9const_ptr33_$LT$impl$u20$$BP$const$u20$T$GT$3add17h70689cec05238958E:
ffffffff80205242: 01 11                	addi	sp, sp, -32
ffffffff80205244: 06 ec                	sd	ra, 24(sp)
ffffffff80205246: 2a e4                	sd	a0, 8(sp)
ffffffff80205248: 2e e8                	sd	a1, 16(sp)
ffffffff8020524a: 97 00 00 00          	auipc	ra, 0
ffffffff8020524e: e7 80 40 01          	jalr	20(ra)
ffffffff80205252: 2a e0                	sd	a0, 0(sp)
ffffffff80205254: 09 a0                	j	2
ffffffff80205256: 02 65                	ld	a0, 0(sp)
ffffffff80205258: e2 60                	ld	ra, 24(sp)
ffffffff8020525a: 05 61                	addi	sp, sp, 32
ffffffff8020525c: 82 80                	ret

ffffffff8020525e _ZN4core3ptr9const_ptr33_$LT$impl$u20$$BP$const$u20$T$GT$6offset17ha2e1ccd7d2754e95E:
ffffffff8020525e: 01 11                	addi	sp, sp, -32
ffffffff80205260: 2a e4                	sd	a0, 8(sp)
ffffffff80205262: 2e e8                	sd	a1, 16(sp)
ffffffff80205264: 8e 05                	slli	a1, a1, 3
ffffffff80205266: 2e 95                	add	a0, a0, a1
ffffffff80205268: 2a ec                	sd	a0, 24(sp)
ffffffff8020526a: 2a e0                	sd	a0, 0(sp)
ffffffff8020526c: 09 a0                	j	2
ffffffff8020526e: 02 65                	ld	a0, 0(sp)
ffffffff80205270: 05 61                	addi	sp, sp, 32
ffffffff80205272: 82 80                	ret

ffffffff80205274 _ZN4core3ptr9const_ptr33_$LT$impl$u20$$BP$const$u20$T$GT$7is_null17h4501b2bf28dac83fE:
ffffffff80205274: 41 11                	addi	sp, sp, -16
ffffffff80205276: 2a e4                	sd	a0, 8(sp)
ffffffff80205278: 2a e0                	sd	a0, 0(sp)
ffffffff8020527a: 09 a0                	j	2
ffffffff8020527c: 02 65                	ld	a0, 0(sp)
ffffffff8020527e: 13 35 15 00          	seqz	a0, a0
ffffffff80205282: 41 01                	addi	sp, sp, 16
ffffffff80205284: 82 80                	ret

ffffffff80205286 _ZN4core3mem4swap17hd17bf54bd22f64eeE:
ffffffff80205286: 01 11                	addi	sp, sp, -32
ffffffff80205288: 06 ec                	sd	ra, 24(sp)
ffffffff8020528a: 2a e4                	sd	a0, 8(sp)
ffffffff8020528c: 2e e8                	sd	a1, 16(sp)
ffffffff8020528e: 97 00 00 00          	auipc	ra, 0
ffffffff80205292: e7 80 80 15          	jalr	344(ra)
ffffffff80205296: 09 a0                	j	2
ffffffff80205298: e2 60                	ld	ra, 24(sp)
ffffffff8020529a: 05 61                	addi	sp, sp, 32
ffffffff8020529c: 82 80                	ret

ffffffff8020529e _ZN4core3mem7replace17hef6996dda24d3d72E:
ffffffff8020529e: 01 11                	addi	sp, sp, -32
ffffffff802052a0: 06 ec                	sd	ra, 24(sp)
ffffffff802052a2: 2e e4                	sd	a1, 8(sp)
ffffffff802052a4: 2a e8                	sd	a0, 16(sp)
ffffffff802052a6: 2c 00                	addi	a1, sp, 8
ffffffff802052a8: 97 00 00 00          	auipc	ra, 0
ffffffff802052ac: e7 80 e0 fd          	jalr	-34(ra)
ffffffff802052b0: 09 a0                	j	2
ffffffff802052b2: 22 65                	ld	a0, 8(sp)
ffffffff802052b4: e2 60                	ld	ra, 24(sp)
ffffffff802052b6: 05 61                	addi	sp, sp, 32
ffffffff802052b8: 82 80                	ret

ffffffff802052ba _ZN4core3ptr7mut_ptr31_$LT$impl$u20$$BP$mut$u20$T$GT$3add17h30f1cacbc1c653b2E:
ffffffff802052ba: 01 11                	addi	sp, sp, -32
ffffffff802052bc: 06 ec                	sd	ra, 24(sp)
ffffffff802052be: 2a e4                	sd	a0, 8(sp)
ffffffff802052c0: 2e e8                	sd	a1, 16(sp)
ffffffff802052c2: 97 00 00 00          	auipc	ra, 0
ffffffff802052c6: e7 80 40 01          	jalr	20(ra)
ffffffff802052ca: 2a e0                	sd	a0, 0(sp)
ffffffff802052cc: 09 a0                	j	2
ffffffff802052ce: 02 65                	ld	a0, 0(sp)
ffffffff802052d0: e2 60                	ld	ra, 24(sp)
ffffffff802052d2: 05 61                	addi	sp, sp, 32
ffffffff802052d4: 82 80                	ret

ffffffff802052d6 _ZN4core3ptr7mut_ptr31_$LT$impl$u20$$BP$mut$u20$T$GT$6offset17h37ad55f53264c275E:
ffffffff802052d6: 01 11                	addi	sp, sp, -32
ffffffff802052d8: 2a e4                	sd	a0, 8(sp)
ffffffff802052da: 2e e8                	sd	a1, 16(sp)
ffffffff802052dc: 2e 95                	add	a0, a0, a1
ffffffff802052de: 2a ec                	sd	a0, 24(sp)
ffffffff802052e0: 2a e0                	sd	a0, 0(sp)
ffffffff802052e2: 09 a0                	j	2
ffffffff802052e4: 02 65                	ld	a0, 0(sp)
ffffffff802052e6: 05 61                	addi	sp, sp, 32
ffffffff802052e8: 82 80                	ret

ffffffff802052ea _ZN4core3ptr7mut_ptr31_$LT$impl$u20$$BP$mut$u20$T$GT$6offset17h6d31d0900a9dfd3aE:
ffffffff802052ea: 01 11                	addi	sp, sp, -32
ffffffff802052ec: 2a e4                	sd	a0, 8(sp)
ffffffff802052ee: 2e e8                	sd	a1, 16(sp)
ffffffff802052f0: 8e 05                	slli	a1, a1, 3
ffffffff802052f2: 2e 95                	add	a0, a0, a1
ffffffff802052f4: 2a ec                	sd	a0, 24(sp)
ffffffff802052f6: 2a e0                	sd	a0, 0(sp)
ffffffff802052f8: 09 a0                	j	2
ffffffff802052fa: 02 65                	ld	a0, 0(sp)
ffffffff802052fc: 05 61                	addi	sp, sp, 32
ffffffff802052fe: 82 80                	ret

ffffffff80205300 _ZN4core3ptr7mut_ptr31_$LT$impl$u20$$BP$mut$u20$T$GT$7is_null17h0cb32d39e870e3ffE:
ffffffff80205300: 41 11                	addi	sp, sp, -16
ffffffff80205302: 2a e4                	sd	a0, 8(sp)
ffffffff80205304: 2a e0                	sd	a0, 0(sp)
ffffffff80205306: 09 a0                	j	2
ffffffff80205308: 02 65                	ld	a0, 0(sp)
ffffffff8020530a: 13 35 15 00          	seqz	a0, a0
ffffffff8020530e: 41 01                	addi	sp, sp, 16
ffffffff80205310: 82 80                	ret

ffffffff80205312 _ZN4core3ptr7mut_ptr31_$LT$impl$u20$$BP$mut$u20$T$GT$7is_null17hd8c277b22437c095E:
ffffffff80205312: 41 11                	addi	sp, sp, -16
ffffffff80205314: 2a e4                	sd	a0, 8(sp)
ffffffff80205316: 2a e0                	sd	a0, 0(sp)
ffffffff80205318: 09 a0                	j	2
ffffffff8020531a: 02 65                	ld	a0, 0(sp)
ffffffff8020531c: 13 35 15 00          	seqz	a0, a0
ffffffff80205320: 41 01                	addi	sp, sp, 16
ffffffff80205322: 82 80                	ret

ffffffff80205324 _ZN4core3ptr8non_null16NonNull$LT$T$GT$13new_unchecked17h9c12ba3fb5997d7dE:
ffffffff80205324: 41 11                	addi	sp, sp, -16
ffffffff80205326: 2a e4                	sd	a0, 8(sp)
ffffffff80205328: 2a e0                	sd	a0, 0(sp)
ffffffff8020532a: 41 01                	addi	sp, sp, 16
ffffffff8020532c: 82 80                	ret

ffffffff8020532e _ZN4core3ptr8non_null16NonNull$LT$T$GT$13new_unchecked17hd5e27eee660ac382E:
ffffffff8020532e: 41 11                	addi	sp, sp, -16
ffffffff80205330: 2a e4                	sd	a0, 8(sp)
ffffffff80205332: 2a e0                	sd	a0, 0(sp)
ffffffff80205334: 41 01                	addi	sp, sp, 16
ffffffff80205336: 82 80                	ret

ffffffff80205338 _ZN4core3ptr8non_null16NonNull$LT$T$GT$3new17h2e91c3792c8e108cE:
ffffffff80205338: 79 71                	addi	sp, sp, -48
ffffffff8020533a: 06 f4                	sd	ra, 40(sp)
ffffffff8020533c: 2a f0                	sd	a0, 32(sp)
ffffffff8020533e: 2a e8                	sd	a0, 16(sp)
ffffffff80205340: 97 00 00 00          	auipc	ra, 0
ffffffff80205344: e7 80 00 fc          	jalr	-64(ra)
ffffffff80205348: 2a e4                	sd	a0, 8(sp)
ffffffff8020534a: 09 a0                	j	2
ffffffff8020534c: 01 45                	mv	a0, zero
ffffffff8020534e: a2 65                	ld	a1, 8(sp)
ffffffff80205350: 63 86 a5 00          	beq	a1, a0, 12
ffffffff80205354: 09 a0                	j	2
ffffffff80205356: 01 45                	mv	a0, zero
ffffffff80205358: 2a ec                	sd	a0, 24(sp)
ffffffff8020535a: 19 a8                	j	22
ffffffff8020535c: 42 65                	ld	a0, 16(sp)
ffffffff8020535e: 97 00 00 00          	auipc	ra, 0
ffffffff80205362: e7 80 00 fd          	jalr	-48(ra)
ffffffff80205366: 2a e0                	sd	a0, 0(sp)
ffffffff80205368: 09 a0                	j	2
ffffffff8020536a: 02 65                	ld	a0, 0(sp)
ffffffff8020536c: 2a ec                	sd	a0, 24(sp)
ffffffff8020536e: 09 a0                	j	2
ffffffff80205370: 62 65                	ld	a0, 24(sp)
ffffffff80205372: a2 70                	ld	ra, 40(sp)
ffffffff80205374: 45 61                	addi	sp, sp, 48
ffffffff80205376: 82 80                	ret

ffffffff80205378 _ZN4core3ptr8non_null16NonNull$LT$T$GT$6as_ptr17hc74a5e281b28587fE:
ffffffff80205378: 41 11                	addi	sp, sp, -16
ffffffff8020537a: 2a e4                	sd	a0, 8(sp)
ffffffff8020537c: 41 01                	addi	sp, sp, 16
ffffffff8020537e: 82 80                	ret

ffffffff80205380 _ZN4core3ptr8non_null16NonNull$LT$T$GT$6as_ptr17hdf34d9ce5b3038faE:
ffffffff80205380: 41 11                	addi	sp, sp, -16
ffffffff80205382: 2a e4                	sd	a0, 8(sp)
ffffffff80205384: 41 01                	addi	sp, sp, 16
ffffffff80205386: 82 80                	ret

ffffffff80205388 _ZN4core4cell19UnsafeCell$LT$T$GT$3get17hbc17097b388e3f09E:
ffffffff80205388: 41 11                	addi	sp, sp, -16
ffffffff8020538a: 2a e4                	sd	a0, 8(sp)
ffffffff8020538c: 41 01                	addi	sp, sp, 16
ffffffff8020538e: 82 80                	ret

ffffffff80205390 _ZN4core4cell19UnsafeCell$LT$T$GT$3get17hdfb790bf8bf80787E:
ffffffff80205390: 41 11                	addi	sp, sp, -16
ffffffff80205392: 2a e4                	sd	a0, 8(sp)
ffffffff80205394: 41 01                	addi	sp, sp, 16
ffffffff80205396: 82 80                	ret

ffffffff80205398 _ZN4core4cell19UnsafeCell$LT$T$GT$3new17hb9e7e0e8df1628bfE:
ffffffff80205398: 41 11                	addi	sp, sp, -16
ffffffff8020539a: aa 85                	add	a1, zero, a0
ffffffff8020539c: a3 07 a1 00          	sb	a0, 15(sp)
ffffffff802053a0: 23 07 a1 00          	sb	a0, 14(sp)
ffffffff802053a4: 41 01                	addi	sp, sp, 16
ffffffff802053a6: 82 80                	ret

ffffffff802053a8 _ZN4core3ptr19swap_nonoverlapping17h7918bccbfde69394E:
ffffffff802053a8: 1d 71                	addi	sp, sp, -96
ffffffff802053aa: 86 ec                	sd	ra, 88(sp)
ffffffff802053ac: 2a f0                	sd	a0, 32(sp)
ffffffff802053ae: 2e f4                	sd	a1, 40(sp)
ffffffff802053b0: 32 f8                	sd	a2, 48(sp)
ffffffff802053b2: aa 86                	add	a3, zero, a0
ffffffff802053b4: 2a fc                	sd	a0, 56(sp)
ffffffff802053b6: 2e 85                	add	a0, zero, a1
ffffffff802053b8: ae e0                	sd	a1, 64(sp)
ffffffff802053ba: a1 45                	addi	a1, zero, 8
ffffffff802053bc: ae e8                	sd	a1, 80(sp)
ffffffff802053be: 32 ec                	sd	a2, 24(sp)
ffffffff802053c0: 36 e8                	sd	a3, 16(sp)
ffffffff802053c2: 2a e4                	sd	a0, 8(sp)
ffffffff802053c4: 2e e0                	sd	a1, 0(sp)
ffffffff802053c6: 09 a0                	j	2
ffffffff802053c8: 02 65                	ld	a0, 0(sp)
ffffffff802053ca: e2 65                	ld	a1, 24(sp)
ffffffff802053cc: 33 06 b5 02          	<unknown>
ffffffff802053d0: b2 e4                	sd	a2, 72(sp)
ffffffff802053d2: 42 65                	ld	a0, 16(sp)
ffffffff802053d4: a2 65                	ld	a1, 8(sp)
ffffffff802053d6: 97 00 00 00          	auipc	ra, 0
ffffffff802053da: e7 80 a0 07          	jalr	122(ra)
ffffffff802053de: 09 a0                	j	2
ffffffff802053e0: e6 60                	ld	ra, 88(sp)
ffffffff802053e2: 25 61                	addi	sp, sp, 96
ffffffff802053e4: 82 80                	ret

ffffffff802053e6 _ZN4core3ptr23swap_nonoverlapping_one17hf2ef27dc2cb608c4E:
ffffffff802053e6: 5d 71                	addi	sp, sp, -80
ffffffff802053e8: 86 e4                	sd	ra, 72(sp)
ffffffff802053ea: 2a f4                	sd	a0, 40(sp)
ffffffff802053ec: 2e f8                	sd	a1, 48(sp)
ffffffff802053ee: 21 46                	addi	a2, zero, 8
ffffffff802053f0: b2 e0                	sd	a2, 64(sp)
ffffffff802053f2: 2e ec                	sd	a1, 24(sp)
ffffffff802053f4: 2a e8                	sd	a0, 16(sp)
ffffffff802053f6: 32 e4                	sd	a2, 8(sp)
ffffffff802053f8: 09 a0                	j	2
ffffffff802053fa: 13 05 00 02          	addi	a0, zero, 32
ffffffff802053fe: a2 65                	ld	a1, 8(sp)
ffffffff80205400: 63 eb a5 00          	bltu	a1, a0, 22
ffffffff80205404: 09 a0                	j	2
ffffffff80205406: 05 46                	addi	a2, zero, 1
ffffffff80205408: 42 65                	ld	a0, 16(sp)
ffffffff8020540a: e2 65                	ld	a1, 24(sp)
ffffffff8020540c: 97 00 00 00          	auipc	ra, 0
ffffffff80205410: e7 80 c0 f9          	jalr	-100(ra)
ffffffff80205414: 15 a8                	j	52
ffffffff80205416: 42 65                	ld	a0, 16(sp)
ffffffff80205418: 97 00 00 00          	auipc	ra, 0
ffffffff8020541c: e7 80 80 17          	jalr	376(ra)
ffffffff80205420: aa 85                	add	a1, zero, a0
ffffffff80205422: 2a fc                	sd	a0, 56(sp)
ffffffff80205424: 2e e0                	sd	a1, 0(sp)
ffffffff80205426: 09 a0                	j	2
ffffffff80205428: 05 46                	addi	a2, zero, 1
ffffffff8020542a: 62 65                	ld	a0, 24(sp)
ffffffff8020542c: c2 65                	ld	a1, 16(sp)
ffffffff8020542e: 97 00 00 00          	auipc	ra, 0
ffffffff80205432: e7 80 20 8a          	jalr	-1886(ra)
ffffffff80205436: 09 a0                	j	2
ffffffff80205438: 62 65                	ld	a0, 24(sp)
ffffffff8020543a: 82 65                	ld	a1, 0(sp)
ffffffff8020543c: 97 00 00 00          	auipc	ra, 0
ffffffff80205440: e7 80 c0 18          	jalr	396(ra)
ffffffff80205444: 09 a0                	j	2
ffffffff80205446: 11 a0                	j	4
ffffffff80205448: 09 a0                	j	2
ffffffff8020544a: a6 60                	ld	ra, 72(sp)
ffffffff8020544c: 61 61                	addi	sp, sp, 80
ffffffff8020544e: 82 80                	ret

ffffffff80205450 _ZN4core3ptr25swap_nonoverlapping_bytes17h446fae5a748658c5E:
ffffffff80205450: 09 71                	addi	sp, sp, -384
ffffffff80205452: 86 fe                	sd	ra, 376(sp)
ffffffff80205454: a2 fa                	sd	s0, 368(sp)
ffffffff80205456: 00 03                	addi	s0, sp, 384
ffffffff80205458: 13 71 01 fe          	andi	sp, sp, -32
ffffffff8020545c: aa f9                	sd	a0, 240(sp)
ffffffff8020545e: ae fd                	sd	a1, 248(sp)
ffffffff80205460: 32 e2                	sd	a2, 256(sp)
ffffffff80205462: 93 06 00 02          	addi	a3, zero, 32
ffffffff80205466: b6 e6                	sd	a3, 328(sp)
ffffffff80205468: 36 e6                	sd	a3, 264(sp)
ffffffff8020546a: 32 e5                	sd	a2, 136(sp)
ffffffff8020546c: 2e e1                	sd	a1, 128(sp)
ffffffff8020546e: aa fc                	sd	a0, 120(sp)
ffffffff80205470: b6 f8                	sd	a3, 112(sp)
ffffffff80205472: 09 a0                	j	2
ffffffff80205474: 01 45                	mv	a0, zero
ffffffff80205476: 2a ed                	sd	a0, 152(sp)
ffffffff80205478: 09 a0                	j	2
ffffffff8020547a: 6a 65                	ld	a0, 152(sp)
ffffffff8020547c: c6 75                	ld	a1, 112(sp)
ffffffff8020547e: 2e 95                	add	a0, a0, a1
ffffffff80205480: 2a 66                	ld	a2, 136(sp)
ffffffff80205482: 63 78 a6 00          	bgeu	a2, a0, 16
ffffffff80205486: 09 a0                	j	2
ffffffff80205488: 6a 65                	ld	a0, 152(sp)
ffffffff8020548a: aa 65                	ld	a1, 136(sp)
ffffffff8020548c: 63 6e b5 06          	bltu	a0, a1, 124
ffffffff80205490: 9d a8                	j	118
ffffffff80205492: 09 a0                	j	2
ffffffff80205494: 08 11                	addi	a0, sp, 160
ffffffff80205496: aa f2                	sd	a0, 352(sp)
ffffffff80205498: aa f6                	sd	a0, 360(sp)
ffffffff8020549a: 09 a0                	j	2
ffffffff8020549c: 08 11                	addi	a0, sp, 160
ffffffff8020549e: 2a ea                	sd	a0, 272(sp)
ffffffff802054a0: ea 65                	ld	a1, 152(sp)
ffffffff802054a2: 66 76                	ld	a2, 120(sp)
ffffffff802054a4: aa f4                	sd	a0, 104(sp)
ffffffff802054a6: 32 85                	add	a0, zero, a2
ffffffff802054a8: 97 00 00 00          	auipc	ra, 0
ffffffff802054ac: e7 80 20 e1          	jalr	-494(ra)
ffffffff802054b0: aa 85                	add	a1, zero, a0
ffffffff802054b2: 2a ee                	sd	a0, 280(sp)
ffffffff802054b4: ae f0                	sd	a1, 96(sp)
ffffffff802054b6: 09 a0                	j	2
ffffffff802054b8: ea 65                	ld	a1, 152(sp)
ffffffff802054ba: 0a 65                	ld	a0, 128(sp)
ffffffff802054bc: 97 00 00 00          	auipc	ra, 0
ffffffff802054c0: e7 80 e0 df          	jalr	-514(ra)
ffffffff802054c4: aa 85                	add	a1, zero, a0
ffffffff802054c6: 2a f2                	sd	a0, 288(sp)
ffffffff802054c8: ae ec                	sd	a1, 88(sp)
ffffffff802054ca: 09 a0                	j	2
ffffffff802054cc: 06 75                	ld	a0, 96(sp)
ffffffff802054ce: a6 75                	ld	a1, 104(sp)
ffffffff802054d0: 46 76                	ld	a2, 112(sp)
ffffffff802054d2: 97 f0 ff ff          	auipc	ra, 1048575
ffffffff802054d6: e7 80 e0 7d          	jalr	2014(ra)
ffffffff802054da: 09 a0                	j	2
ffffffff802054dc: 66 65                	ld	a0, 88(sp)
ffffffff802054de: 86 75                	ld	a1, 96(sp)
ffffffff802054e0: 46 76                	ld	a2, 112(sp)
ffffffff802054e2: 97 f0 ff ff          	auipc	ra, 1048575
ffffffff802054e6: e7 80 e0 7c          	jalr	1998(ra)
ffffffff802054ea: 09 a0                	j	2
ffffffff802054ec: 26 75                	ld	a0, 104(sp)
ffffffff802054ee: e6 65                	ld	a1, 88(sp)
ffffffff802054f0: 46 76                	ld	a2, 112(sp)
ffffffff802054f2: 97 f0 ff ff          	auipc	ra, 1048575
ffffffff802054f6: e7 80 e0 7b          	jalr	1982(ra)
ffffffff802054fa: 09 a0                	j	2
ffffffff802054fc: 6a 65                	ld	a0, 152(sp)
ffffffff802054fe: c6 75                	ld	a1, 112(sp)
ffffffff80205500: 2e 95                	add	a0, a0, a1
ffffffff80205502: 2a ed                	sd	a0, 152(sp)
ffffffff80205504: 9d bf                	j	-138
ffffffff80205506: bd a8                	j	126
ffffffff80205508: 09 a0                	j	2
ffffffff8020550a: 6a 65                	ld	a0, 152(sp)
ffffffff8020550c: aa 65                	ld	a1, 136(sp)
ffffffff8020550e: 33 85 a5 40          	sub	a0, a1, a0
ffffffff80205512: 2a f6                	sd	a0, 296(sp)
ffffffff80205514: 90 09                	addi	a2, sp, 208
ffffffff80205516: b2 ea                	sd	a2, 336(sp)
ffffffff80205518: b2 ee                	sd	a2, 344(sp)
ffffffff8020551a: aa e8                	sd	a0, 80(sp)
ffffffff8020551c: b2 e4                	sd	a2, 72(sp)
ffffffff8020551e: 09 a0                	j	2
ffffffff80205520: 26 65                	ld	a0, 72(sp)
ffffffff80205522: a6 65                	ld	a1, 72(sp)
ffffffff80205524: 2e fa                	sd	a1, 304(sp)
ffffffff80205526: ea 65                	ld	a1, 152(sp)
ffffffff80205528: 66 76                	ld	a2, 120(sp)
ffffffff8020552a: aa e0                	sd	a0, 64(sp)
ffffffff8020552c: 32 85                	add	a0, zero, a2
ffffffff8020552e: 97 00 00 00          	auipc	ra, 0
ffffffff80205532: e7 80 c0 d8          	jalr	-628(ra)
ffffffff80205536: aa 85                	add	a1, zero, a0
ffffffff80205538: 2a fe                	sd	a0, 312(sp)
ffffffff8020553a: 2e fc                	sd	a1, 56(sp)
ffffffff8020553c: 09 a0                	j	2
ffffffff8020553e: ea 65                	ld	a1, 152(sp)
ffffffff80205540: 0a 65                	ld	a0, 128(sp)
ffffffff80205542: 97 00 00 00          	auipc	ra, 0
ffffffff80205546: e7 80 80 d7          	jalr	-648(ra)
ffffffff8020554a: aa 85                	add	a1, zero, a0
ffffffff8020554c: aa e2                	sd	a0, 320(sp)
ffffffff8020554e: 2e f8                	sd	a1, 48(sp)
ffffffff80205550: 09 a0                	j	2
ffffffff80205552: 62 75                	ld	a0, 56(sp)
ffffffff80205554: 86 65                	ld	a1, 64(sp)
ffffffff80205556: 46 66                	ld	a2, 80(sp)
ffffffff80205558: 97 f0 ff ff          	auipc	ra, 1048575
ffffffff8020555c: e7 80 80 75          	jalr	1880(ra)
ffffffff80205560: 09 a0                	j	2
ffffffff80205562: 42 75                	ld	a0, 48(sp)
ffffffff80205564: e2 75                	ld	a1, 56(sp)
ffffffff80205566: 46 66                	ld	a2, 80(sp)
ffffffff80205568: 97 f0 ff ff          	auipc	ra, 1048575
ffffffff8020556c: e7 80 80 74          	jalr	1864(ra)
ffffffff80205570: 09 a0                	j	2
ffffffff80205572: 06 65                	ld	a0, 64(sp)
ffffffff80205574: c2 75                	ld	a1, 48(sp)
ffffffff80205576: 46 66                	ld	a2, 80(sp)
ffffffff80205578: 97 f0 ff ff          	auipc	ra, 1048575
ffffffff8020557c: e7 80 80 73          	jalr	1848(ra)
ffffffff80205580: 09 a0                	j	2
ffffffff80205582: 09 a0                	j	2
ffffffff80205584: 13 01 04 e8          	addi	sp, s0, -384
ffffffff80205588: 56 74                	ld	s0, 368(sp)
ffffffff8020558a: f6 70                	ld	ra, 376(sp)
ffffffff8020558c: 19 61                	addi	sp, sp, 384
ffffffff8020558e: 82 80                	ret

ffffffff80205590 _ZN4core3ptr4read17h8306c93c12fc3038E:
ffffffff80205590: 5d 71                	addi	sp, sp, -80
ffffffff80205592: 86 e4                	sd	ra, 72(sp)
ffffffff80205594: 2a ec                	sd	a0, 24(sp)
ffffffff80205596: 82 75                	ld	a1, 32(sp)
ffffffff80205598: 2e e8                	sd	a1, 16(sp)
ffffffff8020559a: 2a e4                	sd	a0, 8(sp)
ffffffff8020559c: 09 a0                	j	2
ffffffff8020559e: 08 08                	addi	a0, sp, 16
ffffffff802055a0: 2a fc                	sd	a0, 56(sp)
ffffffff802055a2: aa e0                	sd	a0, 64(sp)
ffffffff802055a4: 09 a0                	j	2
ffffffff802055a6: 0c 08                	addi	a1, sp, 16
ffffffff802055a8: 05 46                	addi	a2, zero, 1
ffffffff802055aa: 22 65                	ld	a0, 8(sp)
ffffffff802055ac: 97 f0 ff ff          	auipc	ra, 1048575
ffffffff802055b0: e7 80 40 72          	jalr	1828(ra)
ffffffff802055b4: 09 a0                	j	2
ffffffff802055b6: 42 65                	ld	a0, 16(sp)
ffffffff802055b8: 2a f4                	sd	a0, 40(sp)
ffffffff802055ba: 2a f8                	sd	a0, 48(sp)
ffffffff802055bc: 2a e0                	sd	a0, 0(sp)
ffffffff802055be: 09 a0                	j	2
ffffffff802055c0: 02 65                	ld	a0, 0(sp)
ffffffff802055c2: a6 60                	ld	ra, 72(sp)
ffffffff802055c4: 61 61                	addi	sp, sp, 80
ffffffff802055c6: 82 80                	ret

ffffffff802055c8 _ZN4core3ptr5write17hd65c4e6cc15152a2E:
ffffffff802055c8: 01 11                	addi	sp, sp, -32
ffffffff802055ca: 2a e8                	sd	a0, 16(sp)
ffffffff802055cc: 2e ec                	sd	a1, 24(sp)
ffffffff802055ce: 0c e1                	sd	a1, 0(a0)
ffffffff802055d0: 05 61                	addi	sp, sp, 32
ffffffff802055d2: 82 80                	ret

ffffffff802055d4 _ZN4core5slice29_$LT$impl$u20$$u5b$T$u5d$$GT$3len17h261ddc21f973d1e5E:
ffffffff802055d4: 01 11                	addi	sp, sp, -32
ffffffff802055d6: 2a e8                	sd	a0, 16(sp)
ffffffff802055d8: 2e ec                	sd	a1, 24(sp)
ffffffff802055da: 2a e0                	sd	a0, 0(sp)
ffffffff802055dc: 2e e4                	sd	a1, 8(sp)
ffffffff802055de: 2e 85                	add	a0, zero, a1
ffffffff802055e0: 05 61                	addi	sp, sp, 32
ffffffff802055e2: 82 80                	ret

ffffffff802055e4 _ZN4core5slice29_$LT$impl$u20$$u5b$T$u5d$$GT$4iter17hc3626eefa60876f3E:
ffffffff802055e4: 35 71                	addi	sp, sp, -160
ffffffff802055e6: 06 ed                	sd	ra, 152(sp)
ffffffff802055e8: aa fc                	sd	a0, 120(sp)
ffffffff802055ea: 2e e1                	sd	a1, 128(sp)
ffffffff802055ec: aa e8                	sd	a0, 80(sp)
ffffffff802055ee: ae e4                	sd	a1, 72(sp)
ffffffff802055f0: 97 00 00 00          	auipc	ra, 0
ffffffff802055f4: e7 80 00 0a          	jalr	160(ra)
ffffffff802055f8: aa 85                	add	a1, zero, a0
ffffffff802055fa: 2a e5                	sd	a0, 136(sp)
ffffffff802055fc: ae e0                	sd	a1, 64(sp)
ffffffff802055fe: 09 a0                	j	2
ffffffff80205600: 06 65                	ld	a0, 64(sp)
ffffffff80205602: 97 00 00 00          	auipc	ra, 0
ffffffff80205606: e7 80 20 c7          	jalr	-910(ra)
ffffffff8020560a: 09 a0                	j	2
ffffffff8020560c: 09 a0                	j	2
ffffffff8020560e: 21 45                	addi	a0, zero, 8
ffffffff80205610: 2a e9                	sd	a0, 144(sp)
ffffffff80205612: 2a fc                	sd	a0, 56(sp)
ffffffff80205614: 09 a0                	j	2
ffffffff80205616: 01 45                	mv	a0, zero
ffffffff80205618: e2 75                	ld	a1, 56(sp)
ffffffff8020561a: 63 8b a5 00          	beq	a1, a0, 22
ffffffff8020561e: 09 a0                	j	2
ffffffff80205620: 46 65                	ld	a0, 80(sp)
ffffffff80205622: a6 65                	ld	a1, 72(sp)
ffffffff80205624: 97 00 00 00          	auipc	ra, 0
ffffffff80205628: e7 80 00 fb          	jalr	-80(ra)
ffffffff8020562c: 2a f8                	sd	a0, 48(sp)
ffffffff8020562e: 3d a0                	j	46
ffffffff80205630: 06 65                	ld	a0, 64(sp)
ffffffff80205632: c6 65                	ld	a1, 80(sp)
ffffffff80205634: 2a f4                	sd	a0, 40(sp)
ffffffff80205636: 2e 85                	add	a0, zero, a1
ffffffff80205638: a6 65                	ld	a1, 72(sp)
ffffffff8020563a: 97 00 00 00          	auipc	ra, 0
ffffffff8020563e: e7 80 a0 f9          	jalr	-102(ra)
ffffffff80205642: 2a f0                	sd	a0, 32(sp)
ffffffff80205644: 09 a0                	j	2
ffffffff80205646: 22 75                	ld	a0, 40(sp)
ffffffff80205648: 82 75                	ld	a1, 32(sp)
ffffffff8020564a: 97 00 00 00          	auipc	ra, 0
ffffffff8020564e: e7 80 80 bc          	jalr	-1080(ra)
ffffffff80205652: 2a ec                	sd	a0, 24(sp)
ffffffff80205654: 09 a0                	j	2
ffffffff80205656: 62 65                	ld	a0, 24(sp)
ffffffff80205658: aa f4                	sd	a0, 104(sp)
ffffffff8020565a: 11 a8                	j	20
ffffffff8020565c: 06 65                	ld	a0, 64(sp)
ffffffff8020565e: c2 75                	ld	a1, 48(sp)
ffffffff80205660: 97 00 00 00          	auipc	ra, 0
ffffffff80205664: e7 80 20 be          	jalr	-1054(ra)
ffffffff80205668: aa f4                	sd	a0, 104(sp)
ffffffff8020566a: 09 a0                	j	2
ffffffff8020566c: 09 a0                	j	2
ffffffff8020566e: 06 65                	ld	a0, 64(sp)
ffffffff80205670: 97 00 00 00          	auipc	ra, 0
ffffffff80205674: e7 80 40 cb          	jalr	-844(ra)
ffffffff80205678: 2a e8                	sd	a0, 16(sp)
ffffffff8020567a: 09 a0                	j	2
ffffffff8020567c: 26 75                	ld	a0, 104(sp)
ffffffff8020567e: c2 65                	ld	a1, 16(sp)
ffffffff80205680: ae ec                	sd	a1, 88(sp)
ffffffff80205682: aa f0                	sd	a0, 96(sp)
ffffffff80205684: 2a e4                	sd	a0, 8(sp)
ffffffff80205686: 2e 85                	add	a0, zero, a1
ffffffff80205688: a2 65                	ld	a1, 8(sp)
ffffffff8020568a: ea 60                	ld	ra, 152(sp)
ffffffff8020568c: 0d 61                	addi	sp, sp, 160
ffffffff8020568e: 82 80                	ret

ffffffff80205690 _ZN4core5slice29_$LT$impl$u20$$u5b$T$u5d$$GT$6as_ptr17h57d41ded24f89fbdE:
ffffffff80205690: 41 11                	addi	sp, sp, -16
ffffffff80205692: 2a e0                	sd	a0, 0(sp)
ffffffff80205694: 2e e4                	sd	a1, 8(sp)
ffffffff80205696: 41 01                	addi	sp, sp, 16
ffffffff80205698: 82 80                	ret

ffffffff8020569a _ZN85_$LT$core..slice..Iter$LT$T$GT$$u20$as$u20$core..iter..traits..iterator..Iterator$GT$4next17h6cd89e67e8f32cd5E:
ffffffff8020569a: 19 71                	addi	sp, sp, -128
ffffffff8020569c: 86 fc                	sd	ra, 120(sp)
ffffffff8020569e: aa e0                	sd	a0, 64(sp)
ffffffff802056a0: 0c 61                	ld	a1, 0(a0)
ffffffff802056a2: 2a f8                	sd	a0, 48(sp)
ffffffff802056a4: 2e 85                	add	a0, zero, a1
ffffffff802056a6: 97 00 00 00          	auipc	ra, 0
ffffffff802056aa: e7 80 a0 cd          	jalr	-806(ra)
ffffffff802056ae: 2a f4                	sd	a0, 40(sp)
ffffffff802056b0: 09 a0                	j	2
ffffffff802056b2: 22 75                	ld	a0, 40(sp)
ffffffff802056b4: 97 00 00 00          	auipc	ra, 0
ffffffff802056b8: e7 80 e0 c5          	jalr	-930(ra)
ffffffff802056bc: 09 a0                	j	2
ffffffff802056be: 09 a0                	j	2
ffffffff802056c0: 21 45                	addi	a0, zero, 8
ffffffff802056c2: aa e4                	sd	a0, 72(sp)
ffffffff802056c4: 2a f0                	sd	a0, 32(sp)
ffffffff802056c6: 09 a0                	j	2
ffffffff802056c8: 01 45                	mv	a0, zero
ffffffff802056ca: 82 75                	ld	a1, 32(sp)
ffffffff802056cc: 63 94 a5 00          	bne	a1, a0, 8
ffffffff802056d0: 09 a0                	j	2
ffffffff802056d2: 11 a8                	j	20
ffffffff802056d4: 42 75                	ld	a0, 48(sp)
ffffffff802056d6: 08 65                	ld	a0, 8(a0)
ffffffff802056d8: 97 00 00 00          	auipc	ra, 0
ffffffff802056dc: e7 80 c0 b9          	jalr	-1124(ra)
ffffffff802056e0: 09 a0                	j	2
ffffffff802056e2: 09 a0                	j	2
ffffffff802056e4: 09 a0                	j	2
ffffffff802056e6: 42 75                	ld	a0, 48(sp)
ffffffff802056e8: 08 61                	ld	a0, 0(a0)
ffffffff802056ea: 97 00 00 00          	auipc	ra, 0
ffffffff802056ee: e7 80 60 c9          	jalr	-874(ra)
ffffffff802056f2: 2a ec                	sd	a0, 24(sp)
ffffffff802056f4: 09 a0                	j	2
ffffffff802056f6: 42 75                	ld	a0, 48(sp)
ffffffff802056f8: 0c 65                	ld	a1, 8(a0)
ffffffff802056fa: 62 66                	ld	a2, 24(sp)
ffffffff802056fc: 63 0c b6 06          	beq	a2, a1, 120
ffffffff80205700: 09 a0                	j	2
ffffffff80205702: 42 75                	ld	a0, 48(sp)
ffffffff80205704: aa ec                	sd	a0, 88(sp)
ffffffff80205706: 85 45                	addi	a1, zero, 1
ffffffff80205708: ae f0                	sd	a1, 96(sp)
ffffffff8020570a: a1 45                	addi	a1, zero, 8
ffffffff8020570c: ae f8                	sd	a1, 112(sp)
ffffffff8020570e: 81 45                	mv	a1, zero
ffffffff80205710: 9d ed                	bnez	a1, 62
ffffffff80205712: 09 a0                	j	2
ffffffff80205714: 42 75                	ld	a0, 48(sp)
ffffffff80205716: 08 61                	ld	a0, 0(a0)
ffffffff80205718: 97 00 00 00          	auipc	ra, 0
ffffffff8020571c: e7 80 80 c6          	jalr	-920(ra)
ffffffff80205720: aa f4                	sd	a0, 104(sp)
ffffffff80205722: c2 75                	ld	a1, 48(sp)
ffffffff80205724: 90 61                	ld	a2, 0(a1)
ffffffff80205726: 2a e8                	sd	a0, 16(sp)
ffffffff80205728: 32 85                	add	a0, zero, a2
ffffffff8020572a: 97 00 00 00          	auipc	ra, 0
ffffffff8020572e: e7 80 60 c5          	jalr	-938(ra)
ffffffff80205732: 85 45                	addi	a1, zero, 1
ffffffff80205734: 97 00 00 00          	auipc	ra, 0
ffffffff80205738: e7 80 60 bb          	jalr	-1098(ra)
ffffffff8020573c: 97 00 00 00          	auipc	ra, 0
ffffffff80205740: e7 80 80 be          	jalr	-1048(ra)
ffffffff80205744: c2 75                	ld	a1, 48(sp)
ffffffff80205746: 88 e1                	sd	a0, 0(a1)
ffffffff80205748: 42 65                	ld	a0, 16(sp)
ffffffff8020574a: aa e8                	sd	a0, 80(sp)
ffffffff8020574c: 0d a0                	j	34
ffffffff8020574e: 42 75                	ld	a0, 48(sp)
ffffffff80205750: 08 65                	ld	a0, 8(a0)
ffffffff80205752: fd 55                	addi	a1, zero, -1
ffffffff80205754: 97 00 00 00          	auipc	ra, 0
ffffffff80205758: e7 80 a0 ad          	jalr	-1318(ra)
ffffffff8020575c: c2 75                	ld	a1, 48(sp)
ffffffff8020575e: 88 e5                	sd	a0, 8(a1)
ffffffff80205760: 88 61                	ld	a0, 0(a1)
ffffffff80205762: 97 00 00 00          	auipc	ra, 0
ffffffff80205766: e7 80 e0 c1          	jalr	-994(ra)
ffffffff8020576a: aa e8                	sd	a0, 80(sp)
ffffffff8020576c: 09 a0                	j	2
ffffffff8020576e: 46 65                	ld	a0, 80(sp)
ffffffff80205770: 2a e4                	sd	a0, 8(sp)
ffffffff80205772: 21 a0                	j	8
ffffffff80205774: 01 45                	mv	a0, zero
ffffffff80205776: 2a fc                	sd	a0, 56(sp)
ffffffff80205778: 21 a0                	j	8
ffffffff8020577a: 22 65                	ld	a0, 8(sp)
ffffffff8020577c: 2a fc                	sd	a0, 56(sp)
ffffffff8020577e: 09 a0                	j	2
ffffffff80205780: 62 75                	ld	a0, 56(sp)
ffffffff80205782: e6 70                	ld	ra, 120(sp)
ffffffff80205784: 09 61                	addi	sp, sp, 128
ffffffff80205786: 82 80                	ret

ffffffff80205788 _ZN4core3cmp3Ord3max17h349138c14895816eE:
ffffffff80205788: 01 11                	addi	sp, sp, -32
ffffffff8020578a: 06 ec                	sd	ra, 24(sp)
ffffffff8020578c: 2a e4                	sd	a0, 8(sp)
ffffffff8020578e: 2e e8                	sd	a1, 16(sp)
ffffffff80205790: 97 00 00 00          	auipc	ra, 0
ffffffff80205794: e7 80 80 06          	jalr	104(ra)
ffffffff80205798: 2a e0                	sd	a0, 0(sp)
ffffffff8020579a: 09 a0                	j	2
ffffffff8020579c: 02 65                	ld	a0, 0(sp)
ffffffff8020579e: e2 60                	ld	ra, 24(sp)
ffffffff802057a0: 05 61                	addi	sp, sp, 32
ffffffff802057a2: 82 80                	ret

ffffffff802057a4 _ZN4core3cmp3Ord3min17h87896db62a1c94e5E:
ffffffff802057a4: 01 11                	addi	sp, sp, -32
ffffffff802057a6: 06 ec                	sd	ra, 24(sp)
ffffffff802057a8: 2a e4                	sd	a0, 8(sp)
ffffffff802057aa: 2e e8                	sd	a1, 16(sp)
ffffffff802057ac: 97 00 00 00          	auipc	ra, 0
ffffffff802057b0: e7 80 80 0c          	jalr	200(ra)
ffffffff802057b4: 2a e0                	sd	a0, 0(sp)
ffffffff802057b6: 09 a0                	j	2
ffffffff802057b8: 02 65                	ld	a0, 0(sp)
ffffffff802057ba: e2 60                	ld	ra, 24(sp)
ffffffff802057bc: 05 61                	addi	sp, sp, 32
ffffffff802057be: 82 80                	ret

ffffffff802057c0 _ZN4core3cmp3max17haab8fc7f3ae23f7dE:
ffffffff802057c0: 01 11                	addi	sp, sp, -32
ffffffff802057c2: 06 ec                	sd	ra, 24(sp)
ffffffff802057c4: 2a e4                	sd	a0, 8(sp)
ffffffff802057c6: 2e e8                	sd	a1, 16(sp)
ffffffff802057c8: 97 00 00 00          	auipc	ra, 0
ffffffff802057cc: e7 80 00 fc          	jalr	-64(ra)
ffffffff802057d0: 2a e0                	sd	a0, 0(sp)
ffffffff802057d2: 09 a0                	j	2
ffffffff802057d4: 02 65                	ld	a0, 0(sp)
ffffffff802057d6: e2 60                	ld	ra, 24(sp)
ffffffff802057d8: 05 61                	addi	sp, sp, 32
ffffffff802057da: 82 80                	ret

ffffffff802057dc _ZN4core3cmp3min17hbe267142d6f8f815E:
ffffffff802057dc: 01 11                	addi	sp, sp, -32
ffffffff802057de: 06 ec                	sd	ra, 24(sp)
ffffffff802057e0: 2a e4                	sd	a0, 8(sp)
ffffffff802057e2: 2e e8                	sd	a1, 16(sp)
ffffffff802057e4: 97 00 00 00          	auipc	ra, 0
ffffffff802057e8: e7 80 00 fc          	jalr	-64(ra)
ffffffff802057ec: 2a e0                	sd	a0, 0(sp)
ffffffff802057ee: 09 a0                	j	2
ffffffff802057f0: 02 65                	ld	a0, 0(sp)
ffffffff802057f2: e2 60                	ld	ra, 24(sp)
ffffffff802057f4: 05 61                	addi	sp, sp, 32
ffffffff802057f6: 82 80                	ret

ffffffff802057f8 _ZN4core3cmp6max_by17h5b63123b712366d2E:
ffffffff802057f8: 5d 71                	addi	sp, sp, -80
ffffffff802057fa: 86 e4                	sd	ra, 72(sp)
ffffffff802057fc: 2a e4                	sd	a0, 8(sp)
ffffffff802057fe: 2e e8                	sd	a1, 16(sp)
ffffffff80205800: 05 45                	addi	a0, zero, 1
ffffffff80205802: a3 0f a1 02          	sb	a0, 63(sp)
ffffffff80205806: 23 0f a1 02          	sb	a0, 62(sp)
ffffffff8020580a: 28 00                	addi	a0, sp, 8
ffffffff8020580c: 2a f4                	sd	a0, 40(sp)
ffffffff8020580e: 0c 08                	addi	a1, sp, 16
ffffffff80205810: 2e f8                	sd	a1, 48(sp)
ffffffff80205812: 97 00 00 00          	auipc	ra, 0
ffffffff80205816: e7 80 60 37          	jalr	886(ra)
ffffffff8020581a: a3 03 a1 02          	sb	a0, 39(sp)
ffffffff8020581e: 09 a0                	j	2
ffffffff80205820: 03 05 71 02          	lb	a0, 39(sp)
ffffffff80205824: 05 05                	addi	a0, a0, 1
ffffffff80205826: 89 45                	addi	a1, zero, 2
ffffffff80205828: 63 6a b5 00          	bltu	a0, a1, 20
ffffffff8020582c: 09 a0                	j	2
ffffffff8020582e: 01 45                	mv	a0, zero
ffffffff80205830: a3 0f a1 02          	sb	a0, 63(sp)
ffffffff80205834: 22 65                	ld	a0, 8(sp)
ffffffff80205836: 2a ec                	sd	a0, 24(sp)
ffffffff80205838: 01 a8                	j	16
ffffffff8020583a: 00 00                	unimp	
ffffffff8020583c: 01 45                	mv	a0, zero
ffffffff8020583e: 23 0f a1 02          	sb	a0, 62(sp)
ffffffff80205842: 42 65                	ld	a0, 16(sp)
ffffffff80205844: 2a ec                	sd	a0, 24(sp)
ffffffff80205846: 09 a0                	j	2
ffffffff80205848: 03 45 e1 03          	lbu	a0, 62(sp)
ffffffff8020584c: 05 89                	andi	a0, a0, 1
ffffffff8020584e: 19 e9                	bnez	a0, 22
ffffffff80205850: 09 a0                	j	2
ffffffff80205852: 03 45 f1 03          	lbu	a0, 63(sp)
ffffffff80205856: 05 89                	andi	a0, a0, 1
ffffffff80205858: 11 e9                	bnez	a0, 20
ffffffff8020585a: 09 a0                	j	2
ffffffff8020585c: 62 65                	ld	a0, 24(sp)
ffffffff8020585e: a6 60                	ld	ra, 72(sp)
ffffffff80205860: 61 61                	addi	sp, sp, 80
ffffffff80205862: 82 80                	ret
ffffffff80205864: 01 45                	mv	a0, zero
ffffffff80205866: 23 0f a1 02          	sb	a0, 62(sp)
ffffffff8020586a: e5 b7                	j	-24
ffffffff8020586c: 01 45                	mv	a0, zero
ffffffff8020586e: a3 0f a1 02          	sb	a0, 63(sp)
ffffffff80205872: ed b7                	j	-22

ffffffff80205874 _ZN4core3cmp6min_by17h8b5c1c5ce1b83739E:
ffffffff80205874: 5d 71                	addi	sp, sp, -80
ffffffff80205876: 86 e4                	sd	ra, 72(sp)
ffffffff80205878: 2a e4                	sd	a0, 8(sp)
ffffffff8020587a: 2e e8                	sd	a1, 16(sp)
ffffffff8020587c: 05 45                	addi	a0, zero, 1
ffffffff8020587e: a3 0f a1 02          	sb	a0, 63(sp)
ffffffff80205882: 23 0f a1 02          	sb	a0, 62(sp)
ffffffff80205886: 28 00                	addi	a0, sp, 8
ffffffff80205888: 2a f4                	sd	a0, 40(sp)
ffffffff8020588a: 0c 08                	addi	a1, sp, 16
ffffffff8020588c: 2e f8                	sd	a1, 48(sp)
ffffffff8020588e: 97 00 00 00          	auipc	ra, 0
ffffffff80205892: e7 80 a0 2f          	jalr	762(ra)
ffffffff80205896: a3 03 a1 02          	sb	a0, 39(sp)
ffffffff8020589a: 09 a0                	j	2
ffffffff8020589c: 03 05 71 02          	lb	a0, 39(sp)
ffffffff802058a0: 05 05                	addi	a0, a0, 1
ffffffff802058a2: 89 45                	addi	a1, zero, 2
ffffffff802058a4: 63 6a b5 00          	bltu	a0, a1, 20
ffffffff802058a8: 09 a0                	j	2
ffffffff802058aa: 01 45                	mv	a0, zero
ffffffff802058ac: 23 0f a1 02          	sb	a0, 62(sp)
ffffffff802058b0: 42 65                	ld	a0, 16(sp)
ffffffff802058b2: 2a ec                	sd	a0, 24(sp)
ffffffff802058b4: 01 a8                	j	16
ffffffff802058b6: 00 00                	unimp	
ffffffff802058b8: 01 45                	mv	a0, zero
ffffffff802058ba: a3 0f a1 02          	sb	a0, 63(sp)
ffffffff802058be: 22 65                	ld	a0, 8(sp)
ffffffff802058c0: 2a ec                	sd	a0, 24(sp)
ffffffff802058c2: 09 a0                	j	2
ffffffff802058c4: 03 45 e1 03          	lbu	a0, 62(sp)
ffffffff802058c8: 05 89                	andi	a0, a0, 1
ffffffff802058ca: 19 e9                	bnez	a0, 22
ffffffff802058cc: 09 a0                	j	2
ffffffff802058ce: 03 45 f1 03          	lbu	a0, 63(sp)
ffffffff802058d2: 05 89                	andi	a0, a0, 1
ffffffff802058d4: 11 e9                	bnez	a0, 20
ffffffff802058d6: 09 a0                	j	2
ffffffff802058d8: 62 65                	ld	a0, 24(sp)
ffffffff802058da: a6 60                	ld	ra, 72(sp)
ffffffff802058dc: 61 61                	addi	sp, sp, 80
ffffffff802058de: 82 80                	ret
ffffffff802058e0: 01 45                	mv	a0, zero
ffffffff802058e2: 23 0f a1 02          	sb	a0, 62(sp)
ffffffff802058e6: e5 b7                	j	-24
ffffffff802058e8: 01 45                	mv	a0, zero
ffffffff802058ea: a3 0f a1 02          	sb	a0, 63(sp)
ffffffff802058ee: ed b7                	j	-22

ffffffff802058f0 _ZN4spin5mutex14Mutex$LT$T$GT$11obtain_lock17hfae5ac3e4e2e26d2E:
ffffffff802058f0: 39 71                	addi	sp, sp, -64
ffffffff802058f2: 06 fc                	sd	ra, 56(sp)
ffffffff802058f4: 2a f8                	sd	a0, 48(sp)
ffffffff802058f6: 2a f4                	sd	a0, 40(sp)
ffffffff802058f8: 09 a0                	j	2
ffffffff802058fa: 01 45                	mv	a0, zero
ffffffff802058fc: 05 46                	addi	a2, zero, 1
ffffffff802058fe: 89 46                	addi	a3, zero, 2
ffffffff80205900: a2 75                	ld	a1, 40(sp)
ffffffff80205902: 2a f0                	sd	a0, 32(sp)
ffffffff80205904: 2e 85                	add	a0, zero, a1
ffffffff80205906: 82 75                	ld	a1, 32(sp)
ffffffff80205908: 97 f0 ff ff          	auipc	ra, 1048575
ffffffff8020590c: e7 80 20 b1          	jalr	-1262(ra)
ffffffff80205910: 2a ec                	sd	a0, 24(sp)
ffffffff80205912: 09 a0                	j	2
ffffffff80205914: 01 45                	mv	a0, zero
ffffffff80205916: e2 65                	ld	a1, 24(sp)
ffffffff80205918: 63 96 a5 00          	bne	a1, a0, 12
ffffffff8020591c: 09 a0                	j	2
ffffffff8020591e: e2 70                	ld	ra, 56(sp)
ffffffff80205920: 21 61                	addi	sp, sp, 64
ffffffff80205922: 82 80                	ret
ffffffff80205924: 01 45                	mv	a0, zero
ffffffff80205926: a2 75                	ld	a1, 40(sp)
ffffffff80205928: 2a e8                	sd	a0, 16(sp)
ffffffff8020592a: 2e 85                	add	a0, zero, a1
ffffffff8020592c: c2 65                	ld	a1, 16(sp)
ffffffff8020592e: 97 f0 ff ff          	auipc	ra, 1048575
ffffffff80205932: e7 80 c0 c0          	jalr	-1012(ra)
ffffffff80205936: 2a e4                	sd	a0, 8(sp)
ffffffff80205938: 09 a0                	j	2
ffffffff8020593a: 22 65                	ld	a0, 8(sp)
ffffffff8020593c: 19 e1                	bnez	a0, 6
ffffffff8020593e: 09 a0                	j	2
ffffffff80205940: 6d bf                	j	-70
ffffffff80205942: 97 f0 ff ff          	auipc	ra, 1048575
ffffffff80205946: e7 80 00 dd          	jalr	-560(ra)
ffffffff8020594a: 09 a0                	j	2
ffffffff8020594c: e1 bf                	j	-40

ffffffff8020594e _ZN4spin5mutex14Mutex$LT$T$GT$4lock17hda82c372190e2b36E:
ffffffff8020594e: 39 71                	addi	sp, sp, -64
ffffffff80205950: 06 fc                	sd	ra, 56(sp)
ffffffff80205952: 2a f8                	sd	a0, 48(sp)
ffffffff80205954: 2a ec                	sd	a0, 24(sp)
ffffffff80205956: 97 00 00 00          	auipc	ra, 0
ffffffff8020595a: e7 80 a0 f9          	jalr	-102(ra)
ffffffff8020595e: 09 a0                	j	2
ffffffff80205960: 62 65                	ld	a0, 24(sp)
ffffffff80205962: e2 65                	ld	a1, 24(sp)
ffffffff80205964: 13 86 85 00          	addi	a2, a1, 8
ffffffff80205968: 2a e8                	sd	a0, 16(sp)
ffffffff8020596a: 32 85                	add	a0, zero, a2
ffffffff8020596c: 97 00 00 00          	auipc	ra, 0
ffffffff80205970: e7 80 40 a2          	jalr	-1500(ra)
ffffffff80205974: 2a e4                	sd	a0, 8(sp)
ffffffff80205976: 09 a0                	j	2
ffffffff80205978: 42 65                	ld	a0, 16(sp)
ffffffff8020597a: 2a f0                	sd	a0, 32(sp)
ffffffff8020597c: a2 65                	ld	a1, 8(sp)
ffffffff8020597e: 2e f4                	sd	a1, 40(sp)
ffffffff80205980: e2 70                	ld	ra, 56(sp)
ffffffff80205982: 21 61                	addi	sp, sp, 64
ffffffff80205984: 82 80                	ret

ffffffff80205986 _ZN74_$LT$spin..mutex..MutexGuard$LT$T$GT$$u20$as$u20$core..ops..drop..Drop$GT$4drop17h66214bf11859896bE:
ffffffff80205986: 41 11                	addi	sp, sp, -16
ffffffff80205988: 06 e4                	sd	ra, 8(sp)
ffffffff8020598a: 2a e0                	sd	a0, 0(sp)
ffffffff8020598c: 08 61                	ld	a0, 0(a0)
ffffffff8020598e: 81 45                	mv	a1, zero
ffffffff80205990: 05 46                	addi	a2, zero, 1
ffffffff80205992: 97 f0 ff ff          	auipc	ra, 1048575
ffffffff80205996: e7 80 20 be          	jalr	-1054(ra)
ffffffff8020599a: 09 a0                	j	2
ffffffff8020599c: a2 60                	ld	ra, 8(sp)
ffffffff8020599e: 41 01                	addi	sp, sp, 16
ffffffff802059a0: 82 80                	ret

ffffffff802059a2 _ZN79_$LT$spin..mutex..MutexGuard$LT$T$GT$$u20$as$u20$core..ops..deref..DerefMut$GT$9deref_mut17h1477b5660c95b8d1E:
ffffffff802059a2: 41 11                	addi	sp, sp, -16
ffffffff802059a4: 2a e4                	sd	a0, 8(sp)
ffffffff802059a6: 08 65                	ld	a0, 8(a0)
ffffffff802059a8: 41 01                	addi	sp, sp, 16
ffffffff802059aa: 82 80                	ret

ffffffff802059ac _ZN4core6option15Option$LT$T$GT$6expect17hca863e3d0cfed5c4E:
ffffffff802059ac: 39 71                	addi	sp, sp, -64
ffffffff802059ae: 2a ec                	sd	a0, 24(sp)
ffffffff802059b0: 2e f0                	sd	a1, 32(sp)
ffffffff802059b2: 32 f4                	sd	a2, 40(sp)
ffffffff802059b4: 36 f8                	sd	a3, 48(sp)
ffffffff802059b6: aa 85                	add	a1, zero, a0
ffffffff802059b8: 81 47                	mv	a5, zero
ffffffff802059ba: 3a e8                	sd	a4, 16(sp)
ffffffff802059bc: 36 e4                	sd	a3, 8(sp)
ffffffff802059be: 32 e0                	sd	a2, 0(sp)
ffffffff802059c0: 63 04 f5 00          	beq	a0, a5, 8
ffffffff802059c4: 09 a0                	j	2
ffffffff802059c6: 11 a8                	j	20
ffffffff802059c8: 02 65                	ld	a0, 0(sp)
ffffffff802059ca: a2 65                	ld	a1, 8(sp)
ffffffff802059cc: 42 66                	ld	a2, 16(sp)
ffffffff802059ce: 97 30 00 00          	auipc	ra, 3
ffffffff802059d2: e7 80 00 e0          	jalr	-512(ra)
ffffffff802059d6: 00 00                	unimp	
ffffffff802059d8: 00 00                	unimp	
ffffffff802059da: 02 75                	ld	a0, 32(sp)
ffffffff802059dc: 2a fc                	sd	a0, 56(sp)
ffffffff802059de: 21 61                	addi	sp, sp, 64
ffffffff802059e0: 82 80                	ret

ffffffff802059e2 _ZN4core6option15Option$LT$T$GT$6map_or17hc3818d9cfc1b0fa0E:
ffffffff802059e2: 5d 71                	addi	sp, sp, -80
ffffffff802059e4: 86 e4                	sd	ra, 72(sp)
ffffffff802059e6: 2a e8                	sd	a0, 16(sp)
ffffffff802059e8: 2e f8                	sd	a1, 48(sp)
ffffffff802059ea: 05 46                	addi	a2, zero, 1
ffffffff802059ec: a3 07 c1 02          	sb	a2, 47(sp)
ffffffff802059f0: 23 07 c1 02          	sb	a2, 46(sp)
ffffffff802059f4: 33 36 a0 00          	snez	a2, a0
ffffffff802059f8: 81 46                	mv	a3, zero
ffffffff802059fa: 2e e4                	sd	a1, 8(sp)
ffffffff802059fc: 63 04 d5 00          	beq	a0, a3, 8
ffffffff80205a00: 09 a0                	j	2
ffffffff80205a02: 01 a8                	j	16
ffffffff80205a04: 01 45                	mv	a0, zero
ffffffff80205a06: a3 07 a1 02          	sb	a0, 47(sp)
ffffffff80205a0a: 22 65                	ld	a0, 8(sp)
ffffffff80205a0c: 2a ec                	sd	a0, 24(sp)
ffffffff80205a0e: 25 a8                	j	56
ffffffff80205a10: 00 00                	unimp	
ffffffff80205a12: 42 65                	ld	a0, 16(sp)
ffffffff80205a14: aa e0                	sd	a0, 64(sp)
ffffffff80205a16: 81 45                	mv	a1, zero
ffffffff80205a18: 23 07 b1 02          	sb	a1, 46(sp)
ffffffff80205a1c: 2a f0                	sd	a0, 32(sp)
ffffffff80205a1e: 97 f0 ff ff          	auipc	ra, 1048575
ffffffff80205a22: e7 80 c0 89          	jalr	-1892(ra)
ffffffff80205a26: 2a ec                	sd	a0, 24(sp)
ffffffff80205a28: 09 a0                	j	2
ffffffff80205a2a: 31 a8                	j	28
ffffffff80205a2c: 03 45 f1 02          	lbu	a0, 47(sp)
ffffffff80205a30: 05 89                	andi	a0, a0, 1
ffffffff80205a32: 19 ed                	bnez	a0, 30
ffffffff80205a34: 09 a0                	j	2
ffffffff80205a36: 62 65                	ld	a0, 24(sp)
ffffffff80205a38: a6 60                	ld	ra, 72(sp)
ffffffff80205a3a: 61 61                	addi	sp, sp, 80
ffffffff80205a3c: 82 80                	ret
ffffffff80205a3e: 01 45                	mv	a0, zero
ffffffff80205a40: 23 07 a1 02          	sb	a0, 46(sp)
ffffffff80205a44: e5 b7                	j	-24
ffffffff80205a46: 03 45 e1 02          	lbu	a0, 46(sp)
ffffffff80205a4a: 05 89                	andi	a0, a0, 1
ffffffff80205a4c: 6d f9                	bnez	a0, -14
ffffffff80205a4e: f9 bf                	j	-34
ffffffff80205a50: 01 45                	mv	a0, zero
ffffffff80205a52: a3 07 a1 02          	sb	a0, 47(sp)
ffffffff80205a56: c5 b7                	j	-32

ffffffff80205a58 _ZN4core6option15Option$LT$T$GT$7is_none17hff76a5a93c154334E:
ffffffff80205a58: 01 11                	addi	sp, sp, -32
ffffffff80205a5a: 06 ec                	sd	ra, 24(sp)
ffffffff80205a5c: 2a e8                	sd	a0, 16(sp)
ffffffff80205a5e: 97 00 00 00          	auipc	ra, 0
ffffffff80205a62: e7 80 80 01          	jalr	24(ra)
ffffffff80205a66: 2a e4                	sd	a0, 8(sp)
ffffffff80205a68: 09 a0                	j	2
ffffffff80205a6a: 22 65                	ld	a0, 8(sp)
ffffffff80205a6c: 13 45 15 00          	xori	a0, a0, 1
ffffffff80205a70: e2 60                	ld	ra, 24(sp)
ffffffff80205a72: 05 61                	addi	sp, sp, 32
ffffffff80205a74: 82 80                	ret

ffffffff80205a76 _ZN4core6option15Option$LT$T$GT$7is_some17h6d9de7e7ef1763f4E:
ffffffff80205a76: 41 11                	addi	sp, sp, -16
ffffffff80205a78: 2a e4                	sd	a0, 8(sp)
ffffffff80205a7a: 08 61                	ld	a0, 0(a0)
ffffffff80205a7c: 85 45                	addi	a1, zero, 1
ffffffff80205a7e: 63 07 b5 00          	beq	a0, a1, 14
ffffffff80205a82: 09 a0                	j	2
ffffffff80205a84: 01 45                	mv	a0, zero
ffffffff80205a86: a3 03 a1 00          	sb	a0, 7(sp)
ffffffff80205a8a: 29 a0                	j	10
ffffffff80205a8c: 05 45                	addi	a0, zero, 1
ffffffff80205a8e: a3 03 a1 00          	sb	a0, 7(sp)
ffffffff80205a92: 09 a0                	j	2
ffffffff80205a94: 03 45 71 00          	lbu	a0, 7(sp)
ffffffff80205a98: 41 01                	addi	sp, sp, 16
ffffffff80205a9a: 82 80                	ret

ffffffff80205a9c _ZN50_$LT$T$u20$as$u20$core..convert..From$LT$T$GT$$GT$4from17h622d664e67dca0b7E:
ffffffff80205a9c: 41 11                	addi	sp, sp, -16
ffffffff80205a9e: 41 01                	addi	sp, sp, 16
ffffffff80205aa0: 82 80                	ret

ffffffff80205aa2 _ZN47_$LT$usize$u20$as$u20$core..ops..arith..Sub$GT$3sub17h3590d8c9aca2c0fbE:
ffffffff80205aa2: 01 11                	addi	sp, sp, -32
ffffffff80205aa4: 2a e8                	sd	a0, 16(sp)
ffffffff80205aa6: 2e ec                	sd	a1, 24(sp)
ffffffff80205aa8: b3 05 b5 40          	sub	a1, a0, a1
ffffffff80205aac: 2e e4                	sd	a1, 8(sp)
ffffffff80205aae: 63 66 b5 00          	bltu	a0, a1, 12
ffffffff80205ab2: 09 a0                	j	2
ffffffff80205ab4: 22 65                	ld	a0, 8(sp)
ffffffff80205ab6: 05 61                	addi	sp, sp, 32
ffffffff80205ab8: 82 80                	ret

ffffffff80205aba .LBB0_3:
ffffffff80205aba: 17 75 00 00          	auipc	a0, 7
ffffffff80205abe: 13 05 65 cf          	addi	a0, a0, -778

ffffffff80205ac2 .LBB0_4:
ffffffff80205ac2: 17 76 00 00          	auipc	a2, 7
ffffffff80205ac6: 13 06 66 cd          	addi	a2, a2, -810
ffffffff80205aca: 93 05 10 02          	addi	a1, zero, 33
ffffffff80205ace: 97 30 00 00          	auipc	ra, 3
ffffffff80205ad2: e7 80 a0 d9          	jalr	-614(ra)
ffffffff80205ad6: 00 00                	unimp	

ffffffff80205ad8 _ZN49_$LT$usize$u20$as$u20$core..iter..range..Step$GT$16backward_checked17h1c2ff900d5cd00e2E:
ffffffff80205ad8: 5d 71                	addi	sp, sp, -80
ffffffff80205ada: 86 e4                	sd	ra, 72(sp)
ffffffff80205adc: 2a f8                	sd	a0, 48(sp)
ffffffff80205ade: 2e fc                	sd	a1, 56(sp)
ffffffff80205ae0: 2a f0                	sd	a0, 32(sp)
ffffffff80205ae2: 2e 85                	add	a0, zero, a1
ffffffff80205ae4: 97 00 00 00          	auipc	ra, 0
ffffffff80205ae8: e7 80 40 10          	jalr	260(ra)
ffffffff80205aec: 2a f4                	sd	a0, 40(sp)
ffffffff80205aee: 09 a0                	j	2
ffffffff80205af0: 22 75                	ld	a0, 40(sp)
ffffffff80205af2: aa e0                	sd	a0, 64(sp)
ffffffff80205af4: 82 75                	ld	a1, 32(sp)
ffffffff80205af6: 2a ec                	sd	a0, 24(sp)
ffffffff80205af8: 2e 85                	add	a0, zero, a1
ffffffff80205afa: e2 65                	ld	a1, 24(sp)
ffffffff80205afc: 97 f0 ff ff          	auipc	ra, 1048575
ffffffff80205b00: e7 80 20 27          	jalr	626(ra)
ffffffff80205b04: 2a e8                	sd	a0, 16(sp)
ffffffff80205b06: 2e e4                	sd	a1, 8(sp)
ffffffff80205b08: 09 a0                	j	2
ffffffff80205b0a: 42 65                	ld	a0, 16(sp)
ffffffff80205b0c: a2 65                	ld	a1, 8(sp)
ffffffff80205b0e: a6 60                	ld	ra, 72(sp)
ffffffff80205b10: 61 61                	addi	sp, sp, 80
ffffffff80205b12: 82 80                	ret

ffffffff80205b14 _ZN49_$LT$usize$u20$as$u20$core..iter..range..Step$GT$17forward_unchecked17h5d7818879303b1d5E:
ffffffff80205b14: 01 11                	addi	sp, sp, -32
ffffffff80205b16: 06 ec                	sd	ra, 24(sp)
ffffffff80205b18: 2a e4                	sd	a0, 8(sp)
ffffffff80205b1a: 2e e8                	sd	a1, 16(sp)
ffffffff80205b1c: 97 f0 ff ff          	auipc	ra, 1048575
ffffffff80205b20: e7 80 20 36          	jalr	866(ra)
ffffffff80205b24: 2a e0                	sd	a0, 0(sp)
ffffffff80205b26: 09 a0                	j	2
ffffffff80205b28: 02 65                	ld	a0, 0(sp)
ffffffff80205b2a: e2 60                	ld	ra, 24(sp)
ffffffff80205b2c: 05 61                	addi	sp, sp, 32
ffffffff80205b2e: 82 80                	ret

ffffffff80205b30 _ZN49_$LT$usize$u20$as$u20$core..iter..range..Step$GT$8backward17h009d1a9b38d507a6E:
ffffffff80205b30: 5d 71                	addi	sp, sp, -80
ffffffff80205b32: 86 e4                	sd	ra, 72(sp)
ffffffff80205b34: 2a fc                	sd	a0, 56(sp)
ffffffff80205b36: ae e0                	sd	a1, 64(sp)
ffffffff80205b38: 2a f0                	sd	a0, 32(sp)
ffffffff80205b3a: 2e ec                	sd	a1, 24(sp)
ffffffff80205b3c: 97 00 00 00          	auipc	ra, 0
ffffffff80205b40: e7 80 c0 f9          	jalr	-100(ra)
ffffffff80205b44: 2a f4                	sd	a0, 40(sp)
ffffffff80205b46: 2e f8                	sd	a1, 48(sp)
ffffffff80205b48: 09 a0                	j	2
ffffffff80205b4a: 28 10                	addi	a0, sp, 40
ffffffff80205b4c: 97 00 00 00          	auipc	ra, 0
ffffffff80205b50: e7 80 c0 f0          	jalr	-244(ra)
ffffffff80205b54: 2a e8                	sd	a0, 16(sp)
ffffffff80205b56: 09 a0                	j	2
ffffffff80205b58: 42 65                	ld	a0, 16(sp)
ffffffff80205b5a: 19 e1                	bnez	a0, 6
ffffffff80205b5c: 09 a0                	j	2
ffffffff80205b5e: 09 a8                	j	18
ffffffff80205b60: 01 45                	mv	a0, zero
ffffffff80205b62: 85 45                	addi	a1, zero, 1
ffffffff80205b64: 97 00 00 00          	auipc	ra, 0
ffffffff80205b68: e7 80 e0 f3          	jalr	-194(ra)
ffffffff80205b6c: 09 a0                	j	2
ffffffff80205b6e: 09 a0                	j	2
ffffffff80205b70: 02 75                	ld	a0, 32(sp)
ffffffff80205b72: e2 65                	ld	a1, 24(sp)
ffffffff80205b74: 97 f0 ff ff          	auipc	ra, 1048575
ffffffff80205b78: e7 80 c0 23          	jalr	572(ra)
ffffffff80205b7c: 2a e4                	sd	a0, 8(sp)
ffffffff80205b7e: 09 a0                	j	2
ffffffff80205b80: 22 65                	ld	a0, 8(sp)
ffffffff80205b82: a6 60                	ld	ra, 72(sp)
ffffffff80205b84: 61 61                	addi	sp, sp, 80
ffffffff80205b86: 82 80                	ret

ffffffff80205b88 _ZN4core3ops8function6FnOnce9call_once17h1f65f633997e68fbE:
ffffffff80205b88: 79 71                	addi	sp, sp, -48
ffffffff80205b8a: 06 f4                	sd	ra, 40(sp)
ffffffff80205b8c: 2a e8                	sd	a0, 16(sp)
ffffffff80205b8e: 2e ec                	sd	a1, 24(sp)
ffffffff80205b90: 97 f0 ff ff          	auipc	ra, 1048575
ffffffff80205b94: e7 80 a0 62          	jalr	1578(ra)
ffffffff80205b98: 2a e4                	sd	a0, 8(sp)
ffffffff80205b9a: 09 a0                	j	2
ffffffff80205b9c: 22 65                	ld	a0, 8(sp)
ffffffff80205b9e: a2 70                	ld	ra, 40(sp)
ffffffff80205ba0: 45 61                	addi	sp, sp, 48
ffffffff80205ba2: 82 80                	ret

ffffffff80205ba4 _ZN4core3ptr13drop_in_place17h2022919a1a94ef2eE:
ffffffff80205ba4: 01 11                	addi	sp, sp, -32
ffffffff80205ba6: 06 ec                	sd	ra, 24(sp)
ffffffff80205ba8: 2a e8                	sd	a0, 16(sp)
ffffffff80205baa: 97 00 00 00          	auipc	ra, 0
ffffffff80205bae: e7 80 c0 dd          	jalr	-548(ra)
ffffffff80205bb2: 09 a0                	j	2
ffffffff80205bb4: e2 60                	ld	ra, 24(sp)
ffffffff80205bb6: 05 61                	addi	sp, sp, 32
ffffffff80205bb8: 82 80                	ret

ffffffff80205bba _ZN4core4hint9spin_loop17h1d3fd8b88b262ae5E:
ffffffff80205bba: 82 80                	ret

ffffffff80205bbc _ZN4core5clone5impls54_$LT$impl$u20$core..clone..Clone$u20$for$u20$usize$GT$5clone17h9b59ec8419123185E:
ffffffff80205bbc: 41 11                	addi	sp, sp, -16
ffffffff80205bbe: 2a e4                	sd	a0, 8(sp)
ffffffff80205bc0: 08 61                	ld	a0, 0(a0)
ffffffff80205bc2: 41 01                	addi	sp, sp, 16
ffffffff80205bc4: 82 80                	ret

ffffffff80205bc6 _ZN50_$LT$T$u20$as$u20$core..convert..From$LT$T$GT$$GT$4from17h570435a9ea4724b9E:
ffffffff80205bc6: 41 11                	addi	sp, sp, -16
ffffffff80205bc8: 2a e4                	sd	a0, 8(sp)
ffffffff80205bca: 41 01                	addi	sp, sp, 16
ffffffff80205bcc: 82 80                	ret

ffffffff80205bce _ZN50_$LT$T$u20$as$u20$core..convert..Into$LT$U$GT$$GT$4into17h31faf3d58978c363E:
ffffffff80205bce: 01 11                	addi	sp, sp, -32
ffffffff80205bd0: 06 ec                	sd	ra, 24(sp)
ffffffff80205bd2: 2a e8                	sd	a0, 16(sp)
ffffffff80205bd4: 97 00 00 00          	auipc	ra, 0
ffffffff80205bd8: e7 80 20 ff          	jalr	-14(ra)
ffffffff80205bdc: 2a e4                	sd	a0, 8(sp)
ffffffff80205bde: 09 a0                	j	2
ffffffff80205be0: 22 65                	ld	a0, 8(sp)
ffffffff80205be2: e2 60                	ld	ra, 24(sp)
ffffffff80205be4: 05 61                	addi	sp, sp, 32
ffffffff80205be6: 82 80                	ret

ffffffff80205be8 _ZN53_$LT$T$u20$as$u20$core..convert..TryFrom$LT$U$GT$$GT$8try_from17h4525309b9160812fE:
ffffffff80205be8: 01 11                	addi	sp, sp, -32
ffffffff80205bea: 06 ec                	sd	ra, 24(sp)
ffffffff80205bec: 2a e8                	sd	a0, 16(sp)
ffffffff80205bee: 97 00 00 00          	auipc	ra, 0
ffffffff80205bf2: e7 80 00 fe          	jalr	-32(ra)
ffffffff80205bf6: 2a e0                	sd	a0, 0(sp)
ffffffff80205bf8: 09 a0                	j	2
ffffffff80205bfa: 02 65                	ld	a0, 0(sp)
ffffffff80205bfc: 2a e4                	sd	a0, 8(sp)
ffffffff80205bfe: e2 60                	ld	ra, 24(sp)
ffffffff80205c00: 05 61                	addi	sp, sp, 32
ffffffff80205c02: 82 80                	ret

ffffffff80205c04 _ZN4core5slice29_$LT$impl$u20$$u5b$T$u5d$$GT$3len17h9d3df46ce9e921faE:
ffffffff80205c04: 01 11                	addi	sp, sp, -32
ffffffff80205c06: 2a e8                	sd	a0, 16(sp)
ffffffff80205c08: 2e ec                	sd	a1, 24(sp)
ffffffff80205c0a: 2a e0                	sd	a0, 0(sp)
ffffffff80205c0c: 2e e4                	sd	a1, 8(sp)
ffffffff80205c0e: 2e 85                	add	a0, zero, a1
ffffffff80205c10: 05 61                	addi	sp, sp, 32
ffffffff80205c12: 82 80                	ret

ffffffff80205c14 _ZN4core6result19Result$LT$T$C$E$GT$2ok17h388aab3a319f923bE:
ffffffff80205c14: 01 11                	addi	sp, sp, -32
ffffffff80205c16: 2a e4                	sd	a0, 8(sp)
ffffffff80205c18: 93 35 15 00          	seqz	a1, a0
ffffffff80205c1c: 01 46                	mv	a2, zero
ffffffff80205c1e: 63 17 c5 00          	bne	a0, a2, 14
ffffffff80205c22: 09 a0                	j	2
ffffffff80205c24: 01 45                	mv	a0, zero
ffffffff80205c26: 2a e8                	sd	a0, 16(sp)
ffffffff80205c28: 11 a8                	j	20
ffffffff80205c2a: 00 00                	unimp	
ffffffff80205c2c: 22 65                	ld	a0, 8(sp)
ffffffff80205c2e: 2a ec                	sd	a0, 24(sp)
ffffffff80205c30: 2a e8                	sd	a0, 16(sp)
ffffffff80205c32: 29 a0                	j	10
ffffffff80205c34: 42 65                	ld	a0, 16(sp)
ffffffff80205c36: 05 61                	addi	sp, sp, 32
ffffffff80205c38: 82 80                	ret
ffffffff80205c3a: ed bf                	j	-6
ffffffff80205c3c: 22 65                	ld	a0, 8(sp)
ffffffff80205c3e: 81 45                	mv	a1, zero
ffffffff80205c40: e3 1a b5 fe          	bne	a0, a1, -12
ffffffff80205c44: dd bf                	j	-10

ffffffff80205c46 _ZN63_$LT$I$u20$as$u20$core..iter..traits..collect..IntoIterator$GT$9into_iter17h18f2b1d50db5451dE:
ffffffff80205c46: 90 69                	ld	a2, 16(a1)
ffffffff80205c48: 10 e9                	sd	a2, 16(a0)
ffffffff80205c4a: 90 65                	ld	a2, 8(a1)
ffffffff80205c4c: 10 e5                	sd	a2, 8(a0)
ffffffff80205c4e: 8c 61                	ld	a1, 0(a1)
ffffffff80205c50: 0c e1                	sd	a1, 0(a0)
ffffffff80205c52: 82 80                	ret

ffffffff80205c54 _ZN22buddy_system_allocator11linked_list10LinkedList8is_empty17h360fea6e69f5c8c6E:
ffffffff80205c54: 01 11                	addi	sp, sp, -32
ffffffff80205c56: 06 ec                	sd	ra, 24(sp)
ffffffff80205c58: 2a e8                	sd	a0, 16(sp)
ffffffff80205c5a: 08 61                	ld	a0, 0(a0)
ffffffff80205c5c: 97 f0 ff ff          	auipc	ra, 1048575
ffffffff80205c60: e7 80 60 6b          	jalr	1718(ra)
ffffffff80205c64: 2a e4                	sd	a0, 8(sp)
ffffffff80205c66: 09 a0                	j	2
ffffffff80205c68: 22 65                	ld	a0, 8(sp)
ffffffff80205c6a: e2 60                	ld	ra, 24(sp)
ffffffff80205c6c: 05 61                	addi	sp, sp, 32
ffffffff80205c6e: 82 80                	ret

ffffffff80205c70 _ZN22buddy_system_allocator11linked_list10LinkedList4push17hcd85e34e05dd73deE:
ffffffff80205c70: 41 11                	addi	sp, sp, -16
ffffffff80205c72: 2a e0                	sd	a0, 0(sp)
ffffffff80205c74: 2e e4                	sd	a1, 8(sp)
ffffffff80205c76: 10 61                	ld	a2, 0(a0)
ffffffff80205c78: 90 e1                	sd	a2, 0(a1)
ffffffff80205c7a: 0c e1                	sd	a1, 0(a0)
ffffffff80205c7c: 41 01                	addi	sp, sp, 16
ffffffff80205c7e: 82 80                	ret

ffffffff80205c80 _ZN22buddy_system_allocator11linked_list10LinkedList3pop17hb6e0d8750439f5aaE:
ffffffff80205c80: 39 71                	addi	sp, sp, -64
ffffffff80205c82: 06 fc                	sd	ra, 56(sp)
ffffffff80205c84: 2a f4                	sd	a0, 40(sp)
ffffffff80205c86: 2a e8                	sd	a0, 16(sp)
ffffffff80205c88: 97 00 00 00          	auipc	ra, 0
ffffffff80205c8c: e7 80 c0 fc          	jalr	-52(ra)
ffffffff80205c90: 2a e4                	sd	a0, 8(sp)
ffffffff80205c92: 09 a0                	j	2
ffffffff80205c94: 22 65                	ld	a0, 8(sp)
ffffffff80205c96: 19 e9                	bnez	a0, 22
ffffffff80205c98: 09 a0                	j	2
ffffffff80205c9a: 42 65                	ld	a0, 16(sp)
ffffffff80205c9c: 0c 61                	ld	a1, 0(a0)
ffffffff80205c9e: 2e f8                	sd	a1, 48(sp)
ffffffff80205ca0: 90 61                	ld	a2, 0(a1)
ffffffff80205ca2: 10 e1                	sd	a2, 0(a0)
ffffffff80205ca4: 2e f0                	sd	a1, 32(sp)
ffffffff80205ca6: 85 45                	addi	a1, zero, 1
ffffffff80205ca8: 2e ec                	sd	a1, 24(sp)
ffffffff80205caa: 21 a0                	j	8
ffffffff80205cac: 01 45                	mv	a0, zero
ffffffff80205cae: 2a ec                	sd	a0, 24(sp)
ffffffff80205cb0: 09 a0                	j	2
ffffffff80205cb2: 62 65                	ld	a0, 24(sp)
ffffffff80205cb4: 82 75                	ld	a1, 32(sp)
ffffffff80205cb6: e2 70                	ld	ra, 56(sp)
ffffffff80205cb8: 21 61                	addi	sp, sp, 64
ffffffff80205cba: 82 80                	ret

ffffffff80205cbc _ZN22buddy_system_allocator11linked_list10LinkedList8iter_mut17ha1747d1573cfb7f5E:
ffffffff80205cbc: 41 11                	addi	sp, sp, -16
ffffffff80205cbe: 2e e4                	sd	a1, 8(sp)
ffffffff80205cc0: 90 61                	ld	a2, 0(a1)
ffffffff80205cc2: 0c e1                	sd	a1, 0(a0)
ffffffff80205cc4: 0c e5                	sd	a1, 8(a0)
ffffffff80205cc6: 10 e9                	sd	a2, 16(a0)
ffffffff80205cc8: 41 01                	addi	sp, sp, 16
ffffffff80205cca: 82 80                	ret

ffffffff80205ccc _ZN22buddy_system_allocator11linked_list8ListNode3pop17h405cbe87af129338E:
ffffffff80205ccc: 41 11                	addi	sp, sp, -16
ffffffff80205cce: 2a e0                	sd	a0, 0(sp)
ffffffff80205cd0: 2e e4                	sd	a1, 8(sp)
ffffffff80205cd2: 90 61                	ld	a2, 0(a1)
ffffffff80205cd4: 10 e1                	sd	a2, 0(a0)
ffffffff80205cd6: 2e 85                	add	a0, zero, a1
ffffffff80205cd8: 41 01                	addi	sp, sp, 16
ffffffff80205cda: 82 80                	ret

ffffffff80205cdc _ZN22buddy_system_allocator11linked_list8ListNode5value17h1c4e3e9feac0e1f3E:
ffffffff80205cdc: 41 11                	addi	sp, sp, -16
ffffffff80205cde: 2a e4                	sd	a0, 8(sp)
ffffffff80205ce0: 08 65                	ld	a0, 8(a0)
ffffffff80205ce2: 41 01                	addi	sp, sp, 16
ffffffff80205ce4: 82 80                	ret

ffffffff80205ce6 _ZN103_$LT$buddy_system_allocator..linked_list..IterMut$u20$as$u20$core..iter..traits..iterator..Iterator$GT$4next17h3569317530694630E:
ffffffff80205ce6: 39 71                	addi	sp, sp, -64
ffffffff80205ce8: 06 fc                	sd	ra, 56(sp)
ffffffff80205cea: 2e f8                	sd	a1, 48(sp)
ffffffff80205cec: 90 69                	ld	a2, 16(a1)
ffffffff80205cee: 2a ec                	sd	a0, 24(sp)
ffffffff80205cf0: 32 85                	add	a0, zero, a2
ffffffff80205cf2: 2e e8                	sd	a1, 16(sp)
ffffffff80205cf4: 97 f0 ff ff          	auipc	ra, 1048575
ffffffff80205cf8: e7 80 e0 61          	jalr	1566(ra)
ffffffff80205cfc: 2a e4                	sd	a0, 8(sp)
ffffffff80205cfe: 09 a0                	j	2
ffffffff80205d00: 22 65                	ld	a0, 8(sp)
ffffffff80205d02: 1d e1                	bnez	a0, 38
ffffffff80205d04: 09 a0                	j	2
ffffffff80205d06: 42 65                	ld	a0, 16(sp)
ffffffff80205d08: 0c 65                	ld	a1, 8(a0)
ffffffff80205d0a: 10 69                	ld	a2, 16(a0)
ffffffff80205d0c: 2e f0                	sd	a1, 32(sp)
ffffffff80205d0e: 32 f4                	sd	a2, 40(sp)
ffffffff80205d10: 0c 69                	ld	a1, 16(a0)
ffffffff80205d12: 0c e5                	sd	a1, 8(a0)
ffffffff80205d14: 8c 61                	ld	a1, 0(a1)
ffffffff80205d16: 0c e9                	sd	a1, 16(a0)
ffffffff80205d18: 82 75                	ld	a1, 32(sp)
ffffffff80205d1a: 22 76                	ld	a2, 40(sp)
ffffffff80205d1c: e2 66                	ld	a3, 24(sp)
ffffffff80205d1e: 8c e6                	sd	a1, 8(a3)
ffffffff80205d20: 90 ea                	sd	a2, 16(a3)
ffffffff80205d22: 85 45                	addi	a1, zero, 1
ffffffff80205d24: 8c e2                	sd	a1, 0(a3)
ffffffff80205d26: 29 a0                	j	10
ffffffff80205d28: 01 45                	mv	a0, zero
ffffffff80205d2a: e2 65                	ld	a1, 24(sp)
ffffffff80205d2c: 88 e1                	sd	a0, 0(a1)
ffffffff80205d2e: 09 a0                	j	2
ffffffff80205d30: e2 70                	ld	ra, 56(sp)
ffffffff80205d32: 21 61                	addi	sp, sp, 64
ffffffff80205d34: 82 80                	ret

ffffffff80205d36 _ZN118_$LT$algorithm..allocator..segment_tree_allocator..SegmentTreeAllocator$u20$as$u20$algorithm..allocator..Allocator$GT$3new17h7801236508debe8cE:
ffffffff80205d36: 13 01 01 dd          	addi	sp, sp, -560
ffffffff80205d3a: 23 34 11 22          	sd	ra, 552(sp)
ffffffff80205d3e: ae eb                	sd	a1, 464(sp)
ffffffff80205d40: 21 46                	addi	a2, zero, 8
ffffffff80205d42: 2e e2                	sd	a1, 256(sp)
ffffffff80205d44: aa fd                	sd	a0, 248(sp)
ffffffff80205d46: 63 ec c5 00          	bltu	a1, a2, 24
ffffffff80205d4a: 09 a0                	j	2
ffffffff80205d4c: 12 65                	ld	a0, 256(sp)
ffffffff80205d4e: 97 10 00 00          	auipc	ra, 1
ffffffff80205d52: e7 80 80 be          	jalr	-1048(ra)
ffffffff80205d56: aa 85                	add	a1, zero, a0
ffffffff80205d58: aa ef                	sd	a0, 472(sp)
ffffffff80205d5a: ae f9                	sd	a1, 240(sp)
ffffffff80205d5c: 39 a8                	j	30

ffffffff80205d5e .LBB0_56:
ffffffff80205d5e: 17 75 00 00          	auipc	a0, 7
ffffffff80205d62: 13 05 35 a7          	addi	a0, a0, -1421

ffffffff80205d66 .LBB0_57:
ffffffff80205d66: 17 76 00 00          	auipc	a2, 7
ffffffff80205d6a: 13 06 26 ac          	addi	a2, a2, -1342
ffffffff80205d6e: fd 45                	addi	a1, zero, 31
ffffffff80205d70: 97 30 00 00          	auipc	ra, 3
ffffffff80205d74: e7 80 80 af          	jalr	-1288(ra)
ffffffff80205d78: 00 00                	unimp	
ffffffff80205d7a: 4e 75                	ld	a0, 240(sp)
ffffffff80205d7c: b3 05 a5 00          	add	a1, a0, a0
ffffffff80205d80: ae f5                	sd	a1, 232(sp)
ffffffff80205d82: 63 e5 a5 26          	bltu	a1, a0, 618
ffffffff80205d86: 09 a0                	j	2
ffffffff80205d88: 28 02                	addi	a0, sp, 264
ffffffff80205d8a: 81 45                	mv	a1, zero
ffffffff80205d8c: 2e 76                	ld	a2, 232(sp)
ffffffff80205d8e: 97 10 00 00          	auipc	ra, 1
ffffffff80205d92: e7 80 a0 d9          	jalr	-614(ra)
ffffffff80205d96: 09 a0                	j	2
ffffffff80205d98: 12 65                	ld	a0, 256(sp)
ffffffff80205d9a: 93 05 75 00          	addi	a1, a0, 7
ffffffff80205d9e: ae f1                	sd	a1, 224(sp)
ffffffff80205da0: 63 e5 a5 26          	bltu	a1, a0, 618
ffffffff80205da4: 09 a0                	j	2
ffffffff80205da6: 0e 75                	ld	a0, 224(sp)
ffffffff80205da8: 93 55 35 00          	srli	a1, a0, 3
ffffffff80205dac: 4e 76                	ld	a2, 240(sp)
ffffffff80205dae: 93 56 36 00          	srli	a3, a2, 3
ffffffff80205db2: 2e f2                	sd	a1, 288(sp)
ffffffff80205db4: 36 f6                	sd	a3, 296(sp)
ffffffff80205db6: 2e 85                	add	a0, zero, a1
ffffffff80205db8: b6 85                	add	a1, zero, a3
ffffffff80205dba: 97 10 00 00          	auipc	ra, 1
ffffffff80205dbe: e7 80 40 97          	jalr	-1676(ra)
ffffffff80205dc2: aa ed                	sd	a0, 216(sp)
ffffffff80205dc4: ae e9                	sd	a1, 208(sp)
ffffffff80205dc6: 09 a0                	j	2
ffffffff80205dc8: 6e 65                	ld	a0, 216(sp)
ffffffff80205dca: 2a fa                	sd	a0, 304(sp)
ffffffff80205dcc: ce 65                	ld	a1, 208(sp)
ffffffff80205dce: 2e fe                	sd	a1, 312(sp)
ffffffff80205dd0: 09 a0                	j	2
ffffffff80205dd2: 08 1a                	addi	a0, sp, 304
ffffffff80205dd4: 97 10 00 00          	auipc	ra, 1
ffffffff80205dd8: e7 80 00 86          	jalr	-1952(ra)
ffffffff80205ddc: aa e2                	sd	a0, 320(sp)
ffffffff80205dde: ae e6                	sd	a1, 328(sp)
ffffffff80205de0: 09 a0                	j	2
ffffffff80205de2: 16 65                	ld	a0, 320(sp)
ffffffff80205de4: 81 45                	mv	a1, zero
ffffffff80205de6: 63 04 b5 00          	beq	a0, a1, 8
ffffffff80205dea: 09 a0                	j	2
ffffffff80205dec: 09 a8                	j	18
ffffffff80205dee: 12 65                	ld	a0, 256(sp)
ffffffff80205df0: 93 05 85 00          	addi	a1, a0, 8
ffffffff80205df4: ae e5                	sd	a1, 200(sp)
ffffffff80205df6: 63 e6 a5 24          	bltu	a1, a0, 588
ffffffff80205dfa: 81 a0                	j	64
ffffffff80205dfc: 00 00                	unimp	
ffffffff80205dfe: 36 65                	ld	a0, 328(sp)
ffffffff80205e00: aa f3                	sd	a0, 480(sp)
ffffffff80205e02: aa f7                	sd	a0, 488(sp)
ffffffff80205e04: aa fb                	sd	a0, 496(sp)
ffffffff80205e06: ce 75                	ld	a1, 240(sp)
ffffffff80205e08: 13 d6 35 00          	srli	a2, a1, 3
ffffffff80205e0c: 32 95                	add	a0, a0, a2
ffffffff80205e0e: aa e1                	sd	a0, 192(sp)
ffffffff80205e10: 63 6b c5 20          	bltu	a0, a2, 534
ffffffff80205e14: 09 a0                	j	2

ffffffff80205e16 .LBB0_58:
ffffffff80205e16: 17 76 00 00          	auipc	a2, 7
ffffffff80205e1a: 13 06 26 ac          	addi	a2, a2, -1342
ffffffff80205e1e: 28 02                	addi	a0, sp, 264
ffffffff80205e20: 8e 65                	ld	a1, 192(sp)
ffffffff80205e22: 97 10 00 00          	auipc	ra, 1
ffffffff80205e26: e7 80 80 d8          	jalr	-632(ra)
ffffffff80205e2a: 2a fd                	sd	a0, 184(sp)
ffffffff80205e2c: 09 a0                	j	2
ffffffff80205e2e: 13 05 f0 0f          	addi	a0, zero, 255
ffffffff80205e32: ea 75                	ld	a1, 184(sp)
ffffffff80205e34: 23 80 a5 00          	sb	a0, 0(a1)
ffffffff80205e38: 69 bf                	j	-102
ffffffff80205e3a: 12 65                	ld	a0, 256(sp)
ffffffff80205e3c: aa ea                	sd	a0, 336(sp)
ffffffff80205e3e: ae 65                	ld	a1, 200(sp)
ffffffff80205e40: ae ee                	sd	a1, 344(sp)
ffffffff80205e42: 97 10 00 00          	auipc	ra, 1
ffffffff80205e46: e7 80 c0 8e          	jalr	-1812(ra)
ffffffff80205e4a: 2a f9                	sd	a0, 176(sp)
ffffffff80205e4c: 2e f5                	sd	a1, 168(sp)
ffffffff80205e4e: 09 a0                	j	2
ffffffff80205e50: 4a 75                	ld	a0, 176(sp)
ffffffff80205e52: aa f2                	sd	a0, 352(sp)
ffffffff80205e54: aa 75                	ld	a1, 168(sp)
ffffffff80205e56: ae f6                	sd	a1, 360(sp)
ffffffff80205e58: 09 a0                	j	2
ffffffff80205e5a: 88 12                	addi	a0, sp, 352
ffffffff80205e5c: 97 00 00 00          	auipc	ra, 0
ffffffff80205e60: e7 80 80 7d          	jalr	2008(ra)
ffffffff80205e64: aa fa                	sd	a0, 368(sp)
ffffffff80205e66: ae fe                	sd	a1, 376(sp)
ffffffff80205e68: 09 a0                	j	2
ffffffff80205e6a: 56 75                	ld	a0, 368(sp)
ffffffff80205e6c: 81 45                	mv	a1, zero
ffffffff80205e6e: 63 04 b5 00          	beq	a0, a1, 8
ffffffff80205e72: 09 a0                	j	2
ffffffff80205e74: 29 a8                	j	26
ffffffff80205e76: 05 45                	addi	a0, zero, 1
ffffffff80205e78: 2a e3                	sd	a0, 384(sp)
ffffffff80205e7a: ce 75                	ld	a1, 240(sp)
ffffffff80205e7c: 2e e7                	sd	a1, 392(sp)
ffffffff80205e7e: 97 10 00 00          	auipc	ra, 1
ffffffff80205e82: e7 80 00 89          	jalr	-1904(ra)
ffffffff80205e86: 2a f1                	sd	a0, 160(sp)
ffffffff80205e88: 2e ed                	sd	a1, 152(sp)
ffffffff80205e8a: a1 a0                	j	72
ffffffff80205e8c: 00 00                	unimp	
ffffffff80205e8e: 76 75                	ld	a0, 376(sp)
ffffffff80205e90: aa ff                	sd	a0, 504(sp)
ffffffff80205e92: 23 30 a1 20          	sd	a0, 512(sp)
ffffffff80205e96: 23 34 a1 20          	sd	a0, 520(sp)
ffffffff80205e9a: 2c 02                	addi	a1, sp, 264
ffffffff80205e9c: 2a e9                	sd	a0, 144(sp)
ffffffff80205e9e: 2e 85                	add	a0, zero, a1
ffffffff80205ea0: 97 10 00 00          	auipc	ra, 1
ffffffff80205ea4: e7 80 80 cd          	jalr	-808(ra)
ffffffff80205ea8: 2a e5                	sd	a0, 136(sp)
ffffffff80205eaa: 2e e1                	sd	a1, 128(sp)
ffffffff80205eac: 09 a0                	j	2
ffffffff80205eae: 4e 75                	ld	a0, 240(sp)
ffffffff80205eb0: ca 65                	ld	a1, 144(sp)
ffffffff80205eb2: 33 06 b5 00          	add	a2, a0, a1
ffffffff80205eb6: b2 fc                	sd	a2, 120(sp)
ffffffff80205eb8: 63 63 a6 1a          	bltu	a2, a0, 422
ffffffff80205ebc: 09 a0                	j	2
ffffffff80205ebe: 85 46                	addi	a3, zero, 1
ffffffff80205ec0: 2a 65                	ld	a0, 136(sp)
ffffffff80205ec2: 8a 65                	ld	a1, 128(sp)
ffffffff80205ec4: 66 76                	ld	a2, 120(sp)
ffffffff80205ec6: 97 10 00 00          	auipc	ra, 1
ffffffff80205eca: e7 80 e0 6c          	jalr	1742(ra)
ffffffff80205ece: 09 a0                	j	2
ffffffff80205ed0: 69 b7                	j	-118
ffffffff80205ed2: 0a 75                	ld	a0, 160(sp)
ffffffff80205ed4: ea 65                	ld	a1, 152(sp)
ffffffff80205ed6: 97 00 00 00          	auipc	ra, 0
ffffffff80205eda: e7 80 c0 69          	jalr	1692(ra)
ffffffff80205ede: aa f8                	sd	a0, 112(sp)
ffffffff80205ee0: ae f4                	sd	a1, 104(sp)
ffffffff80205ee2: 09 a0                	j	2
ffffffff80205ee4: 46 75                	ld	a0, 112(sp)
ffffffff80205ee6: 2a eb                	sd	a0, 400(sp)
ffffffff80205ee8: a6 75                	ld	a1, 104(sp)
ffffffff80205eea: 2e ef                	sd	a1, 408(sp)
ffffffff80205eec: 09 a0                	j	2
ffffffff80205eee: 08 0b                	addi	a0, sp, 400
ffffffff80205ef0: 97 00 00 00          	auipc	ra, 0
ffffffff80205ef4: e7 80 c0 68          	jalr	1676(ra)
ffffffff80205ef8: 2a f3                	sd	a0, 416(sp)
ffffffff80205efa: 2e f7                	sd	a1, 424(sp)
ffffffff80205efc: 09 a0                	j	2
ffffffff80205efe: 1a 75                	ld	a0, 416(sp)
ffffffff80205f00: 81 45                	mv	a1, zero
ffffffff80205f02: 63 04 b5 00          	beq	a0, a1, 8
ffffffff80205f06: 09 a0                	j	2
ffffffff80205f08: 0d a0                	j	34
ffffffff80205f0a: 72 65                	ld	a0, 280(sp)
ffffffff80205f0c: aa e7                	sd	a0, 456(sp)
ffffffff80205f0e: d2 65                	ld	a1, 272(sp)
ffffffff80205f10: ae e3                	sd	a1, 448(sp)
ffffffff80205f12: 32 66                	ld	a2, 264(sp)
ffffffff80205f14: 32 ff                	sd	a2, 440(sp)
ffffffff80205f16: ee 76                	ld	a3, 248(sp)
ffffffff80205f18: 88 ea                	sd	a0, 16(a3)
ffffffff80205f1a: 8c e6                	sd	a1, 8(a3)
ffffffff80205f1c: 90 e2                	sd	a2, 0(a3)
ffffffff80205f1e: 83 30 81 22          	ld	ra, 552(sp)
ffffffff80205f22: 13 01 01 23          	addi	sp, sp, 560
ffffffff80205f26: 82 80                	ret
ffffffff80205f28: 00 00                	unimp	
ffffffff80205f2a: 3a 75                	ld	a0, 424(sp)
ffffffff80205f2c: 23 38 a1 20          	sd	a0, 528(sp)
ffffffff80205f30: 23 3c a1 20          	sd	a0, 536(sp)
ffffffff80205f34: 23 30 a1 22          	sd	a0, 544(sp)
ffffffff80205f38: 2c 02                	addi	a1, sp, 264
ffffffff80205f3a: aa f0                	sd	a0, 96(sp)
ffffffff80205f3c: 2e 85                	add	a0, zero, a1
ffffffff80205f3e: 97 10 00 00          	auipc	ra, 1
ffffffff80205f42: e7 80 80 c0          	jalr	-1016(ra)
ffffffff80205f46: aa ec                	sd	a0, 88(sp)
ffffffff80205f48: ae e8                	sd	a1, 80(sp)
ffffffff80205f4a: 0d a8                	j	50
ffffffff80205f4c: 05 45                	addi	a0, zero, 1
ffffffff80205f4e: a3 0b a1 1a          	sb	a0, 439(sp)
ffffffff80205f52: 29 a8                	j	26
ffffffff80205f54: 01 45                	mv	a0, zero
ffffffff80205f56: a3 0b a1 1a          	sb	a0, 439(sp)
ffffffff80205f5a: 09 a8                	j	18
ffffffff80205f5c: 28 02                	addi	a0, sp, 264
ffffffff80205f5e: 97 10 00 00          	auipc	ra, 1
ffffffff80205f62: e7 80 80 be          	jalr	-1048(ra)
ffffffff80205f66: aa e4                	sd	a0, 72(sp)
ffffffff80205f68: ae e0                	sd	a1, 64(sp)
ffffffff80205f6a: 25 a8                	j	56
ffffffff80205f6c: 28 02                	addi	a0, sp, 264
ffffffff80205f6e: 97 10 00 00          	auipc	ra, 1
ffffffff80205f72: e7 80 a0 c0          	jalr	-1014(ra)
ffffffff80205f76: 2a fc                	sd	a0, 56(sp)
ffffffff80205f78: 2e f8                	sd	a1, 48(sp)
ffffffff80205f7a: b1 a8                	j	92
ffffffff80205f7c: 06 75                	ld	a0, 96(sp)
ffffffff80205f7e: b3 05 a5 00          	add	a1, a0, a0
ffffffff80205f82: 2e f4                	sd	a1, 40(sp)
ffffffff80205f84: 63 eb a5 0e          	bltu	a1, a0, 246
ffffffff80205f88: 09 a0                	j	2
ffffffff80205f8a: 66 65                	ld	a0, 88(sp)
ffffffff80205f8c: c6 65                	ld	a1, 80(sp)
ffffffff80205f8e: 22 76                	ld	a2, 40(sp)
ffffffff80205f90: 97 10 00 00          	auipc	ra, 1
ffffffff80205f94: e7 80 00 5a          	jalr	1440(ra)
ffffffff80205f98: 2a f0                	sd	a0, 32(sp)
ffffffff80205f9a: 09 a0                	j	2
ffffffff80205f9c: 02 75                	ld	a0, 32(sp)
ffffffff80205f9e: 5d fd                	bnez	a0, -66
ffffffff80205fa0: 55 bf                	j	-76
ffffffff80205fa2: 06 75                	ld	a0, 96(sp)
ffffffff80205fa4: b3 05 a5 00          	add	a1, a0, a0
ffffffff80205fa8: 2e ec                	sd	a1, 24(sp)
ffffffff80205faa: 63 e7 a5 0e          	bltu	a1, a0, 238
ffffffff80205fae: 09 a0                	j	2
ffffffff80205fb0: 62 65                	ld	a0, 24(sp)
ffffffff80205fb2: 93 05 15 00          	addi	a1, a0, 1
ffffffff80205fb6: 2e e8                	sd	a1, 16(sp)
ffffffff80205fb8: 63 ef a5 0e          	bltu	a1, a0, 254
ffffffff80205fbc: 09 a0                	j	2
ffffffff80205fbe: 26 65                	ld	a0, 72(sp)
ffffffff80205fc0: 86 65                	ld	a1, 64(sp)
ffffffff80205fc2: 42 66                	ld	a2, 16(sp)
ffffffff80205fc4: 97 10 00 00          	auipc	ra, 1
ffffffff80205fc8: e7 80 c0 56          	jalr	1388(ra)
ffffffff80205fcc: 2a e4                	sd	a0, 8(sp)
ffffffff80205fce: 09 a0                	j	2
ffffffff80205fd0: 22 65                	ld	a0, 8(sp)
ffffffff80205fd2: 2d fd                	bnez	a0, -134
ffffffff80205fd4: 41 b7                	j	-128
ffffffff80205fd6: 83 46 71 1b          	lbu	a3, 439(sp)
ffffffff80205fda: 62 75                	ld	a0, 56(sp)
ffffffff80205fdc: c2 75                	ld	a1, 48(sp)
ffffffff80205fde: 06 76                	ld	a2, 96(sp)
ffffffff80205fe0: 97 10 00 00          	auipc	ra, 1
ffffffff80205fe4: e7 80 40 5b          	jalr	1460(ra)
ffffffff80205fe8: 09 a0                	j	2
ffffffff80205fea: 11 b7                	j	-252

ffffffff80205fec .LBB0_59:
ffffffff80205fec: 17 75 00 00          	auipc	a0, 7
ffffffff80205ff0: 13 05 45 87          	addi	a0, a0, -1932

ffffffff80205ff4 .LBB0_60:
ffffffff80205ff4: 17 76 00 00          	auipc	a2, 7
ffffffff80205ff8: 13 06 c6 84          	addi	a2, a2, -1972
ffffffff80205ffc: 93 05 10 02          	addi	a1, zero, 33
ffffffff80206000: 97 30 00 00          	auipc	ra, 3
ffffffff80206004: e7 80 80 86          	jalr	-1944(ra)
ffffffff80206008: 00 00                	unimp	

ffffffff8020600a .LBB0_61:
ffffffff8020600a: 17 75 00 00          	auipc	a0, 7
ffffffff8020600e: 13 05 65 89          	addi	a0, a0, -1898

ffffffff80206012 .LBB0_62:
ffffffff80206012: 17 76 00 00          	auipc	a2, 7
ffffffff80206016: 13 06 66 87          	addi	a2, a2, -1930
ffffffff8020601a: f1 45                	addi	a1, zero, 28
ffffffff8020601c: 97 30 00 00          	auipc	ra, 3
ffffffff80206020: e7 80 c0 84          	jalr	-1972(ra)
ffffffff80206024: 00 00                	unimp	

ffffffff80206026 .LBB0_63:
ffffffff80206026: 17 75 00 00          	auipc	a0, 7
ffffffff8020602a: 13 05 a5 87          	addi	a0, a0, -1926

ffffffff8020602e .LBB0_64:
ffffffff8020602e: 17 76 00 00          	auipc	a2, 7
ffffffff80206032: 13 06 26 89          	addi	a2, a2, -1902
ffffffff80206036: f1 45                	addi	a1, zero, 28
ffffffff80206038: 97 30 00 00          	auipc	ra, 3
ffffffff8020603c: e7 80 00 83          	jalr	-2000(ra)
ffffffff80206040: 00 00                	unimp	

ffffffff80206042 .LBB0_65:
ffffffff80206042: 17 75 00 00          	auipc	a0, 7
ffffffff80206046: 13 05 e5 85          	addi	a0, a0, -1954

ffffffff8020604a .LBB0_66:
ffffffff8020604a: 17 76 00 00          	auipc	a2, 7
ffffffff8020604e: 13 06 66 8a          	addi	a2, a2, -1882
ffffffff80206052: f1 45                	addi	a1, zero, 28
ffffffff80206054: 97 30 00 00          	auipc	ra, 3
ffffffff80206058: e7 80 40 81          	jalr	-2028(ra)
ffffffff8020605c: 00 00                	unimp	

ffffffff8020605e .LBB0_67:
ffffffff8020605e: 17 75 00 00          	auipc	a0, 7
ffffffff80206062: 13 05 25 84          	addi	a0, a0, -1982

ffffffff80206066 .LBB0_68:
ffffffff80206066: 17 76 00 00          	auipc	a2, 7
ffffffff8020606a: 13 06 26 8a          	addi	a2, a2, -1886
ffffffff8020606e: f1 45                	addi	a1, zero, 28
ffffffff80206070: 97 20 00 00          	auipc	ra, 2
ffffffff80206074: e7 80 80 7f          	jalr	2040(ra)
ffffffff80206078: 00 00                	unimp	

ffffffff8020607a .LBB0_69:
ffffffff8020607a: 17 65 00 00          	auipc	a0, 6
ffffffff8020607e: 13 05 65 7e          	addi	a0, a0, 2022

ffffffff80206082 .LBB0_70:
ffffffff80206082: 17 76 00 00          	auipc	a2, 7
ffffffff80206086: 13 06 e6 89          	addi	a2, a2, -1890
ffffffff8020608a: 93 05 10 02          	addi	a1, zero, 33
ffffffff8020608e: 97 20 00 00          	auipc	ra, 2
ffffffff80206092: e7 80 a0 7d          	jalr	2010(ra)
ffffffff80206096: 00 00                	unimp	

ffffffff80206098 .LBB0_71:
ffffffff80206098: 17 65 00 00          	auipc	a0, 6
ffffffff8020609c: 13 05 85 7c          	addi	a0, a0, 1992

ffffffff802060a0 .LBB0_72:
ffffffff802060a0: 17 76 00 00          	auipc	a2, 7
ffffffff802060a4: 13 06 86 89          	addi	a2, a2, -1896
ffffffff802060a8: 93 05 10 02          	addi	a1, zero, 33
ffffffff802060ac: 97 20 00 00          	auipc	ra, 2
ffffffff802060b0: e7 80 c0 7b          	jalr	1980(ra)
ffffffff802060b4: 00 00                	unimp	

ffffffff802060b6 .LBB0_73:
ffffffff802060b6: 17 65 00 00          	auipc	a0, 6
ffffffff802060ba: 13 05 a5 7e          	addi	a0, a0, 2026

ffffffff802060be .LBB0_74:
ffffffff802060be: 17 76 00 00          	auipc	a2, 7
ffffffff802060c2: 13 06 a6 87          	addi	a2, a2, -1926
ffffffff802060c6: f1 45                	addi	a1, zero, 28
ffffffff802060c8: 97 20 00 00          	auipc	ra, 2
ffffffff802060cc: e7 80 00 7a          	jalr	1952(ra)
ffffffff802060d0: 00 00                	unimp	

ffffffff802060d2 _ZN118_$LT$algorithm..allocator..segment_tree_allocator..SegmentTreeAllocator$u20$as$u20$algorithm..allocator..Allocator$GT$5alloc17h6ebea9d376956d7eE:
ffffffff802060d2: 51 71                	addi	sp, sp, -240
ffffffff802060d4: 86 f5                	sd	ra, 232(sp)
ffffffff802060d6: aa f1                	sd	a0, 224(sp)
ffffffff802060d8: aa e1                	sd	a0, 192(sp)
ffffffff802060da: 97 10 00 00          	auipc	ra, 1
ffffffff802060de: e7 80 c0 a6          	jalr	-1428(ra)
ffffffff802060e2: 2a fd                	sd	a0, 184(sp)
ffffffff802060e4: 2e f9                	sd	a1, 176(sp)
ffffffff802060e6: 09 a0                	j	2
ffffffff802060e8: 05 46                	addi	a2, zero, 1
ffffffff802060ea: 6a 75                	ld	a0, 184(sp)
ffffffff802060ec: ca 75                	ld	a1, 176(sp)
ffffffff802060ee: 97 10 00 00          	auipc	ra, 1
ffffffff802060f2: e7 80 20 44          	jalr	1090(ra)
ffffffff802060f6: 2a f5                	sd	a0, 168(sp)
ffffffff802060f8: 09 a0                	j	2
ffffffff802060fa: 2a 75                	ld	a0, 168(sp)
ffffffff802060fc: 09 e5                	bnez	a0, 10
ffffffff802060fe: 09 a0                	j	2
ffffffff80206100: 05 45                	addi	a0, zero, 1
ffffffff80206102: aa ed                	sd	a0, 216(sp)
ffffffff80206104: 21 a0                	j	8
ffffffff80206106: 01 45                	mv	a0, zero
ffffffff80206108: aa e5                	sd	a0, 200(sp)
ffffffff8020610a: 41 a2                	j	384
ffffffff8020610c: 6e 65                	ld	a0, 216(sp)
ffffffff8020610e: 8e 65                	ld	a1, 192(sp)
ffffffff80206110: 2a f1                	sd	a0, 160(sp)
ffffffff80206112: 2e 85                	add	a0, zero, a1
ffffffff80206114: 97 10 00 00          	auipc	ra, 1
ffffffff80206118: e7 80 20 9d          	jalr	-1582(ra)
ffffffff8020611c: 2a ed                	sd	a0, 152(sp)
ffffffff8020611e: 09 a0                	j	2
ffffffff80206120: 6a 65                	ld	a0, 152(sp)
ffffffff80206122: 93 55 15 00          	srli	a1, a0, 1
ffffffff80206126: 0a 76                	ld	a2, 160(sp)
ffffffff80206128: 63 6b b6 00          	bltu	a2, a1, 22
ffffffff8020612c: 09 a0                	j	2
ffffffff8020612e: 0e 65                	ld	a0, 192(sp)
ffffffff80206130: 97 10 00 00          	auipc	ra, 1
ffffffff80206134: e7 80 60 a1          	jalr	-1514(ra)
ffffffff80206138: 2a e9                	sd	a0, 144(sp)
ffffffff8020613a: 2e e5                	sd	a1, 136(sp)
ffffffff8020613c: e1 a8                	j	216
ffffffff8020613e: 0e 65                	ld	a0, 192(sp)
ffffffff80206140: 97 10 00 00          	auipc	ra, 1
ffffffff80206144: e7 80 60 a0          	jalr	-1530(ra)
ffffffff80206148: 2a e1                	sd	a0, 128(sp)
ffffffff8020614a: ae fc                	sd	a1, 120(sp)
ffffffff8020614c: 09 a0                	j	2
ffffffff8020614e: 6e 65                	ld	a0, 216(sp)
ffffffff80206150: b3 05 a5 00          	add	a1, a0, a0
ffffffff80206154: ae f8                	sd	a1, 112(sp)
ffffffff80206156: 63 ef a5 12          	bltu	a1, a0, 318
ffffffff8020615a: 09 a0                	j	2
ffffffff8020615c: 0a 65                	ld	a0, 128(sp)
ffffffff8020615e: e6 75                	ld	a1, 120(sp)
ffffffff80206160: 46 76                	ld	a2, 112(sp)
ffffffff80206162: 97 10 00 00          	auipc	ra, 1
ffffffff80206166: e7 80 e0 3c          	jalr	974(ra)
ffffffff8020616a: aa f4                	sd	a0, 104(sp)
ffffffff8020616c: 09 a0                	j	2
ffffffff8020616e: 01 45                	mv	a0, zero
ffffffff80206170: a6 75                	ld	a1, 104(sp)
ffffffff80206172: 63 8b a5 00          	beq	a1, a0, 22
ffffffff80206176: 09 a0                	j	2
ffffffff80206178: 0e 65                	ld	a0, 192(sp)
ffffffff8020617a: 97 10 00 00          	auipc	ra, 1
ffffffff8020617e: e7 80 c0 9c          	jalr	-1588(ra)
ffffffff80206182: aa f0                	sd	a0, 96(sp)
ffffffff80206184: ae ec                	sd	a1, 88(sp)
ffffffff80206186: 19 a8                	j	22
ffffffff80206188: 6e 65                	ld	a0, 216(sp)
ffffffff8020618a: b3 05 a5 00          	add	a1, a0, a0
ffffffff8020618e: ae e8                	sd	a1, 80(sp)
ffffffff80206190: 63 e1 a5 12          	bltu	a1, a0, 290
ffffffff80206194: 09 a0                	j	2
ffffffff80206196: 46 65                	ld	a0, 80(sp)
ffffffff80206198: aa ed                	sd	a0, 216(sp)
ffffffff8020619a: a5 a8                	j	120
ffffffff8020619c: 6e 65                	ld	a0, 216(sp)
ffffffff8020619e: b3 05 a5 00          	add	a1, a0, a0
ffffffff802061a2: ae e4                	sd	a1, 72(sp)
ffffffff802061a4: 63 e6 a5 12          	bltu	a1, a0, 300
ffffffff802061a8: 09 a0                	j	2
ffffffff802061aa: 26 65                	ld	a0, 72(sp)
ffffffff802061ac: 93 05 15 00          	addi	a1, a0, 1
ffffffff802061b0: ae e0                	sd	a1, 64(sp)
ffffffff802061b2: 63 ee a5 12          	bltu	a1, a0, 316
ffffffff802061b6: 09 a0                	j	2
ffffffff802061b8: 06 75                	ld	a0, 96(sp)
ffffffff802061ba: e6 65                	ld	a1, 88(sp)
ffffffff802061bc: 06 66                	ld	a2, 64(sp)
ffffffff802061be: 97 10 00 00          	auipc	ra, 1
ffffffff802061c2: e7 80 20 37          	jalr	882(ra)
ffffffff802061c6: 2a fc                	sd	a0, 56(sp)
ffffffff802061c8: 09 a0                	j	2
ffffffff802061ca: 01 45                	mv	a0, zero
ffffffff802061cc: e2 75                	ld	a1, 56(sp)
ffffffff802061ce: 63 81 a5 02          	beq	a1, a0, 34
ffffffff802061d2: 09 a0                	j	2

ffffffff802061d4 .LBB1_39:
ffffffff802061d4: 17 65 00 00          	auipc	a0, 6
ffffffff802061d8: 13 05 c5 7d          	addi	a0, a0, 2012

ffffffff802061dc .LBB1_40:
ffffffff802061dc: 17 66 00 00          	auipc	a2, 6
ffffffff802061e0: 13 06 c6 7e          	addi	a2, a2, 2028
ffffffff802061e4: dd 45                	addi	a1, zero, 23
ffffffff802061e6: 97 20 00 00          	auipc	ra, 2
ffffffff802061ea: e7 80 20 68          	jalr	1666(ra)
ffffffff802061ee: 00 00                	unimp	
ffffffff802061f0: 6e 65                	ld	a0, 216(sp)
ffffffff802061f2: b3 05 a5 00          	add	a1, a0, a0
ffffffff802061f6: 2e f8                	sd	a1, 48(sp)
ffffffff802061f8: 63 e9 a5 10          	bltu	a1, a0, 274
ffffffff802061fc: 09 a0                	j	2
ffffffff802061fe: 42 75                	ld	a0, 48(sp)
ffffffff80206200: 93 05 15 00          	addi	a1, a0, 1
ffffffff80206204: 2e f4                	sd	a1, 40(sp)
ffffffff80206206: 63 e1 a5 12          	bltu	a1, a0, 290
ffffffff8020620a: 09 a0                	j	2
ffffffff8020620c: 22 75                	ld	a0, 40(sp)
ffffffff8020620e: aa ed                	sd	a0, 216(sp)
ffffffff80206210: 09 a0                	j	2
ffffffff80206212: ed bd                	j	-262
ffffffff80206214: 6e 66                	ld	a2, 216(sp)
ffffffff80206216: 4a 65                	ld	a0, 144(sp)
ffffffff80206218: aa 65                	ld	a1, 136(sp)
ffffffff8020621a: 97 10 00 00          	auipc	ra, 1
ffffffff8020621e: e7 80 60 31          	jalr	790(ra)
ffffffff80206222: 2a f0                	sd	a0, 32(sp)
ffffffff80206224: 09 a0                	j	2
ffffffff80206226: 02 75                	ld	a0, 32(sp)
ffffffff80206228: 11 e9                	bnez	a0, 20
ffffffff8020622a: 09 a0                	j	2
ffffffff8020622c: ee 65                	ld	a1, 216(sp)
ffffffff8020622e: 05 46                	addi	a2, zero, 1
ffffffff80206230: 0e 65                	ld	a0, 192(sp)
ffffffff80206232: 97 00 00 00          	auipc	ra, 0
ffffffff80206236: e7 80 00 1e          	jalr	480(ra)
ffffffff8020623a: 39 a8                	j	30

ffffffff8020623c .LBB1_41:
ffffffff8020623c: 17 65 00 00          	auipc	a0, 6
ffffffff80206240: 13 05 45 7a          	addi	a0, a0, 1956

ffffffff80206244 .LBB1_42:
ffffffff80206244: 17 66 00 00          	auipc	a2, 6
ffffffff80206248: 13 06 c6 7a          	addi	a2, a2, 1964
ffffffff8020624c: bd 45                	addi	a1, zero, 15
ffffffff8020624e: 97 20 00 00          	auipc	ra, 2
ffffffff80206252: e7 80 a0 61          	jalr	1562(ra)
ffffffff80206256: 00 00                	unimp	
ffffffff80206258: 6e 65                	ld	a0, 216(sp)
ffffffff8020625a: 8e 65                	ld	a1, 192(sp)
ffffffff8020625c: 2a ec                	sd	a0, 24(sp)
ffffffff8020625e: 2e 85                	add	a0, zero, a1
ffffffff80206260: 97 10 00 00          	auipc	ra, 1
ffffffff80206264: e7 80 60 88          	jalr	-1914(ra)
ffffffff80206268: 2a e8                	sd	a0, 16(sp)
ffffffff8020626a: 09 a0                	j	2
ffffffff8020626c: 42 65                	ld	a0, 16(sp)
ffffffff8020626e: 93 55 15 00          	srli	a1, a0, 1
ffffffff80206272: 62 66                	ld	a2, 24(sp)
ffffffff80206274: b3 05 b6 40          	sub	a1, a2, a1
ffffffff80206278: 2e e4                	sd	a1, 8(sp)
ffffffff8020627a: 63 65 b6 0c          	bltu	a2, a1, 202
ffffffff8020627e: 09 a0                	j	2
ffffffff80206280: 22 65                	ld	a0, 8(sp)
ffffffff80206282: aa e9                	sd	a0, 208(sp)
ffffffff80206284: 85 45                	addi	a1, zero, 1
ffffffff80206286: ae e5                	sd	a1, 200(sp)
ffffffff80206288: 09 a0                	j	2
ffffffff8020628a: 2e 65                	ld	a0, 200(sp)
ffffffff8020628c: ce 65                	ld	a1, 208(sp)
ffffffff8020628e: ae 70                	ld	ra, 232(sp)
ffffffff80206290: 6d 61                	addi	sp, sp, 240
ffffffff80206292: 82 80                	ret

ffffffff80206294 .LBB1_43:
ffffffff80206294: 17 65 00 00          	auipc	a0, 6
ffffffff80206298: 13 05 c5 5c          	addi	a0, a0, 1484

ffffffff8020629c .LBB1_44:
ffffffff8020629c: 17 66 00 00          	auipc	a2, 6
ffffffff802062a0: 13 06 46 6b          	addi	a2, a2, 1716
ffffffff802062a4: 93 05 10 02          	addi	a1, zero, 33
ffffffff802062a8: 97 20 00 00          	auipc	ra, 2
ffffffff802062ac: e7 80 00 5c          	jalr	1472(ra)
ffffffff802062b0: 00 00                	unimp	

ffffffff802062b2 .LBB1_45:
ffffffff802062b2: 17 65 00 00          	auipc	a0, 6
ffffffff802062b6: 13 05 e5 5a          	addi	a0, a0, 1454

ffffffff802062ba .LBB1_46:
ffffffff802062ba: 17 66 00 00          	auipc	a2, 6
ffffffff802062be: 13 06 e6 6a          	addi	a2, a2, 1710
ffffffff802062c2: 93 05 10 02          	addi	a1, zero, 33
ffffffff802062c6: 97 20 00 00          	auipc	ra, 2
ffffffff802062ca: e7 80 20 5a          	jalr	1442(ra)
ffffffff802062ce: 00 00                	unimp	

ffffffff802062d0 .LBB1_47:
ffffffff802062d0: 17 65 00 00          	auipc	a0, 6
ffffffff802062d4: 13 05 05 59          	addi	a0, a0, 1424

ffffffff802062d8 .LBB1_48:
ffffffff802062d8: 17 66 00 00          	auipc	a2, 6
ffffffff802062dc: 13 06 86 6a          	addi	a2, a2, 1704
ffffffff802062e0: 93 05 10 02          	addi	a1, zero, 33
ffffffff802062e4: 97 20 00 00          	auipc	ra, 2
ffffffff802062e8: e7 80 40 58          	jalr	1412(ra)
ffffffff802062ec: 00 00                	unimp	

ffffffff802062ee .LBB1_49:
ffffffff802062ee: 17 65 00 00          	auipc	a0, 6
ffffffff802062f2: 13 05 25 5b          	addi	a0, a0, 1458

ffffffff802062f6 .LBB1_50:
ffffffff802062f6: 17 66 00 00          	auipc	a2, 6
ffffffff802062fa: 13 06 a6 68          	addi	a2, a2, 1674
ffffffff802062fe: f1 45                	addi	a1, zero, 28
ffffffff80206300: 97 20 00 00          	auipc	ra, 2
ffffffff80206304: e7 80 80 56          	jalr	1384(ra)
ffffffff80206308: 00 00                	unimp	

ffffffff8020630a .LBB1_51:
ffffffff8020630a: 17 65 00 00          	auipc	a0, 6
ffffffff8020630e: 13 05 65 55          	addi	a0, a0, 1366

ffffffff80206312 .LBB1_52:
ffffffff80206312: 17 66 00 00          	auipc	a2, 6
ffffffff80206316: 13 06 66 68          	addi	a2, a2, 1670
ffffffff8020631a: 93 05 10 02          	addi	a1, zero, 33
ffffffff8020631e: 97 20 00 00          	auipc	ra, 2
ffffffff80206322: e7 80 a0 54          	jalr	1354(ra)
ffffffff80206326: 00 00                	unimp	

ffffffff80206328 .LBB1_53:
ffffffff80206328: 17 65 00 00          	auipc	a0, 6
ffffffff8020632c: 13 05 85 57          	addi	a0, a0, 1400

ffffffff80206330 .LBB1_54:
ffffffff80206330: 17 66 00 00          	auipc	a2, 6
ffffffff80206334: 13 06 86 66          	addi	a2, a2, 1640
ffffffff80206338: f1 45                	addi	a1, zero, 28
ffffffff8020633a: 97 20 00 00          	auipc	ra, 2
ffffffff8020633e: e7 80 e0 52          	jalr	1326(ra)
ffffffff80206342: 00 00                	unimp	

ffffffff80206344 .LBB1_55:
ffffffff80206344: 17 65 00 00          	auipc	a0, 6
ffffffff80206348: 13 05 c5 6d          	addi	a0, a0, 1756

ffffffff8020634c .LBB1_56:
ffffffff8020634c: 17 66 00 00          	auipc	a2, 6
ffffffff80206350: 13 06 c6 6b          	addi	a2, a2, 1724
ffffffff80206354: 93 05 10 02          	addi	a1, zero, 33
ffffffff80206358: 97 20 00 00          	auipc	ra, 2
ffffffff8020635c: e7 80 00 51          	jalr	1296(ra)
ffffffff80206360: 00 00                	unimp	

ffffffff80206362 _ZN118_$LT$algorithm..allocator..segment_tree_allocator..SegmentTreeAllocator$u20$as$u20$algorithm..allocator..Allocator$GT$7dealloc17hc05f0971c3977154E:
ffffffff80206362: 1d 71                	addi	sp, sp, -96
ffffffff80206364: 86 ec                	sd	ra, 88(sp)
ffffffff80206366: aa e0                	sd	a0, 64(sp)
ffffffff80206368: ae e4                	sd	a1, 72(sp)
ffffffff8020636a: 2a fc                	sd	a0, 56(sp)
ffffffff8020636c: 2e f8                	sd	a1, 48(sp)
ffffffff8020636e: 97 00 00 00          	auipc	ra, 0
ffffffff80206372: e7 80 80 77          	jalr	1912(ra)
ffffffff80206376: 2a f4                	sd	a0, 40(sp)
ffffffff80206378: 09 a0                	j	2
ffffffff8020637a: 22 75                	ld	a0, 40(sp)
ffffffff8020637c: 93 55 15 00          	srli	a1, a0, 1
ffffffff80206380: 42 76                	ld	a2, 48(sp)
ffffffff80206382: b2 95                	add	a1, a1, a2
ffffffff80206384: 2e f0                	sd	a1, 32(sp)
ffffffff80206386: 63 e8 c5 06          	bltu	a1, a2, 112
ffffffff8020638a: 09 a0                	j	2
ffffffff8020638c: 02 75                	ld	a0, 32(sp)
ffffffff8020638e: aa e8                	sd	a0, 80(sp)
ffffffff80206390: 62 75                	ld	a0, 56(sp)
ffffffff80206392: 97 00 00 00          	auipc	ra, 0
ffffffff80206396: e7 80 40 7b          	jalr	1972(ra)
ffffffff8020639a: 2a ec                	sd	a0, 24(sp)
ffffffff8020639c: 2e e8                	sd	a1, 16(sp)
ffffffff8020639e: 09 a0                	j	2
ffffffff802063a0: 62 65                	ld	a0, 24(sp)
ffffffff802063a2: c2 65                	ld	a1, 16(sp)
ffffffff802063a4: 02 76                	ld	a2, 32(sp)
ffffffff802063a6: 97 10 00 00          	auipc	ra, 1
ffffffff802063aa: e7 80 a0 18          	jalr	394(ra)
ffffffff802063ae: 2a e4                	sd	a0, 8(sp)
ffffffff802063b0: 09 a0                	j	2
ffffffff802063b2: 01 45                	mv	a0, zero
ffffffff802063b4: a2 65                	ld	a1, 8(sp)
ffffffff802063b6: 63 8e a5 00          	beq	a1, a0, 28
ffffffff802063ba: 09 a0                	j	2
ffffffff802063bc: 01 45                	mv	a0, zero
ffffffff802063be: e2 75                	ld	a1, 56(sp)
ffffffff802063c0: 2a e0                	sd	a0, 0(sp)
ffffffff802063c2: 2e 85                	add	a0, zero, a1
ffffffff802063c4: 82 75                	ld	a1, 32(sp)
ffffffff802063c6: 02 66                	ld	a2, 0(sp)
ffffffff802063c8: 97 00 00 00          	auipc	ra, 0
ffffffff802063cc: e7 80 a0 04          	jalr	74(ra)
ffffffff802063d0: 05 a0                	j	32

ffffffff802063d2 .LBB2_9:
ffffffff802063d2: 17 65 00 00          	auipc	a0, 6
ffffffff802063d6: 13 05 e5 68          	addi	a0, a0, 1678

ffffffff802063da .LBB2_10:
ffffffff802063da: 17 66 00 00          	auipc	a2, 6
ffffffff802063de: 13 06 66 6b          	addi	a2, a2, 1718
ffffffff802063e2: 93 05 90 02          	addi	a1, zero, 41
ffffffff802063e6: 97 20 00 00          	auipc	ra, 2
ffffffff802063ea: e7 80 20 48          	jalr	1154(ra)
ffffffff802063ee: 00 00                	unimp	
ffffffff802063f0: e6 60                	ld	ra, 88(sp)
ffffffff802063f2: 25 61                	addi	sp, sp, 96
ffffffff802063f4: 82 80                	ret

ffffffff802063f6 .LBB2_11:
ffffffff802063f6: 17 65 00 00          	auipc	a0, 6
ffffffff802063fa: 13 05 a5 4a          	addi	a0, a0, 1194

ffffffff802063fe .LBB2_12:
ffffffff802063fe: 17 66 00 00          	auipc	a2, 6
ffffffff80206402: 13 06 a6 64          	addi	a2, a2, 1610
ffffffff80206406: f1 45                	addi	a1, zero, 28
ffffffff80206408: 97 20 00 00          	auipc	ra, 2
ffffffff8020640c: e7 80 00 46          	jalr	1120(ra)
ffffffff80206410: 00 00                	unimp	

ffffffff80206412 _ZN9algorithm9allocator22segment_tree_allocator20SegmentTreeAllocator11update_node17hb105d2d3e2057e36E:
ffffffff80206412: 35 71                	addi	sp, sp, -160
ffffffff80206414: 06 ed                	sd	ra, 152(sp)
ffffffff80206416: b2 86                	add	a3, zero, a2
ffffffff80206418: ae fc                	sd	a1, 120(sp)
ffffffff8020641a: 2a e5                	sd	a0, 136(sp)
ffffffff8020641c: a3 0b c1 08          	sb	a2, 151(sp)
ffffffff80206420: aa f8                	sd	a0, 112(sp)
ffffffff80206422: b6 f4                	sd	a3, 104(sp)
ffffffff80206424: 97 00 00 00          	auipc	ra, 0
ffffffff80206428: e7 80 40 75          	jalr	1876(ra)
ffffffff8020642c: aa f0                	sd	a0, 96(sp)
ffffffff8020642e: ae ec                	sd	a1, 88(sp)
ffffffff80206430: 09 a0                	j	2
ffffffff80206432: 66 76                	ld	a2, 120(sp)
ffffffff80206434: 06 75                	ld	a0, 96(sp)
ffffffff80206436: e6 65                	ld	a1, 88(sp)
ffffffff80206438: a6 76                	ld	a3, 104(sp)
ffffffff8020643a: 97 10 00 00          	auipc	ra, 1
ffffffff8020643e: e7 80 a0 15          	jalr	346(ra)
ffffffff80206442: 09 a0                	j	2
ffffffff80206444: 09 a0                	j	2
ffffffff80206446: 66 75                	ld	a0, 120(sp)
ffffffff80206448: 85 45                	addi	a1, zero, 1
ffffffff8020644a: 63 e6 a5 00          	bltu	a1, a0, 12
ffffffff8020644e: 09 a0                	j	2
ffffffff80206450: ea 60                	ld	ra, 152(sp)
ffffffff80206452: 0d 61                	addi	sp, sp, 160
ffffffff80206454: 82 80                	ret
ffffffff80206456: 66 75                	ld	a0, 120(sp)
ffffffff80206458: 05 81                	srli	a0, a0, 1
ffffffff8020645a: aa fc                	sd	a0, 120(sp)
ffffffff8020645c: 46 75                	ld	a0, 112(sp)
ffffffff8020645e: 97 00 00 00          	auipc	ra, 0
ffffffff80206462: e7 80 80 6e          	jalr	1768(ra)
ffffffff80206466: aa e8                	sd	a0, 80(sp)
ffffffff80206468: ae e4                	sd	a1, 72(sp)
ffffffff8020646a: 0d a8                	j	50
ffffffff8020646c: 05 45                	addi	a0, zero, 1
ffffffff8020646e: a3 03 a1 08          	sb	a0, 135(sp)
ffffffff80206472: 29 a8                	j	26
ffffffff80206474: 01 45                	mv	a0, zero
ffffffff80206476: a3 03 a1 08          	sb	a0, 135(sp)
ffffffff8020647a: 09 a8                	j	18
ffffffff8020647c: 46 75                	ld	a0, 112(sp)
ffffffff8020647e: 97 00 00 00          	auipc	ra, 0
ffffffff80206482: e7 80 80 6c          	jalr	1736(ra)
ffffffff80206486: aa e0                	sd	a0, 64(sp)
ffffffff80206488: 2e fc                	sd	a1, 56(sp)
ffffffff8020648a: 25 a8                	j	56
ffffffff8020648c: 46 75                	ld	a0, 112(sp)
ffffffff8020648e: 97 00 00 00          	auipc	ra, 0
ffffffff80206492: e7 80 a0 6e          	jalr	1770(ra)
ffffffff80206496: 2a f8                	sd	a0, 48(sp)
ffffffff80206498: 2e f4                	sd	a1, 40(sp)
ffffffff8020649a: b1 a8                	j	92
ffffffff8020649c: 66 75                	ld	a0, 120(sp)
ffffffff8020649e: b3 05 a5 00          	add	a1, a0, a0
ffffffff802064a2: 2e f0                	sd	a1, 32(sp)
ffffffff802064a4: 63 e4 a5 06          	bltu	a1, a0, 104
ffffffff802064a8: 09 a0                	j	2
ffffffff802064aa: 46 65                	ld	a0, 80(sp)
ffffffff802064ac: a6 65                	ld	a1, 72(sp)
ffffffff802064ae: 02 76                	ld	a2, 32(sp)
ffffffff802064b0: 97 10 00 00          	auipc	ra, 1
ffffffff802064b4: e7 80 00 08          	jalr	128(ra)
ffffffff802064b8: 2a ec                	sd	a0, 24(sp)
ffffffff802064ba: 09 a0                	j	2
ffffffff802064bc: 62 65                	ld	a0, 24(sp)
ffffffff802064be: 5d fd                	bnez	a0, -66
ffffffff802064c0: 55 bf                	j	-76
ffffffff802064c2: 66 75                	ld	a0, 120(sp)
ffffffff802064c4: b3 05 a5 00          	add	a1, a0, a0
ffffffff802064c8: 2e e8                	sd	a1, 16(sp)
ffffffff802064ca: 63 e0 a5 06          	bltu	a1, a0, 96
ffffffff802064ce: 09 a0                	j	2
ffffffff802064d0: 42 65                	ld	a0, 16(sp)
ffffffff802064d2: 93 05 15 00          	addi	a1, a0, 1
ffffffff802064d6: 2e e4                	sd	a1, 8(sp)
ffffffff802064d8: 63 e8 a5 06          	bltu	a1, a0, 112
ffffffff802064dc: 09 a0                	j	2
ffffffff802064de: 06 65                	ld	a0, 64(sp)
ffffffff802064e0: e2 75                	ld	a1, 56(sp)
ffffffff802064e2: 22 66                	ld	a2, 8(sp)
ffffffff802064e4: 97 10 00 00          	auipc	ra, 1
ffffffff802064e8: e7 80 c0 04          	jalr	76(ra)
ffffffff802064ec: 2a e0                	sd	a0, 0(sp)
ffffffff802064ee: 09 a0                	j	2
ffffffff802064f0: 02 65                	ld	a0, 0(sp)
ffffffff802064f2: 2d fd                	bnez	a0, -134
ffffffff802064f4: 41 b7                	j	-128
ffffffff802064f6: 66 76                	ld	a2, 120(sp)
ffffffff802064f8: 83 46 71 08          	lbu	a3, 135(sp)
ffffffff802064fc: 42 75                	ld	a0, 48(sp)
ffffffff802064fe: a2 75                	ld	a1, 40(sp)
ffffffff80206500: 97 10 00 00          	auipc	ra, 1
ffffffff80206504: e7 80 40 09          	jalr	148(ra)
ffffffff80206508: 09 a0                	j	2
ffffffff8020650a: 35 bf                	j	-196

ffffffff8020650c .LBB3_22:
ffffffff8020650c: 17 65 00 00          	auipc	a0, 6
ffffffff80206510: 13 05 45 35          	addi	a0, a0, 852

ffffffff80206514 .LBB3_23:
ffffffff80206514: 17 66 00 00          	auipc	a2, 6
ffffffff80206518: 13 06 46 59          	addi	a2, a2, 1428
ffffffff8020651c: 93 05 10 02          	addi	a1, zero, 33
ffffffff80206520: 97 20 00 00          	auipc	ra, 2
ffffffff80206524: e7 80 80 34          	jalr	840(ra)
ffffffff80206528: 00 00                	unimp	

ffffffff8020652a .LBB3_24:
ffffffff8020652a: 17 65 00 00          	auipc	a0, 6
ffffffff8020652e: 13 05 65 33          	addi	a0, a0, 822

ffffffff80206532 .LBB3_25:
ffffffff80206532: 17 66 00 00          	auipc	a2, 6
ffffffff80206536: 13 06 e6 58          	addi	a2, a2, 1422
ffffffff8020653a: 93 05 10 02          	addi	a1, zero, 33
ffffffff8020653e: 97 20 00 00          	auipc	ra, 2
ffffffff80206542: e7 80 a0 32          	jalr	810(ra)
ffffffff80206546: 00 00                	unimp	

ffffffff80206548 .LBB3_26:
ffffffff80206548: 17 65 00 00          	auipc	a0, 6
ffffffff8020654c: 13 05 85 35          	addi	a0, a0, 856

ffffffff80206550 .LBB3_27:
ffffffff80206550: 17 66 00 00          	auipc	a2, 6
ffffffff80206554: 13 06 06 57          	addi	a2, a2, 1392
ffffffff80206558: f1 45                	addi	a1, zero, 28
ffffffff8020655a: 97 20 00 00          	auipc	ra, 2
ffffffff8020655e: e7 80 e0 30          	jalr	782(ra)
ffffffff80206562: 00 00                	unimp	

ffffffff80206564 _ZN4core4iter8adapters12Rev$LT$T$GT$3new17h4974d0eb2643a32aE:
ffffffff80206564: 01 11                	addi	sp, sp, -32
ffffffff80206566: 2a e8                	sd	a0, 16(sp)
ffffffff80206568: 2e ec                	sd	a1, 24(sp)
ffffffff8020656a: 2a e0                	sd	a0, 0(sp)
ffffffff8020656c: 2e e4                	sd	a1, 8(sp)
ffffffff8020656e: 05 61                	addi	sp, sp, 32
ffffffff80206570: 82 80                	ret

ffffffff80206572 _ZN63_$LT$I$u20$as$u20$core..iter..traits..collect..IntoIterator$GT$9into_iter17hf0de604d366a4a32E:
ffffffff80206572: 41 11                	addi	sp, sp, -16
ffffffff80206574: 2a e0                	sd	a0, 0(sp)
ffffffff80206576: 2e e4                	sd	a1, 8(sp)
ffffffff80206578: 41 01                	addi	sp, sp, 16
ffffffff8020657a: 82 80                	ret

ffffffff8020657c _ZN93_$LT$core..iter..adapters..Rev$LT$I$GT$$u20$as$u20$core..iter..traits..iterator..Iterator$GT$4next17h715ad4e3a8b198fbE:
ffffffff8020657c: 01 11                	addi	sp, sp, -32
ffffffff8020657e: 06 ec                	sd	ra, 24(sp)
ffffffff80206580: 2a e8                	sd	a0, 16(sp)
ffffffff80206582: 97 00 00 00          	auipc	ra, 0
ffffffff80206586: e7 80 c0 11          	jalr	284(ra)
ffffffff8020658a: 2a e4                	sd	a0, 8(sp)
ffffffff8020658c: 2e e0                	sd	a1, 0(sp)
ffffffff8020658e: 09 a0                	j	2
ffffffff80206590: 22 65                	ld	a0, 8(sp)
ffffffff80206592: 82 65                	ld	a1, 0(sp)
ffffffff80206594: e2 60                	ld	ra, 24(sp)
ffffffff80206596: 05 61                	addi	sp, sp, 32
ffffffff80206598: 82 80                	ret

ffffffff8020659a _ZN4core5slice14from_raw_parts17hae41a9780242440cE:
ffffffff8020659a: 79 71                	addi	sp, sp, -48
ffffffff8020659c: 06 f4                	sd	ra, 40(sp)
ffffffff8020659e: 2a ec                	sd	a0, 24(sp)
ffffffff802065a0: 2e f0                	sd	a1, 32(sp)
ffffffff802065a2: 97 10 00 00          	auipc	ra, 1
ffffffff802065a6: e7 80 80 5b          	jalr	1464(ra)
ffffffff802065aa: 2a e8                	sd	a0, 16(sp)
ffffffff802065ac: 2e e4                	sd	a1, 8(sp)
ffffffff802065ae: 09 a0                	j	2
ffffffff802065b0: 42 65                	ld	a0, 16(sp)
ffffffff802065b2: a2 65                	ld	a1, 8(sp)
ffffffff802065b4: a2 70                	ld	ra, 40(sp)
ffffffff802065b6: 45 61                	addi	sp, sp, 48
ffffffff802065b8: 82 80                	ret

ffffffff802065ba _ZN4core5slice18from_raw_parts_mut17hf491ffa7baa16ebeE:
ffffffff802065ba: 79 71                	addi	sp, sp, -48
ffffffff802065bc: 06 f4                	sd	ra, 40(sp)
ffffffff802065be: 2a ec                	sd	a0, 24(sp)
ffffffff802065c0: 2e f0                	sd	a1, 32(sp)
ffffffff802065c2: 97 10 00 00          	auipc	ra, 1
ffffffff802065c6: e7 80 40 61          	jalr	1556(ra)
ffffffff802065ca: 2a e8                	sd	a0, 16(sp)
ffffffff802065cc: 2e e4                	sd	a1, 8(sp)
ffffffff802065ce: 09 a0                	j	2
ffffffff802065d0: 42 65                	ld	a0, 16(sp)
ffffffff802065d2: a2 65                	ld	a1, 8(sp)
ffffffff802065d4: a2 70                	ld	ra, 40(sp)
ffffffff802065d6: 45 61                	addi	sp, sp, 48
ffffffff802065d8: 82 80                	ret

ffffffff802065da _ZN4core5slice77_$LT$impl$u20$core..ops..index..IndexMut$LT$I$GT$$u20$for$u20$$u5b$T$u5d$$GT$9index_mut17h920c57a1aa616e66E:
ffffffff802065da: 39 71                	addi	sp, sp, -64
ffffffff802065dc: 06 fc                	sd	ra, 56(sp)
ffffffff802065de: 2a f0                	sd	a0, 32(sp)
ffffffff802065e0: 2e f4                	sd	a1, 40(sp)
ffffffff802065e2: 32 f8                	sd	a2, 48(sp)
ffffffff802065e4: 2a ec                	sd	a0, 24(sp)
ffffffff802065e6: 32 85                	add	a0, zero, a2
ffffffff802065e8: 62 66                	ld	a2, 24(sp)
ffffffff802065ea: 2e e8                	sd	a1, 16(sp)
ffffffff802065ec: b2 85                	add	a1, zero, a2
ffffffff802065ee: 42 66                	ld	a2, 16(sp)
ffffffff802065f0: 97 00 00 00          	auipc	ra, 0
ffffffff802065f4: e7 80 40 01          	jalr	20(ra)
ffffffff802065f8: 2a e4                	sd	a0, 8(sp)
ffffffff802065fa: 09 a0                	j	2
ffffffff802065fc: 22 65                	ld	a0, 8(sp)
ffffffff802065fe: e2 70                	ld	ra, 56(sp)
ffffffff80206600: 21 61                	addi	sp, sp, 64
ffffffff80206602: 82 80                	ret

ffffffff80206604 _ZN68_$LT$usize$u20$as$u20$core..slice..SliceIndex$LT$$u5b$T$u5d$$GT$$GT$9index_mut17h8be37556ed70500dE:
ffffffff80206604: 39 71                	addi	sp, sp, -64
ffffffff80206606: 2a f4                	sd	a0, 40(sp)
ffffffff80206608: 2e f8                	sd	a1, 48(sp)
ffffffff8020660a: 32 fc                	sd	a2, 56(sp)
ffffffff8020660c: 36 f0                	sd	a3, 32(sp)
ffffffff8020660e: 32 ec                	sd	a2, 24(sp)
ffffffff80206610: 2e e8                	sd	a1, 16(sp)
ffffffff80206612: 2a e4                	sd	a0, 8(sp)
ffffffff80206614: 63 78 c5 00          	bgeu	a0, a2, 16
ffffffff80206618: 09 a0                	j	2
ffffffff8020661a: 42 65                	ld	a0, 16(sp)
ffffffff8020661c: a2 65                	ld	a1, 8(sp)
ffffffff8020661e: 2e 95                	add	a0, a0, a1
ffffffff80206620: 21 61                	addi	sp, sp, 64
ffffffff80206622: 82 80                	ret
ffffffff80206624: 22 65                	ld	a0, 8(sp)
ffffffff80206626: e2 65                	ld	a1, 24(sp)
ffffffff80206628: 02 76                	ld	a2, 32(sp)
ffffffff8020662a: 97 20 00 00          	auipc	ra, 2
ffffffff8020662e: e7 80 a0 26          	jalr	618(ra)
ffffffff80206632: 00 00                	unimp	

ffffffff80206634 _ZN4core4iter5range101_$LT$impl$u20$core..iter..traits..iterator..Iterator$u20$for$u20$core..ops..range..Range$LT$A$GT$$GT$4next17he2791c945687d89dE:
ffffffff80206634: 5d 71                	addi	sp, sp, -80
ffffffff80206636: 86 e4                	sd	ra, 72(sp)
ffffffff80206638: 2a fc                	sd	a0, 56(sp)
ffffffff8020663a: 93 05 85 00          	addi	a1, a0, 8
ffffffff8020663e: 2a f0                	sd	a0, 32(sp)
ffffffff80206640: 97 00 00 00          	auipc	ra, 0
ffffffff80206644: e7 80 80 0f          	jalr	248(ra)
ffffffff80206648: 2a ec                	sd	a0, 24(sp)
ffffffff8020664a: 09 a0                	j	2
ffffffff8020664c: 62 65                	ld	a0, 24(sp)
ffffffff8020664e: 09 e5                	bnez	a0, 10
ffffffff80206650: 09 a0                	j	2
ffffffff80206652: 01 45                	mv	a0, zero
ffffffff80206654: 2a f4                	sd	a0, 40(sp)
ffffffff80206656: 3d a8                	j	62
ffffffff80206658: 02 75                	ld	a0, 32(sp)
ffffffff8020665a: 97 10 00 00          	auipc	ra, 1
ffffffff8020665e: e7 80 80 e2          	jalr	-472(ra)
ffffffff80206662: 2a e8                	sd	a0, 16(sp)
ffffffff80206664: 09 a0                	j	2
ffffffff80206666: 85 45                	addi	a1, zero, 1
ffffffff80206668: 42 65                	ld	a0, 16(sp)
ffffffff8020666a: 97 10 00 00          	auipc	ra, 1
ffffffff8020666e: e7 80 80 32          	jalr	808(ra)
ffffffff80206672: aa 85                	add	a1, zero, a0
ffffffff80206674: aa e0                	sd	a0, 64(sp)
ffffffff80206676: 2e e4                	sd	a1, 8(sp)
ffffffff80206678: 09 a0                	j	2
ffffffff8020667a: 02 75                	ld	a0, 32(sp)
ffffffff8020667c: a2 65                	ld	a1, 8(sp)
ffffffff8020667e: 97 00 00 00          	auipc	ra, 0
ffffffff80206682: e7 80 40 3f          	jalr	1012(ra)
ffffffff80206686: 2a e0                	sd	a0, 0(sp)
ffffffff80206688: 09 a0                	j	2
ffffffff8020668a: 02 65                	ld	a0, 0(sp)
ffffffff8020668c: 2a f8                	sd	a0, 48(sp)
ffffffff8020668e: 85 45                	addi	a1, zero, 1
ffffffff80206690: 2e f4                	sd	a1, 40(sp)
ffffffff80206692: 09 a0                	j	2
ffffffff80206694: 22 75                	ld	a0, 40(sp)
ffffffff80206696: c2 75                	ld	a1, 48(sp)
ffffffff80206698: a6 60                	ld	ra, 72(sp)
ffffffff8020669a: 61 61                	addi	sp, sp, 80
ffffffff8020669c: 82 80                	ret

ffffffff8020669e _ZN4core4iter5range116_$LT$impl$u20$core..iter..traits..double_ended..DoubleEndedIterator$u20$for$u20$core..ops..range..Range$LT$A$GT$$GT$9next_back17h6cf7737a67acb0cbE:
ffffffff8020669e: 5d 71                	addi	sp, sp, -80
ffffffff802066a0: 86 e4                	sd	ra, 72(sp)
ffffffff802066a2: aa e0                	sd	a0, 64(sp)
ffffffff802066a4: 93 05 85 00          	addi	a1, a0, 8
ffffffff802066a8: 2a f0                	sd	a0, 32(sp)
ffffffff802066aa: 97 00 00 00          	auipc	ra, 0
ffffffff802066ae: e7 80 e0 08          	jalr	142(ra)
ffffffff802066b2: 2a ec                	sd	a0, 24(sp)
ffffffff802066b4: 09 a0                	j	2
ffffffff802066b6: 62 65                	ld	a0, 24(sp)
ffffffff802066b8: 09 e5                	bnez	a0, 10
ffffffff802066ba: 09 a0                	j	2
ffffffff802066bc: 01 45                	mv	a0, zero
ffffffff802066be: 2a f4                	sd	a0, 40(sp)
ffffffff802066c0: 3d a0                	j	46
ffffffff802066c2: 02 75                	ld	a0, 32(sp)
ffffffff802066c4: 21 05                	addi	a0, a0, 8
ffffffff802066c6: 97 10 00 00          	auipc	ra, 1
ffffffff802066ca: e7 80 c0 db          	jalr	-580(ra)
ffffffff802066ce: 2a e8                	sd	a0, 16(sp)
ffffffff802066d0: 09 a0                	j	2
ffffffff802066d2: 85 45                	addi	a1, zero, 1
ffffffff802066d4: 42 65                	ld	a0, 16(sp)
ffffffff802066d6: 97 10 00 00          	auipc	ra, 1
ffffffff802066da: e7 80 80 2d          	jalr	728(ra)
ffffffff802066de: 2a e4                	sd	a0, 8(sp)
ffffffff802066e0: 09 a0                	j	2
ffffffff802066e2: 19 a8                	j	22
ffffffff802066e4: 62 75                	ld	a0, 56(sp)
ffffffff802066e6: 2a f8                	sd	a0, 48(sp)
ffffffff802066e8: 05 45                	addi	a0, zero, 1
ffffffff802066ea: 2a f4                	sd	a0, 40(sp)
ffffffff802066ec: 09 a0                	j	2
ffffffff802066ee: 22 75                	ld	a0, 40(sp)
ffffffff802066f0: c2 75                	ld	a1, 48(sp)
ffffffff802066f2: a6 60                	ld	ra, 72(sp)
ffffffff802066f4: 61 61                	addi	sp, sp, 80
ffffffff802066f6: 82 80                	ret
ffffffff802066f8: 02 75                	ld	a0, 32(sp)
ffffffff802066fa: 21 05                	addi	a0, a0, 8
ffffffff802066fc: a2 65                	ld	a1, 8(sp)
ffffffff802066fe: 02 76                	ld	a2, 32(sp)
ffffffff80206700: 0c e6                	sd	a1, 8(a2)
ffffffff80206702: 97 10 00 00          	auipc	ra, 1
ffffffff80206706: e7 80 00 d8          	jalr	-640(ra)
ffffffff8020670a: 2a fc                	sd	a0, 56(sp)
ffffffff8020670c: e1 bf                	j	-40

ffffffff8020670e _ZN4core4iter6traits8iterator8Iterator3rev17h3580a60961b1cb51E:
ffffffff8020670e: 79 71                	addi	sp, sp, -48
ffffffff80206710: 06 f4                	sd	ra, 40(sp)
ffffffff80206712: 2a ec                	sd	a0, 24(sp)
ffffffff80206714: 2e f0                	sd	a1, 32(sp)
ffffffff80206716: 97 00 00 00          	auipc	ra, 0
ffffffff8020671a: e7 80 e0 e4          	jalr	-434(ra)
ffffffff8020671e: 2a e8                	sd	a0, 16(sp)
ffffffff80206720: 2e e4                	sd	a1, 8(sp)
ffffffff80206722: 09 a0                	j	2
ffffffff80206724: 42 65                	ld	a0, 16(sp)
ffffffff80206726: a2 65                	ld	a1, 8(sp)
ffffffff80206728: a2 70                	ld	ra, 40(sp)
ffffffff8020672a: 45 61                	addi	sp, sp, 48
ffffffff8020672c: 82 80                	ret

ffffffff8020672e _ZN63_$LT$I$u20$as$u20$core..iter..traits..collect..IntoIterator$GT$9into_iter17h1c99a7a3742bf8c6E:
ffffffff8020672e: 41 11                	addi	sp, sp, -16
ffffffff80206730: 2a e0                	sd	a0, 0(sp)
ffffffff80206732: 2e e4                	sd	a1, 8(sp)
ffffffff80206734: 41 01                	addi	sp, sp, 16
ffffffff80206736: 82 80                	ret

ffffffff80206738 _ZN4core3cmp5impls57_$LT$impl$u20$core..cmp..PartialOrd$u20$for$u20$usize$GT$2lt17h68e9b8c192f3d17bE:
ffffffff80206738: 41 11                	addi	sp, sp, -16
ffffffff8020673a: 2a e0                	sd	a0, 0(sp)
ffffffff8020673c: 2e e4                	sd	a1, 8(sp)
ffffffff8020673e: 08 61                	ld	a0, 0(a0)
ffffffff80206740: 8c 61                	ld	a1, 0(a1)
ffffffff80206742: 33 35 b5 00          	sltu	a0, a0, a1
ffffffff80206746: 41 01                	addi	sp, sp, 16
ffffffff80206748: 82 80                	ret

ffffffff8020674a _ZN4core3num12NonZeroUsize13new_unchecked17h35df759bb967d9aeE:
ffffffff8020674a: 41 11                	addi	sp, sp, -16
ffffffff8020674c: 2a e4                	sd	a0, 8(sp)
ffffffff8020674e: 2a e0                	sd	a0, 0(sp)
ffffffff80206750: 41 01                	addi	sp, sp, 16
ffffffff80206752: 82 80                	ret

ffffffff80206754 _ZN4core3num12NonZeroUsize3get17hcff52e3ab665df85E:
ffffffff80206754: 41 11                	addi	sp, sp, -16
ffffffff80206756: 2a e4                	sd	a0, 8(sp)
ffffffff80206758: 41 01                	addi	sp, sp, 16
ffffffff8020675a: 82 80                	ret

ffffffff8020675c _ZN4core3num23_$LT$impl$u20$usize$GT$10count_ones17h4acda058f6cdb381E:
ffffffff8020675c: 01 11                	addi	sp, sp, -32
ffffffff8020675e: 2a e8                	sd	a0, 16(sp)
ffffffff80206760: 93 55 15 00          	srli	a1, a0, 1
ffffffff80206764: 37 56 55 05          	lui	a2, 21845
ffffffff80206768: 1b 06 56 55          	addiw	a2, a2, 1365
ffffffff8020676c: 32 06                	slli	a2, a2, 12
ffffffff8020676e: 13 06 56 55          	addi	a2, a2, 1365
ffffffff80206772: 32 06                	slli	a2, a2, 12
ffffffff80206774: 13 06 56 55          	addi	a2, a2, 1365
ffffffff80206778: 32 06                	slli	a2, a2, 12
ffffffff8020677a: 13 06 56 55          	addi	a2, a2, 1365
ffffffff8020677e: f1 8d                	and	a1, a1, a2
ffffffff80206780: 0d 8d                	sub	a0, a0, a1
ffffffff80206782: b7 35 33 03          	lui	a1, 13107
ffffffff80206786: 9b 85 35 33          	addiw	a1, a1, 819
ffffffff8020678a: b2 05                	slli	a1, a1, 12
ffffffff8020678c: 93 85 35 33          	addi	a1, a1, 819
ffffffff80206790: b2 05                	slli	a1, a1, 12
ffffffff80206792: 93 85 35 33          	addi	a1, a1, 819
ffffffff80206796: b2 05                	slli	a1, a1, 12
ffffffff80206798: 93 85 35 33          	addi	a1, a1, 819
ffffffff8020679c: 33 76 b5 00          	and	a2, a0, a1
ffffffff802067a0: 09 81                	srli	a0, a0, 2
ffffffff802067a2: 6d 8d                	and	a0, a0, a1
ffffffff802067a4: 32 95                	add	a0, a0, a2
ffffffff802067a6: 93 55 45 00          	srli	a1, a0, 4
ffffffff802067aa: 2e 95                	add	a0, a0, a1
ffffffff802067ac: b7 f5 f0 00          	lui	a1, 3855
ffffffff802067b0: 9b 85 15 0f          	addiw	a1, a1, 241
ffffffff802067b4: b2 05                	slli	a1, a1, 12
ffffffff802067b6: 93 85 f5 f0          	addi	a1, a1, -241
ffffffff802067ba: b2 05                	slli	a1, a1, 12
ffffffff802067bc: 93 85 15 0f          	addi	a1, a1, 241
ffffffff802067c0: b2 05                	slli	a1, a1, 12
ffffffff802067c2: 93 85 f5 f0          	addi	a1, a1, -241
ffffffff802067c6: 6d 8d                	and	a0, a0, a1
ffffffff802067c8: b7 05 01 01          	lui	a1, 4112
ffffffff802067cc: 9b 85 15 10          	addiw	a1, a1, 257
ffffffff802067d0: c2 05                	slli	a1, a1, 16
ffffffff802067d2: 93 85 15 10          	addi	a1, a1, 257
ffffffff802067d6: c2 05                	slli	a1, a1, 16
ffffffff802067d8: 93 85 15 10          	addi	a1, a1, 257
ffffffff802067dc: 33 05 b5 02          	<unknown>
ffffffff802067e0: 61 91                	srli	a0, a0, 56
ffffffff802067e2: 2a ec                	sd	a0, 24(sp)
ffffffff802067e4: 2a e4                	sd	a0, 8(sp)
ffffffff802067e6: 09 a0                	j	2
ffffffff802067e8: 22 65                	ld	a0, 8(sp)
ffffffff802067ea: 05 61                	addi	sp, sp, 32
ffffffff802067ec: 82 80                	ret

ffffffff802067ee _ZN4core3num23_$LT$impl$u20$usize$GT$11checked_mul17h5dedc6b307d11e54E:
ffffffff802067ee: 5d 71                	addi	sp, sp, -80
ffffffff802067f0: 86 e4                	sd	ra, 72(sp)
ffffffff802067f2: 2a f4                	sd	a0, 40(sp)
ffffffff802067f4: 2e f8                	sd	a1, 48(sp)
ffffffff802067f6: 97 00 00 00          	auipc	ra, 0
ffffffff802067fa: e7 80 00 0e          	jalr	224(ra)
ffffffff802067fe: 2a e8                	sd	a0, 16(sp)
ffffffff80206800: 2e e4                	sd	a1, 8(sp)
ffffffff80206802: 09 a0                	j	2
ffffffff80206804: 42 65                	ld	a0, 16(sp)
ffffffff80206806: 2a fc                	sd	a0, 56(sp)
ffffffff80206808: a2 65                	ld	a1, 8(sp)
ffffffff8020680a: 13 f6 15 00          	andi	a2, a1, 1
ffffffff8020680e: a3 03 c1 04          	sb	a2, 71(sp)
ffffffff80206812: 19 e6                	bnez	a2, 14
ffffffff80206814: 09 a0                	j	2
ffffffff80206816: 42 65                	ld	a0, 16(sp)
ffffffff80206818: 2a f0                	sd	a0, 32(sp)
ffffffff8020681a: 85 45                	addi	a1, zero, 1
ffffffff8020681c: 2e ec                	sd	a1, 24(sp)
ffffffff8020681e: 21 a0                	j	8
ffffffff80206820: 01 45                	mv	a0, zero
ffffffff80206822: 2a ec                	sd	a0, 24(sp)
ffffffff80206824: 09 a0                	j	2
ffffffff80206826: 62 65                	ld	a0, 24(sp)
ffffffff80206828: 82 75                	ld	a1, 32(sp)
ffffffff8020682a: a6 60                	ld	ra, 72(sp)
ffffffff8020682c: 61 61                	addi	sp, sp, 80
ffffffff8020682e: 82 80                	ret

ffffffff80206830 _ZN4core3num23_$LT$impl$u20$usize$GT$11checked_sub17hc29ebfc4d364e59eE:
ffffffff80206830: 5d 71                	addi	sp, sp, -80
ffffffff80206832: 86 e4                	sd	ra, 72(sp)
ffffffff80206834: 2a f4                	sd	a0, 40(sp)
ffffffff80206836: 2e f8                	sd	a1, 48(sp)
ffffffff80206838: 97 00 00 00          	auipc	ra, 0
ffffffff8020683c: e7 80 00 0d          	jalr	208(ra)
ffffffff80206840: 2a e8                	sd	a0, 16(sp)
ffffffff80206842: 2e e4                	sd	a1, 8(sp)
ffffffff80206844: 09 a0                	j	2
ffffffff80206846: 42 65                	ld	a0, 16(sp)
ffffffff80206848: 2a fc                	sd	a0, 56(sp)
ffffffff8020684a: a2 65                	ld	a1, 8(sp)
ffffffff8020684c: 13 f6 15 00          	andi	a2, a1, 1
ffffffff80206850: a3 03 c1 04          	sb	a2, 71(sp)
ffffffff80206854: 19 e6                	bnez	a2, 14
ffffffff80206856: 09 a0                	j	2
ffffffff80206858: 42 65                	ld	a0, 16(sp)
ffffffff8020685a: 2a f0                	sd	a0, 32(sp)
ffffffff8020685c: 85 45                	addi	a1, zero, 1
ffffffff8020685e: 2e ec                	sd	a1, 24(sp)
ffffffff80206860: 21 a0                	j	8
ffffffff80206862: 01 45                	mv	a0, zero
ffffffff80206864: 2a ec                	sd	a0, 24(sp)
ffffffff80206866: 09 a0                	j	2
ffffffff80206868: 62 65                	ld	a0, 24(sp)
ffffffff8020686a: 82 75                	ld	a1, 32(sp)
ffffffff8020686c: a6 60                	ld	ra, 72(sp)
ffffffff8020686e: 61 61                	addi	sp, sp, 80
ffffffff80206870: 82 80                	ret

ffffffff80206872 _ZN4core3num23_$LT$impl$u20$usize$GT$12wrapping_add17h50bfdac1cf8ef28eE:
ffffffff80206872: 01 11                	addi	sp, sp, -32
ffffffff80206874: 2a e4                	sd	a0, 8(sp)
ffffffff80206876: 2e e8                	sd	a1, 16(sp)
ffffffff80206878: 2e 95                	add	a0, a0, a1
ffffffff8020687a: 2a ec                	sd	a0, 24(sp)
ffffffff8020687c: 2a e0                	sd	a0, 0(sp)
ffffffff8020687e: 09 a0                	j	2
ffffffff80206880: 02 65                	ld	a0, 0(sp)
ffffffff80206882: 05 61                	addi	sp, sp, 32
ffffffff80206884: 82 80                	ret

ffffffff80206886 _ZN4core3num23_$LT$impl$u20$usize$GT$12wrapping_sub17h7f5f80efb3e688d8E:
ffffffff80206886: 01 11                	addi	sp, sp, -32
ffffffff80206888: 2a e4                	sd	a0, 8(sp)
ffffffff8020688a: 2e e8                	sd	a1, 16(sp)
ffffffff8020688c: 0d 8d                	sub	a0, a0, a1
ffffffff8020688e: 2a ec                	sd	a0, 24(sp)
ffffffff80206890: 2a e0                	sd	a0, 0(sp)
ffffffff80206892: 09 a0                	j	2
ffffffff80206894: 02 65                	ld	a0, 0(sp)
ffffffff80206896: 05 61                	addi	sp, sp, 32
ffffffff80206898: 82 80                	ret

ffffffff8020689a _ZN4core3num23_$LT$impl$u20$usize$GT$13unchecked_add17ha59f725585d8cc20E:
ffffffff8020689a: 01 11                	addi	sp, sp, -32
ffffffff8020689c: 2a e4                	sd	a0, 8(sp)
ffffffff8020689e: 2e e8                	sd	a1, 16(sp)
ffffffff802068a0: 2e 95                	add	a0, a0, a1
ffffffff802068a2: 2a ec                	sd	a0, 24(sp)
ffffffff802068a4: 2a e0                	sd	a0, 0(sp)
ffffffff802068a6: 09 a0                	j	2
ffffffff802068a8: 02 65                	ld	a0, 0(sp)
ffffffff802068aa: 05 61                	addi	sp, sp, 32
ffffffff802068ac: 82 80                	ret

ffffffff802068ae _ZN4core3num23_$LT$impl$u20$usize$GT$15is_power_of_two17h69461f3102e34bfeE:
ffffffff802068ae: 01 11                	addi	sp, sp, -32
ffffffff802068b0: 06 ec                	sd	ra, 24(sp)
ffffffff802068b2: 2a e8                	sd	a0, 16(sp)
ffffffff802068b4: 97 00 00 00          	auipc	ra, 0
ffffffff802068b8: e7 80 80 ea          	jalr	-344(ra)
ffffffff802068bc: 2a e4                	sd	a0, 8(sp)
ffffffff802068be: 09 a0                	j	2
ffffffff802068c0: 22 65                	ld	a0, 8(sp)
ffffffff802068c2: 93 15 05 02          	slli	a1, a0, 32
ffffffff802068c6: 81 91                	srli	a1, a1, 32
ffffffff802068c8: 93 c5 15 00          	xori	a1, a1, 1
ffffffff802068cc: 13 b5 15 00          	seqz	a0, a1
ffffffff802068d0: e2 60                	ld	ra, 24(sp)
ffffffff802068d2: 05 61                	addi	sp, sp, 32
ffffffff802068d4: 82 80                	ret

ffffffff802068d6 _ZN4core3num23_$LT$impl$u20$usize$GT$15overflowing_mul17h1b3b5d89939a0bdeE:
ffffffff802068d6: 5d 71                	addi	sp, sp, -80
ffffffff802068d8: 2a f0                	sd	a0, 32(sp)
ffffffff802068da: 2e f4                	sd	a1, 40(sp)
ffffffff802068dc: 33 36 b5 02          	<unknown>
ffffffff802068e0: 33 36 c0 00          	snez	a2, a2
ffffffff802068e4: 33 05 b5 02          	<unknown>
ffffffff802068e8: 2a f8                	sd	a0, 48(sp)
ffffffff802068ea: 23 0c c1 02          	sb	a2, 56(sp)
ffffffff802068ee: 32 e4                	sd	a2, 8(sp)
ffffffff802068f0: 2a e0                	sd	a0, 0(sp)
ffffffff802068f2: 09 a0                	j	2
ffffffff802068f4: 02 65                	ld	a0, 0(sp)
ffffffff802068f6: aa e0                	sd	a0, 64(sp)
ffffffff802068f8: a2 65                	ld	a1, 8(sp)
ffffffff802068fa: a3 07 b1 04          	sb	a1, 79(sp)
ffffffff802068fe: 2a e8                	sd	a0, 16(sp)
ffffffff80206900: 23 0c b1 00          	sb	a1, 24(sp)
ffffffff80206904: 61 61                	addi	sp, sp, 80
ffffffff80206906: 82 80                	ret

ffffffff80206908 _ZN4core3num23_$LT$impl$u20$usize$GT$15overflowing_sub17hf00447aeba82e9f4E:
ffffffff80206908: 5d 71                	addi	sp, sp, -80
ffffffff8020690a: 2a f0                	sd	a0, 32(sp)
ffffffff8020690c: 2e f4                	sd	a1, 40(sp)
ffffffff8020690e: b3 05 b5 40          	sub	a1, a0, a1
ffffffff80206912: 33 35 b5 00          	sltu	a0, a0, a1
ffffffff80206916: 2e f8                	sd	a1, 48(sp)
ffffffff80206918: 23 0c a1 02          	sb	a0, 56(sp)
ffffffff8020691c: 2e e4                	sd	a1, 8(sp)
ffffffff8020691e: 2a e0                	sd	a0, 0(sp)
ffffffff80206920: 09 a0                	j	2
ffffffff80206922: 22 65                	ld	a0, 8(sp)
ffffffff80206924: aa e0                	sd	a0, 64(sp)
ffffffff80206926: 82 65                	ld	a1, 0(sp)
ffffffff80206928: a3 07 b1 04          	sb	a1, 79(sp)
ffffffff8020692c: 2a e8                	sd	a0, 16(sp)
ffffffff8020692e: 23 0c b1 00          	sb	a1, 24(sp)
ffffffff80206932: 61 61                	addi	sp, sp, 80
ffffffff80206934: 82 80                	ret

ffffffff80206936 _ZN4core3num23_$LT$impl$u20$usize$GT$17next_power_of_two17hef6c2161f92279bdE:
ffffffff80206936: 01 11                	addi	sp, sp, -32
ffffffff80206938: 06 ec                	sd	ra, 24(sp)
ffffffff8020693a: 2a e8                	sd	a0, 16(sp)
ffffffff8020693c: 97 00 00 00          	auipc	ra, 0
ffffffff80206940: e7 80 e0 03          	jalr	62(ra)
ffffffff80206944: 2a e4                	sd	a0, 8(sp)
ffffffff80206946: 09 a0                	j	2
ffffffff80206948: 22 65                	ld	a0, 8(sp)
ffffffff8020694a: 93 05 15 00          	addi	a1, a0, 1
ffffffff8020694e: 2e e0                	sd	a1, 0(sp)
ffffffff80206950: 63 e7 a5 00          	bltu	a1, a0, 14
ffffffff80206954: 09 a0                	j	2
ffffffff80206956: 02 65                	ld	a0, 0(sp)
ffffffff80206958: e2 60                	ld	ra, 24(sp)
ffffffff8020695a: 05 61                	addi	sp, sp, 32
ffffffff8020695c: 82 80                	ret

ffffffff8020695e .LBB13_4:
ffffffff8020695e: 17 65 00 00          	auipc	a0, 6
ffffffff80206962: 13 05 25 1e          	addi	a0, a0, 482

ffffffff80206966 .LBB13_5:
ffffffff80206966: 17 66 00 00          	auipc	a2, 6
ffffffff8020696a: 13 06 a6 1b          	addi	a2, a2, 442
ffffffff8020696e: f1 45                	addi	a1, zero, 28
ffffffff80206970: 97 20 00 00          	auipc	ra, 2
ffffffff80206974: e7 80 80 ef          	jalr	-264(ra)
ffffffff80206978: 00 00                	unimp	

ffffffff8020697a _ZN4core3num23_$LT$impl$u20$usize$GT$31one_less_than_next_power_of_two17h511fe47c503835cbE:
ffffffff8020697a: 39 71                	addi	sp, sp, -64
ffffffff8020697c: 2a f0                	sd	a0, 32(sp)
ffffffff8020697e: 89 45                	addi	a1, zero, 2
ffffffff80206980: 2a e8                	sd	a0, 16(sp)
ffffffff80206982: 63 60 b5 0c          	bltu	a0, a1, 192
ffffffff80206986: 09 a0                	j	2
ffffffff80206988: 42 65                	ld	a0, 16(sp)
ffffffff8020698a: 93 05 f5 ff          	addi	a1, a0, -1
ffffffff8020698e: 2e f4                	sd	a1, 40(sp)
ffffffff80206990: 13 d6 15 00          	srli	a2, a1, 1
ffffffff80206994: d1 8d                	or	a1, a1, a2
ffffffff80206996: 13 d6 25 00          	srli	a2, a1, 2
ffffffff8020699a: d1 8d                	or	a1, a1, a2
ffffffff8020699c: 13 d6 45 00          	srli	a2, a1, 4
ffffffff802069a0: d1 8d                	or	a1, a1, a2
ffffffff802069a2: 13 d6 85 00          	srli	a2, a1, 8
ffffffff802069a6: d1 8d                	or	a1, a1, a2
ffffffff802069a8: 13 d6 05 01          	srli	a2, a1, 16
ffffffff802069ac: d1 8d                	or	a1, a1, a2
ffffffff802069ae: 13 d6 05 02          	srli	a2, a1, 32
ffffffff802069b2: d1 8d                	or	a1, a1, a2
ffffffff802069b4: 93 c5 f5 ff          	not	a1, a1
ffffffff802069b8: 13 d6 15 00          	srli	a2, a1, 1
ffffffff802069bc: b7 56 55 05          	lui	a3, 21845
ffffffff802069c0: 9b 86 56 55          	addiw	a3, a3, 1365
ffffffff802069c4: b2 06                	slli	a3, a3, 12
ffffffff802069c6: 93 86 56 55          	addi	a3, a3, 1365
ffffffff802069ca: b2 06                	slli	a3, a3, 12
ffffffff802069cc: 93 86 56 55          	addi	a3, a3, 1365
ffffffff802069d0: b2 06                	slli	a3, a3, 12
ffffffff802069d2: 93 86 56 55          	addi	a3, a3, 1365
ffffffff802069d6: 75 8e                	and	a2, a2, a3
ffffffff802069d8: 91 8d                	sub	a1, a1, a2
ffffffff802069da: 37 36 33 03          	lui	a2, 13107
ffffffff802069de: 1b 06 36 33          	addiw	a2, a2, 819
ffffffff802069e2: 32 06                	slli	a2, a2, 12
ffffffff802069e4: 13 06 36 33          	addi	a2, a2, 819
ffffffff802069e8: 32 06                	slli	a2, a2, 12
ffffffff802069ea: 13 06 36 33          	addi	a2, a2, 819
ffffffff802069ee: 32 06                	slli	a2, a2, 12
ffffffff802069f0: 13 06 36 33          	addi	a2, a2, 819
ffffffff802069f4: b3 f6 c5 00          	and	a3, a1, a2
ffffffff802069f8: 89 81                	srli	a1, a1, 2
ffffffff802069fa: f1 8d                	and	a1, a1, a2
ffffffff802069fc: b6 95                	add	a1, a1, a3
ffffffff802069fe: 13 d6 45 00          	srli	a2, a1, 4
ffffffff80206a02: b2 95                	add	a1, a1, a2
ffffffff80206a04: 37 f6 f0 00          	lui	a2, 3855
ffffffff80206a08: 1b 06 16 0f          	addiw	a2, a2, 241
ffffffff80206a0c: 32 06                	slli	a2, a2, 12
ffffffff80206a0e: 13 06 f6 f0          	addi	a2, a2, -241
ffffffff80206a12: 32 06                	slli	a2, a2, 12
ffffffff80206a14: 13 06 16 0f          	addi	a2, a2, 241
ffffffff80206a18: 32 06                	slli	a2, a2, 12
ffffffff80206a1a: 13 06 f6 f0          	addi	a2, a2, -241
ffffffff80206a1e: f1 8d                	and	a1, a1, a2
ffffffff80206a20: 37 06 01 01          	lui	a2, 4112
ffffffff80206a24: 1b 06 16 10          	addiw	a2, a2, 257
ffffffff80206a28: 42 06                	slli	a2, a2, 16
ffffffff80206a2a: 13 06 16 10          	addi	a2, a2, 257
ffffffff80206a2e: 42 06                	slli	a2, a2, 16
ffffffff80206a30: 13 06 16 10          	addi	a2, a2, 257
ffffffff80206a34: b3 85 c5 02          	<unknown>
ffffffff80206a38: e1 91                	srli	a1, a1, 56
ffffffff80206a3a: 2e f8                	sd	a1, 48(sp)
ffffffff80206a3c: 2e fc                	sd	a1, 56(sp)
ffffffff80206a3e: 2e e4                	sd	a1, 8(sp)
ffffffff80206a40: 39 a0                	j	14
ffffffff80206a42: 01 45                	mv	a0, zero
ffffffff80206a44: 2a ec                	sd	a0, 24(sp)
ffffffff80206a46: 09 a0                	j	2
ffffffff80206a48: 62 65                	ld	a0, 24(sp)
ffffffff80206a4a: 21 61                	addi	sp, sp, 64
ffffffff80206a4c: 82 80                	ret
ffffffff80206a4e: 7d 55                	addi	a0, zero, -1
ffffffff80206a50: a2 65                	ld	a1, 8(sp)
ffffffff80206a52: 33 55 b5 00          	srl	a0, a0, a1
ffffffff80206a56: 2a ec                	sd	a0, 24(sp)
ffffffff80206a58: c5 bf                	j	-16

ffffffff80206a5a _ZN4core3mem4swap17hd44f6627d97989d4E:
ffffffff80206a5a: 01 11                	addi	sp, sp, -32
ffffffff80206a5c: 06 ec                	sd	ra, 24(sp)
ffffffff80206a5e: 2a e4                	sd	a0, 8(sp)
ffffffff80206a60: 2e e8                	sd	a1, 16(sp)
ffffffff80206a62: 97 10 00 00          	auipc	ra, 1
ffffffff80206a66: e7 80 a0 10          	jalr	266(ra)
ffffffff80206a6a: 09 a0                	j	2
ffffffff80206a6c: e2 60                	ld	ra, 24(sp)
ffffffff80206a6e: 05 61                	addi	sp, sp, 32
ffffffff80206a70: 82 80                	ret

ffffffff80206a72 _ZN4core3mem7replace17hbb93ab034be69801E:
ffffffff80206a72: 01 11                	addi	sp, sp, -32
ffffffff80206a74: 06 ec                	sd	ra, 24(sp)
ffffffff80206a76: 2e e4                	sd	a1, 8(sp)
ffffffff80206a78: 2a e8                	sd	a0, 16(sp)
ffffffff80206a7a: 2c 00                	addi	a1, sp, 8
ffffffff80206a7c: 97 00 00 00          	auipc	ra, 0
ffffffff80206a80: e7 80 e0 fd          	jalr	-34(ra)
ffffffff80206a84: 09 a0                	j	2
ffffffff80206a86: 22 65                	ld	a0, 8(sp)
ffffffff80206a88: e2 60                	ld	ra, 24(sp)
ffffffff80206a8a: 05 61                	addi	sp, sp, 32
ffffffff80206a8c: 82 80                	ret

ffffffff80206a8e _ZN5alloc3vec12Vec$LT$T$GT$10as_mut_ptr17h23d79df8d67de892E:
ffffffff80206a8e: 01 11                	addi	sp, sp, -32
ffffffff80206a90: 06 ec                	sd	ra, 24(sp)
ffffffff80206a92: 2a e4                	sd	a0, 8(sp)
ffffffff80206a94: 97 00 00 00          	auipc	ra, 0
ffffffff80206a98: e7 80 e0 33          	jalr	830(ra)
ffffffff80206a9c: aa 85                	add	a1, zero, a0
ffffffff80206a9e: 2a e8                	sd	a0, 16(sp)
ffffffff80206aa0: 2e e0                	sd	a1, 0(sp)
ffffffff80206aa2: 09 a0                	j	2
ffffffff80206aa4: 02 65                	ld	a0, 0(sp)
ffffffff80206aa6: 97 10 00 00          	auipc	ra, 1
ffffffff80206aaa: e7 80 60 a1          	jalr	-1514(ra)
ffffffff80206aae: 09 a0                	j	2
ffffffff80206ab0: 09 a0                	j	2
ffffffff80206ab2: 02 65                	ld	a0, 0(sp)
ffffffff80206ab4: e2 60                	ld	ra, 24(sp)
ffffffff80206ab6: 05 61                	addi	sp, sp, 32
ffffffff80206ab8: 82 80                	ret

ffffffff80206aba _ZN5alloc3vec12Vec$LT$T$GT$13with_capacity17h957775cc7ed912b9E:
ffffffff80206aba: 79 71                	addi	sp, sp, -48
ffffffff80206abc: 06 f4                	sd	ra, 40(sp)
ffffffff80206abe: 2e f0                	sd	a1, 32(sp)
ffffffff80206ac0: 2a ec                	sd	a0, 24(sp)
ffffffff80206ac2: 2e 85                	add	a0, zero, a1
ffffffff80206ac4: 97 00 00 00          	auipc	ra, 0
ffffffff80206ac8: e7 80 c0 11          	jalr	284(ra)
ffffffff80206acc: 2a e8                	sd	a0, 16(sp)
ffffffff80206ace: 2e e4                	sd	a1, 8(sp)
ffffffff80206ad0: 09 a0                	j	2
ffffffff80206ad2: 42 65                	ld	a0, 16(sp)
ffffffff80206ad4: e2 65                	ld	a1, 24(sp)
ffffffff80206ad6: 88 e1                	sd	a0, 0(a1)
ffffffff80206ad8: 22 66                	ld	a2, 8(sp)
ffffffff80206ada: 90 e5                	sd	a2, 8(a1)
ffffffff80206adc: 81 46                	mv	a3, zero
ffffffff80206ade: 94 e9                	sd	a3, 16(a1)
ffffffff80206ae0: a2 70                	ld	ra, 40(sp)
ffffffff80206ae2: 45 61                	addi	sp, sp, 48
ffffffff80206ae4: 82 80                	ret

ffffffff80206ae6 _ZN5alloc3vec12Vec$LT$T$GT$3len17h03d5e37fef9abbebE:
ffffffff80206ae6: 41 11                	addi	sp, sp, -16
ffffffff80206ae8: 2a e4                	sd	a0, 8(sp)
ffffffff80206aea: 08 69                	ld	a0, 16(a0)
ffffffff80206aec: 41 01                	addi	sp, sp, 16
ffffffff80206aee: 82 80                	ret

ffffffff80206af0 _ZN5alloc3vec12Vec$LT$T$GT$6as_ptr17h73bd491325f48107E:
ffffffff80206af0: 01 11                	addi	sp, sp, -32
ffffffff80206af2: 06 ec                	sd	ra, 24(sp)
ffffffff80206af4: 2a e4                	sd	a0, 8(sp)
ffffffff80206af6: 97 00 00 00          	auipc	ra, 0
ffffffff80206afa: e7 80 c0 2d          	jalr	732(ra)
ffffffff80206afe: aa 85                	add	a1, zero, a0
ffffffff80206b00: 2a e8                	sd	a0, 16(sp)
ffffffff80206b02: 2e e0                	sd	a1, 0(sp)
ffffffff80206b04: 09 a0                	j	2
ffffffff80206b06: 02 65                	ld	a0, 0(sp)
ffffffff80206b08: 97 10 00 00          	auipc	ra, 1
ffffffff80206b0c: e7 80 40 9b          	jalr	-1612(ra)
ffffffff80206b10: 09 a0                	j	2
ffffffff80206b12: 09 a0                	j	2
ffffffff80206b14: 02 65                	ld	a0, 0(sp)
ffffffff80206b16: e2 60                	ld	ra, 24(sp)
ffffffff80206b18: 05 61                	addi	sp, sp, 32
ffffffff80206b1a: 82 80                	ret

ffffffff80206b1c _ZN5alloc3vec12Vec$LT$T$GT$7set_len17h37f5b5f4d4dda6caE:
ffffffff80206b1c: 41 11                	addi	sp, sp, -16
ffffffff80206b1e: 2a e0                	sd	a0, 0(sp)
ffffffff80206b20: 2e e4                	sd	a1, 8(sp)
ffffffff80206b22: 0c e9                	sd	a1, 16(a0)
ffffffff80206b24: 41 01                	addi	sp, sp, 16
ffffffff80206b26: 82 80                	ret

ffffffff80206b28 _ZN5alloc3vec9from_elem17h62b7c7bbe692d6eeE:
ffffffff80206b28: 01 11                	addi	sp, sp, -32
ffffffff80206b2a: 06 ec                	sd	ra, 24(sp)
ffffffff80206b2c: ae 86                	add	a3, zero, a1
ffffffff80206b2e: a3 07 b1 00          	sb	a1, 15(sp)
ffffffff80206b32: 32 e8                	sd	a2, 16(sp)
ffffffff80206b34: 36 e0                	sd	a3, 0(sp)
ffffffff80206b36: 97 10 00 00          	auipc	ra, 1
ffffffff80206b3a: e7 80 20 d9          	jalr	-622(ra)
ffffffff80206b3e: 09 a0                	j	2
ffffffff80206b40: e2 60                	ld	ra, 24(sp)
ffffffff80206b42: 05 61                	addi	sp, sp, 32
ffffffff80206b44: 82 80                	ret

ffffffff80206b46 _ZN68_$LT$alloc..vec..Vec$LT$T$GT$$u20$as$u20$core..ops..deref..Deref$GT$5deref17h088ace9e2392dcfdE:
ffffffff80206b46: 79 71                	addi	sp, sp, -48
ffffffff80206b48: 06 f4                	sd	ra, 40(sp)
ffffffff80206b4a: 2a f0                	sd	a0, 32(sp)
ffffffff80206b4c: 2a ec                	sd	a0, 24(sp)
ffffffff80206b4e: 97 00 00 00          	auipc	ra, 0
ffffffff80206b52: e7 80 20 fa          	jalr	-94(ra)
ffffffff80206b56: 2a e8                	sd	a0, 16(sp)
ffffffff80206b58: 09 a0                	j	2
ffffffff80206b5a: 62 65                	ld	a0, 24(sp)
ffffffff80206b5c: 0c 69                	ld	a1, 16(a0)
ffffffff80206b5e: 42 65                	ld	a0, 16(sp)
ffffffff80206b60: 97 00 00 00          	auipc	ra, 0
ffffffff80206b64: e7 80 a0 a3          	jalr	-1478(ra)
ffffffff80206b68: 2a e4                	sd	a0, 8(sp)
ffffffff80206b6a: 2e e0                	sd	a1, 0(sp)
ffffffff80206b6c: 09 a0                	j	2
ffffffff80206b6e: 22 65                	ld	a0, 8(sp)
ffffffff80206b70: 82 65                	ld	a1, 0(sp)
ffffffff80206b72: a2 70                	ld	ra, 40(sp)
ffffffff80206b74: 45 61                	addi	sp, sp, 48
ffffffff80206b76: 82 80                	ret

ffffffff80206b78 _ZN71_$LT$alloc..vec..Vec$LT$T$GT$$u20$as$u20$core..ops..deref..DerefMut$GT$9deref_mut17hcb093a460f9a9937E:
ffffffff80206b78: 79 71                	addi	sp, sp, -48
ffffffff80206b7a: 06 f4                	sd	ra, 40(sp)
ffffffff80206b7c: 2a f0                	sd	a0, 32(sp)
ffffffff80206b7e: 2a ec                	sd	a0, 24(sp)
ffffffff80206b80: 97 00 00 00          	auipc	ra, 0
ffffffff80206b84: e7 80 e0 f0          	jalr	-242(ra)
ffffffff80206b88: 2a e8                	sd	a0, 16(sp)
ffffffff80206b8a: 09 a0                	j	2
ffffffff80206b8c: 62 65                	ld	a0, 24(sp)
ffffffff80206b8e: 0c 69                	ld	a1, 16(a0)
ffffffff80206b90: 42 65                	ld	a0, 16(sp)
ffffffff80206b92: 97 00 00 00          	auipc	ra, 0
ffffffff80206b96: e7 80 80 a2          	jalr	-1496(ra)
ffffffff80206b9a: 2a e4                	sd	a0, 8(sp)
ffffffff80206b9c: 2e e0                	sd	a1, 0(sp)
ffffffff80206b9e: 09 a0                	j	2
ffffffff80206ba0: 22 65                	ld	a0, 8(sp)
ffffffff80206ba2: 82 65                	ld	a1, 0(sp)
ffffffff80206ba4: a2 70                	ld	ra, 40(sp)
ffffffff80206ba6: 45 61                	addi	sp, sp, 48
ffffffff80206ba8: 82 80                	ret

ffffffff80206baa _ZN80_$LT$alloc..vec..Vec$LT$T$GT$$u20$as$u20$core..ops..index..IndexMut$LT$I$GT$$GT$9index_mut17hd5721578e64c2a96E:
ffffffff80206baa: 39 71                	addi	sp, sp, -64
ffffffff80206bac: 06 fc                	sd	ra, 56(sp)
ffffffff80206bae: 2a f4                	sd	a0, 40(sp)
ffffffff80206bb0: 2e f8                	sd	a1, 48(sp)
ffffffff80206bb2: 32 f0                	sd	a2, 32(sp)
ffffffff80206bb4: 2e ec                	sd	a1, 24(sp)
ffffffff80206bb6: 97 00 00 00          	auipc	ra, 0
ffffffff80206bba: e7 80 20 fc          	jalr	-62(ra)
ffffffff80206bbe: 2a e8                	sd	a0, 16(sp)
ffffffff80206bc0: 2e e4                	sd	a1, 8(sp)
ffffffff80206bc2: 09 a0                	j	2
ffffffff80206bc4: 42 65                	ld	a0, 16(sp)
ffffffff80206bc6: a2 65                	ld	a1, 8(sp)
ffffffff80206bc8: 62 66                	ld	a2, 24(sp)
ffffffff80206bca: 82 76                	ld	a3, 32(sp)
ffffffff80206bcc: 97 00 00 00          	auipc	ra, 0
ffffffff80206bd0: e7 80 e0 a0          	jalr	-1522(ra)
ffffffff80206bd4: 2a e0                	sd	a0, 0(sp)
ffffffff80206bd6: 09 a0                	j	2
ffffffff80206bd8: 02 65                	ld	a0, 0(sp)
ffffffff80206bda: e2 70                	ld	ra, 56(sp)
ffffffff80206bdc: 21 61                	addi	sp, sp, 64
ffffffff80206bde: 82 80                	ret

ffffffff80206be0 _ZN5alloc7raw_vec15RawVec$LT$T$GT$13with_capacity17hb853c2d38a48a055E:
ffffffff80206be0: 01 11                	addi	sp, sp, -32
ffffffff80206be2: 06 ec                	sd	ra, 24(sp)
ffffffff80206be4: 2a e8                	sd	a0, 16(sp)
ffffffff80206be6: 97 00 00 00          	auipc	ra, 0
ffffffff80206bea: e7 80 c0 16          	jalr	364(ra)
ffffffff80206bee: 2a e4                	sd	a0, 8(sp)
ffffffff80206bf0: 2e e0                	sd	a1, 0(sp)
ffffffff80206bf2: 09 a0                	j	2
ffffffff80206bf4: 22 65                	ld	a0, 8(sp)
ffffffff80206bf6: 82 65                	ld	a1, 0(sp)
ffffffff80206bf8: e2 60                	ld	ra, 24(sp)
ffffffff80206bfa: 05 61                	addi	sp, sp, 32
ffffffff80206bfc: 82 80                	ret

ffffffff80206bfe _ZN5alloc7raw_vec15RawVec$LT$T$GT$20with_capacity_zeroed17hc73757168dc30c5eE:
ffffffff80206bfe: 01 11                	addi	sp, sp, -32
ffffffff80206c00: 06 ec                	sd	ra, 24(sp)
ffffffff80206c02: 2a e8                	sd	a0, 16(sp)
ffffffff80206c04: 97 00 00 00          	auipc	ra, 0
ffffffff80206c08: e7 80 e0 1a          	jalr	430(ra)
ffffffff80206c0c: 2a e4                	sd	a0, 8(sp)
ffffffff80206c0e: 2e e0                	sd	a1, 0(sp)
ffffffff80206c10: 09 a0                	j	2
ffffffff80206c12: 22 65                	ld	a0, 8(sp)
ffffffff80206c14: 82 65                	ld	a1, 0(sp)
ffffffff80206c16: e2 60                	ld	ra, 24(sp)
ffffffff80206c18: 05 61                	addi	sp, sp, 32
ffffffff80206c1a: 82 80                	ret

ffffffff80206c1c _ZN5alloc7raw_vec19RawVec$LT$T$C$A$GT$11allocate_in17hac7dff23eb36dcffE:
ffffffff80206c1c: 11 71                	addi	sp, sp, -256
ffffffff80206c1e: 86 fd                	sd	ra, 248(sp)
ffffffff80206c20: 2e 86                	add	a2, zero, a1
ffffffff80206c22: aa e9                	sd	a0, 208(sp)
ffffffff80206c24: a3 0f b1 0c          	sb	a1, 223(sp)
ffffffff80206c28: 85 45                	addi	a1, zero, 1
ffffffff80206c2a: ae f9                	sd	a1, 240(sp)
ffffffff80206c2c: aa f8                	sd	a0, 112(sp)
ffffffff80206c2e: b2 f4                	sd	a2, 104(sp)
ffffffff80206c30: ae f0                	sd	a1, 96(sp)
ffffffff80206c32: 09 a0                	j	2
ffffffff80206c34: 01 45                	mv	a0, zero
ffffffff80206c36: 86 75                	ld	a1, 96(sp)
ffffffff80206c38: 63 8b a5 00          	beq	a1, a0, 22
ffffffff80206c3c: 09 a0                	j	2
ffffffff80206c3e: 46 75                	ld	a0, 112(sp)
ffffffff80206c40: 97 00 00 00          	auipc	ra, 0
ffffffff80206c44: e7 80 40 74          	jalr	1860(ra)
ffffffff80206c48: aa ec                	sd	a0, 88(sp)
ffffffff80206c4a: ae e8                	sd	a1, 80(sp)
ffffffff80206c4c: 09 a8                	j	18
ffffffff80206c4e: 97 00 00 00          	auipc	ra, 0
ffffffff80206c52: e7 80 00 1a          	jalr	416(ra)
ffffffff80206c56: 2a e1                	sd	a0, 128(sp)
ffffffff80206c58: 2e e5                	sd	a1, 136(sp)
ffffffff80206c5a: 09 a0                	j	2
ffffffff80206c5c: 65 a8                	j	184
ffffffff80206c5e: 66 65                	ld	a0, 88(sp)
ffffffff80206c60: c6 65                	ld	a1, 80(sp)
ffffffff80206c62: 97 00 00 00          	auipc	ra, 0
ffffffff80206c66: e7 80 20 53          	jalr	1330(ra)
ffffffff80206c6a: 2a e9                	sd	a0, 144(sp)
ffffffff80206c6c: 2e ed                	sd	a1, 152(sp)
ffffffff80206c6e: 09 a0                	j	2
ffffffff80206c70: 08 09                	addi	a0, sp, 144
ffffffff80206c72: 97 00 00 00          	auipc	ra, 0
ffffffff80206c76: e7 80 80 31          	jalr	792(ra)
ffffffff80206c7a: aa e4                	sd	a0, 72(sp)
ffffffff80206c7c: 09 a0                	j	2
ffffffff80206c7e: 28 11                	addi	a0, sp, 168
ffffffff80206c80: a6 65                	ld	a1, 72(sp)
ffffffff80206c82: 97 00 00 00          	auipc	ra, 0
ffffffff80206c86: e7 80 40 7a          	jalr	1956(ra)
ffffffff80206c8a: 09 a0                	j	2
ffffffff80206c8c: 28 11                	addi	a0, sp, 168
ffffffff80206c8e: 97 00 00 00          	auipc	ra, 0
ffffffff80206c92: e7 80 40 5c          	jalr	1476(ra)
ffffffff80206c96: 09 a0                	j	2
ffffffff80206c98: ca 65                	ld	a1, 144(sp)
ffffffff80206c9a: 6a 66                	ld	a2, 152(sp)
ffffffff80206c9c: a8 18                	addi	a0, sp, 120
ffffffff80206c9e: a6 76                	ld	a3, 104(sp)
ffffffff80206ca0: 97 10 00 00          	auipc	ra, 1
ffffffff80206ca4: e7 80 e0 b2          	jalr	-1234(ra)
ffffffff80206ca8: aa e0                	sd	a0, 64(sp)
ffffffff80206caa: 2e fc                	sd	a1, 56(sp)
ffffffff80206cac: 09 a0                	j	2
ffffffff80206cae: 08 09                	addi	a0, sp, 144
ffffffff80206cb0: aa e5                	sd	a0, 200(sp)
ffffffff80206cb2: 86 65                	ld	a1, 64(sp)
ffffffff80206cb4: 2a f8                	sd	a0, 48(sp)
ffffffff80206cb6: 2e 85                	add	a0, zero, a1
ffffffff80206cb8: e2 75                	ld	a1, 56(sp)
ffffffff80206cba: 42 76                	ld	a2, 48(sp)
ffffffff80206cbc: 97 00 00 00          	auipc	ra, 0
ffffffff80206cc0: e7 80 40 53          	jalr	1332(ra)
ffffffff80206cc4: 2a 86                	add	a2, zero, a0
ffffffff80206cc6: ae 86                	add	a3, zero, a1
ffffffff80206cc8: aa f1                	sd	a0, 224(sp)
ffffffff80206cca: ae f5                	sd	a1, 232(sp)
ffffffff80206ccc: 32 f4                	sd	a2, 40(sp)
ffffffff80206cce: 36 f0                	sd	a3, 32(sp)
ffffffff80206cd0: 09 a0                	j	2
ffffffff80206cd2: 22 75                	ld	a0, 40(sp)
ffffffff80206cd4: 97 10 00 00          	auipc	ra, 1
ffffffff80206cd8: e7 80 80 e1          	jalr	-488(ra)
ffffffff80206cdc: 2a ec                	sd	a0, 24(sp)
ffffffff80206cde: 09 a0                	j	2
ffffffff80206ce0: 62 65                	ld	a0, 24(sp)
ffffffff80206ce2: 97 10 00 00          	auipc	ra, 1
ffffffff80206ce6: e7 80 20 e3          	jalr	-462(ra)
ffffffff80206cea: 2a e8                	sd	a0, 16(sp)
ffffffff80206cec: 09 a0                	j	2
ffffffff80206cee: 42 65                	ld	a0, 16(sp)
ffffffff80206cf0: 97 10 00 00          	auipc	ra, 1
ffffffff80206cf4: e7 80 40 08          	jalr	132(ra)
ffffffff80206cf8: 2a e4                	sd	a0, 8(sp)
ffffffff80206cfa: 09 a0                	j	2
ffffffff80206cfc: 02 75                	ld	a0, 32(sp)
ffffffff80206cfe: 97 00 00 00          	auipc	ra, 0
ffffffff80206d02: e7 80 40 07          	jalr	116(ra)
ffffffff80206d06: 2a e0                	sd	a0, 0(sp)
ffffffff80206d08: 09 a0                	j	2
ffffffff80206d0a: 22 65                	ld	a0, 8(sp)
ffffffff80206d0c: 2a e1                	sd	a0, 128(sp)
ffffffff80206d0e: 82 65                	ld	a1, 0(sp)
ffffffff80206d10: 2e e5                	sd	a1, 136(sp)
ffffffff80206d12: 09 a0                	j	2
ffffffff80206d14: 0a 65                	ld	a0, 128(sp)
ffffffff80206d16: aa 65                	ld	a1, 136(sp)
ffffffff80206d18: ee 70                	ld	ra, 248(sp)
ffffffff80206d1a: 11 61                	addi	sp, sp, 256
ffffffff80206d1c: 82 80                	ret

ffffffff80206d1e _ZN5alloc7raw_vec19RawVec$LT$T$C$A$GT$11allocate_in28_$u7b$$u7b$closure$u7d$$u7d$17h64e42f02d3ed300aE:
ffffffff80206d1e: 01 11                	addi	sp, sp, -32
ffffffff80206d20: 2a e8                	sd	a0, 16(sp)
ffffffff80206d22: 2e ec                	sd	a1, 24(sp)
ffffffff80206d24: 97 20 00 00          	auipc	ra, 2
ffffffff80206d28: e7 80 40 a0          	jalr	-1532(ra)
ffffffff80206d2c: 00 00                	unimp	

ffffffff80206d2e _ZN5alloc7raw_vec19RawVec$LT$T$C$A$GT$11allocate_in28_$u7b$$u7b$closure$u7d$$u7d$17h8d689233f0e69943E:
ffffffff80206d2e: 41 11                	addi	sp, sp, -16
ffffffff80206d30: 97 20 00 00          	auipc	ra, 2
ffffffff80206d34: e7 80 80 9f          	jalr	-1544(ra)
ffffffff80206d38: 00 00                	unimp	

ffffffff80206d3a _ZN5alloc7raw_vec19RawVec$LT$T$C$A$GT$11allocate_in28_$u7b$$u7b$closure$u7d$$u7d$17hd85881ffc788578dE:
ffffffff80206d3a: 01 11                	addi	sp, sp, -32
ffffffff80206d3c: 2a e8                	sd	a0, 16(sp)
ffffffff80206d3e: 0c 61                	ld	a1, 0(a0)
ffffffff80206d40: 08 65                	ld	a0, 8(a0)
ffffffff80206d42: 2a e4                	sd	a0, 8(sp)
ffffffff80206d44: 2e 85                	add	a0, zero, a1
ffffffff80206d46: a2 65                	ld	a1, 8(sp)
ffffffff80206d48: 97 20 00 00          	auipc	ra, 2
ffffffff80206d4c: e7 80 20 9d          	jalr	-1582(ra)
ffffffff80206d50: 00 00                	unimp	

ffffffff80206d52 _ZN5alloc7raw_vec19RawVec$LT$T$C$A$GT$16with_capacity_in17ha63e699d99ed060eE:
ffffffff80206d52: 79 71                	addi	sp, sp, -48
ffffffff80206d54: 06 f4                	sd	ra, 40(sp)
ffffffff80206d56: 2a ec                	sd	a0, 24(sp)
ffffffff80206d58: 81 45                	mv	a1, zero
ffffffff80206d5a: 97 00 00 00          	auipc	ra, 0
ffffffff80206d5e: e7 80 20 ec          	jalr	-318(ra)
ffffffff80206d62: 2a e8                	sd	a0, 16(sp)
ffffffff80206d64: 2e e4                	sd	a1, 8(sp)
ffffffff80206d66: 09 a0                	j	2
ffffffff80206d68: 42 65                	ld	a0, 16(sp)
ffffffff80206d6a: a2 65                	ld	a1, 8(sp)
ffffffff80206d6c: a2 70                	ld	ra, 40(sp)
ffffffff80206d6e: 45 61                	addi	sp, sp, 48
ffffffff80206d70: 82 80                	ret

ffffffff80206d72 _ZN5alloc7raw_vec19RawVec$LT$T$C$A$GT$19capacity_from_bytes17hde97c55b744e3a17E:
ffffffff80206d72: 01 11                	addi	sp, sp, -32
ffffffff80206d74: 2a e8                	sd	a0, 16(sp)
ffffffff80206d76: 85 45                	addi	a1, zero, 1
ffffffff80206d78: 2e ec                	sd	a1, 24(sp)
ffffffff80206d7a: 2a e4                	sd	a0, 8(sp)
ffffffff80206d7c: 2e e0                	sd	a1, 0(sp)
ffffffff80206d7e: 09 a0                	j	2
ffffffff80206d80: 01 45                	mv	a0, zero
ffffffff80206d82: 82 65                	ld	a1, 0(sp)
ffffffff80206d84: 63 89 a5 00          	beq	a1, a0, 18
ffffffff80206d88: 09 a0                	j	2
ffffffff80206d8a: 22 65                	ld	a0, 8(sp)
ffffffff80206d8c: 82 65                	ld	a1, 0(sp)
ffffffff80206d8e: 33 55 b5 02          	<unknown>
ffffffff80206d92: 05 61                	addi	sp, sp, 32
ffffffff80206d94: 82 80                	ret

ffffffff80206d96 .LBB18_4:
ffffffff80206d96: 17 65 00 00          	auipc	a0, 6
ffffffff80206d9a: 13 05 a5 e2          	addi	a0, a0, -470

ffffffff80206d9e .LBB18_5:
ffffffff80206d9e: 17 66 00 00          	auipc	a2, 6
ffffffff80206da2: 13 06 a6 e0          	addi	a2, a2, -502
ffffffff80206da6: e5 45                	addi	a1, zero, 25
ffffffff80206da8: 97 20 00 00          	auipc	ra, 2
ffffffff80206dac: e7 80 00 ac          	jalr	-1344(ra)
ffffffff80206db0: 00 00                	unimp	

ffffffff80206db2 _ZN5alloc7raw_vec19RawVec$LT$T$C$A$GT$23with_capacity_zeroed_in17heb45246f517f9d88E:
ffffffff80206db2: 79 71                	addi	sp, sp, -48
ffffffff80206db4: 06 f4                	sd	ra, 40(sp)
ffffffff80206db6: 2a ec                	sd	a0, 24(sp)
ffffffff80206db8: 85 45                	addi	a1, zero, 1
ffffffff80206dba: 97 00 00 00          	auipc	ra, 0
ffffffff80206dbe: e7 80 20 e6          	jalr	-414(ra)
ffffffff80206dc2: 2a e8                	sd	a0, 16(sp)
ffffffff80206dc4: 2e e4                	sd	a1, 8(sp)
ffffffff80206dc6: 09 a0                	j	2
ffffffff80206dc8: 42 65                	ld	a0, 16(sp)
ffffffff80206dca: a2 65                	ld	a1, 8(sp)
ffffffff80206dcc: a2 70                	ld	ra, 40(sp)
ffffffff80206dce: 45 61                	addi	sp, sp, 48
ffffffff80206dd0: 82 80                	ret

ffffffff80206dd2 _ZN5alloc7raw_vec19RawVec$LT$T$C$A$GT$3ptr17h04cce13f80c50f09E:
ffffffff80206dd2: 01 11                	addi	sp, sp, -32
ffffffff80206dd4: 06 ec                	sd	ra, 24(sp)
ffffffff80206dd6: 2a e8                	sd	a0, 16(sp)
ffffffff80206dd8: 08 61                	ld	a0, 0(a0)
ffffffff80206dda: 97 10 00 00          	auipc	ra, 1
ffffffff80206dde: e7 80 40 fa          	jalr	-92(ra)
ffffffff80206de2: 2a e4                	sd	a0, 8(sp)
ffffffff80206de4: 09 a0                	j	2
ffffffff80206de6: 22 65                	ld	a0, 8(sp)
ffffffff80206de8: e2 60                	ld	ra, 24(sp)
ffffffff80206dea: 05 61                	addi	sp, sp, 32
ffffffff80206dec: 82 80                	ret

ffffffff80206dee _ZN5alloc7raw_vec19RawVec$LT$T$C$A$GT$6new_in17h773d3382688150fbE:
ffffffff80206dee: 79 71                	addi	sp, sp, -48
ffffffff80206df0: 06 f4                	sd	ra, 40(sp)
ffffffff80206df2: 97 10 00 00          	auipc	ra, 1
ffffffff80206df6: e7 80 40 f9          	jalr	-108(ra)
ffffffff80206dfa: 2a e4                	sd	a0, 8(sp)
ffffffff80206dfc: 09 a0                	j	2
ffffffff80206dfe: 22 65                	ld	a0, 8(sp)
ffffffff80206e00: 2a e8                	sd	a0, 16(sp)
ffffffff80206e02: 81 45                	mv	a1, zero
ffffffff80206e04: 2e ec                	sd	a1, 24(sp)
ffffffff80206e06: a2 70                	ld	ra, 40(sp)
ffffffff80206e08: 45 61                	addi	sp, sp, 48
ffffffff80206e0a: 82 80                	ret

ffffffff80206e0c _ZN4core5alloc6layout6Layout12pad_to_align17h7d778d2c0fe87a29E:
ffffffff80206e0c: 59 71                	addi	sp, sp, -112
ffffffff80206e0e: 86 f4                	sd	ra, 104(sp)
ffffffff80206e10: aa e8                	sd	a0, 80(sp)
ffffffff80206e12: aa e4                	sd	a0, 72(sp)
ffffffff80206e14: 97 00 00 00          	auipc	ra, 0
ffffffff80206e18: e7 80 00 18          	jalr	384(ra)
ffffffff80206e1c: aa e0                	sd	a0, 64(sp)
ffffffff80206e1e: 09 a0                	j	2
ffffffff80206e20: 26 65                	ld	a0, 72(sp)
ffffffff80206e22: 86 65                	ld	a1, 64(sp)
ffffffff80206e24: 97 00 00 00          	auipc	ra, 0
ffffffff80206e28: e7 80 20 0d          	jalr	210(ra)
ffffffff80206e2c: aa 85                	add	a1, zero, a0
ffffffff80206e2e: aa ec                	sd	a0, 88(sp)
ffffffff80206e30: 2e fc                	sd	a1, 56(sp)
ffffffff80206e32: 09 a0                	j	2
ffffffff80206e34: 26 65                	ld	a0, 72(sp)
ffffffff80206e36: 97 00 00 00          	auipc	ra, 0
ffffffff80206e3a: e7 80 40 15          	jalr	340(ra)
ffffffff80206e3e: 2a f8                	sd	a0, 48(sp)
ffffffff80206e40: 09 a0                	j	2
ffffffff80206e42: 42 75                	ld	a0, 48(sp)
ffffffff80206e44: e2 75                	ld	a1, 56(sp)
ffffffff80206e46: 33 06 b5 00          	add	a2, a0, a1
ffffffff80206e4a: b2 f0                	sd	a2, 96(sp)
ffffffff80206e4c: 26 65                	ld	a0, 72(sp)
ffffffff80206e4e: 32 f4                	sd	a2, 40(sp)
ffffffff80206e50: 97 00 00 00          	auipc	ra, 0
ffffffff80206e54: e7 80 40 14          	jalr	324(ra)
ffffffff80206e58: 2a f0                	sd	a0, 32(sp)
ffffffff80206e5a: 09 a0                	j	2
ffffffff80206e5c: 22 75                	ld	a0, 40(sp)
ffffffff80206e5e: 82 75                	ld	a1, 32(sp)
ffffffff80206e60: 97 00 00 00          	auipc	ra, 0
ffffffff80206e64: e7 80 20 03          	jalr	50(ra)
ffffffff80206e68: 2a ec                	sd	a0, 24(sp)
ffffffff80206e6a: 2e e8                	sd	a1, 16(sp)
ffffffff80206e6c: 09 a0                	j	2

ffffffff80206e6e .LBB0_7:
ffffffff80206e6e: 17 66 00 00          	auipc	a2, 6
ffffffff80206e72: 13 06 a6 db          	addi	a2, a2, -582
ffffffff80206e76: 62 65                	ld	a0, 24(sp)
ffffffff80206e78: c2 65                	ld	a1, 16(sp)
ffffffff80206e7a: 97 00 00 00          	auipc	ra, 0
ffffffff80206e7e: e7 80 e0 42          	jalr	1070(ra)
ffffffff80206e82: 2a e4                	sd	a0, 8(sp)
ffffffff80206e84: 2e e0                	sd	a1, 0(sp)
ffffffff80206e86: 09 a0                	j	2
ffffffff80206e88: 22 65                	ld	a0, 8(sp)
ffffffff80206e8a: 82 65                	ld	a1, 0(sp)
ffffffff80206e8c: a6 70                	ld	ra, 104(sp)
ffffffff80206e8e: 65 61                	addi	sp, sp, 112
ffffffff80206e90: 82 80                	ret

ffffffff80206e92 _ZN4core5alloc6layout6Layout15from_size_align17hd119a5df6410d884E:
ffffffff80206e92: 5d 71                	addi	sp, sp, -80
ffffffff80206e94: 86 e4                	sd	ra, 72(sp)
ffffffff80206e96: 2a fc                	sd	a0, 56(sp)
ffffffff80206e98: ae e0                	sd	a1, 64(sp)
ffffffff80206e9a: 2a f0                	sd	a0, 32(sp)
ffffffff80206e9c: 2e 85                	add	a0, zero, a1
ffffffff80206e9e: 2e ec                	sd	a1, 24(sp)
ffffffff80206ea0: 97 00 00 00          	auipc	ra, 0
ffffffff80206ea4: e7 80 e0 a0          	jalr	-1522(ra)
ffffffff80206ea8: 2a e8                	sd	a0, 16(sp)
ffffffff80206eaa: 09 a0                	j	2
ffffffff80206eac: 01 45                	mv	a0, zero
ffffffff80206eae: c2 65                	ld	a1, 16(sp)
ffffffff80206eb0: 63 8a a5 00          	beq	a1, a0, 20
ffffffff80206eb4: 09 a0                	j	2
ffffffff80206eb6: 01 45                	mv	a0, zero
ffffffff80206eb8: e2 65                	ld	a1, 24(sp)
ffffffff80206eba: 0d 8d                	sub	a0, a0, a1
ffffffff80206ebc: 02 76                	ld	a2, 32(sp)
ffffffff80206ebe: 63 64 c5 02          	bltu	a0, a2, 40
ffffffff80206ec2: 09 a8                	j	18
ffffffff80206ec4: 01 45                	mv	a0, zero
ffffffff80206ec6: 2a f8                	sd	a0, 48(sp)
ffffffff80206ec8: 09 a0                	j	2
ffffffff80206eca: 22 75                	ld	a0, 40(sp)
ffffffff80206ecc: c2 75                	ld	a1, 48(sp)
ffffffff80206ece: a6 60                	ld	ra, 72(sp)
ffffffff80206ed0: 61 61                	addi	sp, sp, 80
ffffffff80206ed2: 82 80                	ret
ffffffff80206ed4: 02 75                	ld	a0, 32(sp)
ffffffff80206ed6: e2 65                	ld	a1, 24(sp)
ffffffff80206ed8: 97 00 00 00          	auipc	ra, 0
ffffffff80206edc: e7 80 c0 08          	jalr	140(ra)
ffffffff80206ee0: 2a e4                	sd	a0, 8(sp)
ffffffff80206ee2: 2e e0                	sd	a1, 0(sp)
ffffffff80206ee4: 21 a0                	j	8
ffffffff80206ee6: 01 45                	mv	a0, zero
ffffffff80206ee8: 2a f8                	sd	a0, 48(sp)
ffffffff80206eea: c5 b7                	j	-32
ffffffff80206eec: 22 65                	ld	a0, 8(sp)
ffffffff80206eee: 2a f4                	sd	a0, 40(sp)
ffffffff80206ef0: 82 65                	ld	a1, 0(sp)
ffffffff80206ef2: 2e f8                	sd	a1, 48(sp)
ffffffff80206ef4: d9 bf                	j	-42

ffffffff80206ef6 _ZN4core5alloc6layout6Layout18padding_needed_for17hc3f06cdeeab8d7a7E:
ffffffff80206ef6: 1d 71                	addi	sp, sp, -96
ffffffff80206ef8: 86 ec                	sd	ra, 88(sp)
ffffffff80206efa: 2a fc                	sd	a0, 56(sp)
ffffffff80206efc: ae e0                	sd	a1, 64(sp)
ffffffff80206efe: 2e f8                	sd	a1, 48(sp)
ffffffff80206f00: 97 00 00 00          	auipc	ra, 0
ffffffff80206f04: e7 80 a0 08          	jalr	138(ra)
ffffffff80206f08: aa 85                	add	a1, zero, a0
ffffffff80206f0a: aa e4                	sd	a0, 72(sp)
ffffffff80206f0c: 2e f4                	sd	a1, 40(sp)
ffffffff80206f0e: 09 a0                	j	2
ffffffff80206f10: 22 75                	ld	a0, 40(sp)
ffffffff80206f12: c2 75                	ld	a1, 48(sp)
ffffffff80206f14: 97 00 00 00          	auipc	ra, 0
ffffffff80206f18: e7 80 e0 95          	jalr	-1698(ra)
ffffffff80206f1c: 2a f0                	sd	a0, 32(sp)
ffffffff80206f1e: 09 a0                	j	2
ffffffff80206f20: 85 45                	addi	a1, zero, 1
ffffffff80206f22: 02 75                	ld	a0, 32(sp)
ffffffff80206f24: 97 00 00 00          	auipc	ra, 0
ffffffff80206f28: e7 80 20 96          	jalr	-1694(ra)
ffffffff80206f2c: 2a ec                	sd	a0, 24(sp)
ffffffff80206f2e: 09 a0                	j	2
ffffffff80206f30: 85 45                	addi	a1, zero, 1
ffffffff80206f32: 42 75                	ld	a0, 48(sp)
ffffffff80206f34: 97 00 00 00          	auipc	ra, 0
ffffffff80206f38: e7 80 20 95          	jalr	-1710(ra)
ffffffff80206f3c: 2a e8                	sd	a0, 16(sp)
ffffffff80206f3e: 09 a0                	j	2
ffffffff80206f40: 42 65                	ld	a0, 16(sp)
ffffffff80206f42: 93 45 f5 ff          	not	a1, a0
ffffffff80206f46: 62 66                	ld	a2, 24(sp)
ffffffff80206f48: f1 8d                	and	a1, a1, a2
ffffffff80206f4a: ae e8                	sd	a1, 80(sp)
ffffffff80206f4c: 2e 85                	add	a0, zero, a1
ffffffff80206f4e: a2 75                	ld	a1, 40(sp)
ffffffff80206f50: 97 00 00 00          	auipc	ra, 0
ffffffff80206f54: e7 80 60 93          	jalr	-1738(ra)
ffffffff80206f58: 2a e4                	sd	a0, 8(sp)
ffffffff80206f5a: 09 a0                	j	2
ffffffff80206f5c: 22 65                	ld	a0, 8(sp)
ffffffff80206f5e: e6 60                	ld	ra, 88(sp)
ffffffff80206f60: 25 61                	addi	sp, sp, 96
ffffffff80206f62: 82 80                	ret

ffffffff80206f64 _ZN4core5alloc6layout6Layout25from_size_align_unchecked17hfcfa71270a0e43c0E:
ffffffff80206f64: 39 71                	addi	sp, sp, -64
ffffffff80206f66: 06 fc                	sd	ra, 56(sp)
ffffffff80206f68: 2a f4                	sd	a0, 40(sp)
ffffffff80206f6a: 2e f8                	sd	a1, 48(sp)
ffffffff80206f6c: 2a e8                	sd	a0, 16(sp)
ffffffff80206f6e: 2e 85                	add	a0, zero, a1
ffffffff80206f70: 97 f0 ff ff          	auipc	ra, 1048575
ffffffff80206f74: e7 80 a0 7d          	jalr	2010(ra)
ffffffff80206f78: 2a e4                	sd	a0, 8(sp)
ffffffff80206f7a: 09 a0                	j	2
ffffffff80206f7c: 42 65                	ld	a0, 16(sp)
ffffffff80206f7e: 2a ec                	sd	a0, 24(sp)
ffffffff80206f80: a2 65                	ld	a1, 8(sp)
ffffffff80206f82: 2e f0                	sd	a1, 32(sp)
ffffffff80206f84: e2 70                	ld	ra, 56(sp)
ffffffff80206f86: 21 61                	addi	sp, sp, 64
ffffffff80206f88: 82 80                	ret

ffffffff80206f8a _ZN4core5alloc6layout6Layout4size17h6adc2159208b165bE:
ffffffff80206f8a: 41 11                	addi	sp, sp, -16
ffffffff80206f8c: 2a e4                	sd	a0, 8(sp)
ffffffff80206f8e: 08 61                	ld	a0, 0(a0)
ffffffff80206f90: 41 01                	addi	sp, sp, 16
ffffffff80206f92: 82 80                	ret

ffffffff80206f94 _ZN4core5alloc6layout6Layout5align17h2264983a908c4ddcE:
ffffffff80206f94: 01 11                	addi	sp, sp, -32
ffffffff80206f96: 06 ec                	sd	ra, 24(sp)
ffffffff80206f98: 2a e8                	sd	a0, 16(sp)
ffffffff80206f9a: 08 65                	ld	a0, 8(a0)
ffffffff80206f9c: 97 f0 ff ff          	auipc	ra, 1048575
ffffffff80206fa0: e7 80 80 7b          	jalr	1976(ra)
ffffffff80206fa4: 2a e4                	sd	a0, 8(sp)
ffffffff80206fa6: 09 a0                	j	2
ffffffff80206fa8: 22 65                	ld	a0, 8(sp)
ffffffff80206faa: e2 60                	ld	ra, 24(sp)
ffffffff80206fac: 05 61                	addi	sp, sp, 32
ffffffff80206fae: 82 80                	ret

ffffffff80206fb0 _ZN4core5alloc6layout6Layout6repeat17ha5980daf63a39159E:
ffffffff80206fb0: 15 71                	addi	sp, sp, -224
ffffffff80206fb2: 86 ed                	sd	ra, 216(sp)
ffffffff80206fb4: 2e f5                	sd	a1, 168(sp)
ffffffff80206fb6: 32 f9                	sd	a2, 176(sp)
ffffffff80206fb8: aa fc                	sd	a0, 120(sp)
ffffffff80206fba: 2e 85                	add	a0, zero, a1
ffffffff80206fbc: b2 f8                	sd	a2, 112(sp)
ffffffff80206fbe: ae f4                	sd	a1, 104(sp)
ffffffff80206fc0: 97 00 00 00          	auipc	ra, 0
ffffffff80206fc4: e7 80 a0 fc          	jalr	-54(ra)
ffffffff80206fc8: aa f0                	sd	a0, 96(sp)
ffffffff80206fca: 09 a0                	j	2
ffffffff80206fcc: 26 75                	ld	a0, 104(sp)
ffffffff80206fce: 97 00 00 00          	auipc	ra, 0
ffffffff80206fd2: e7 80 60 fc          	jalr	-58(ra)
ffffffff80206fd6: aa ec                	sd	a0, 88(sp)
ffffffff80206fd8: 09 a0                	j	2
ffffffff80206fda: 26 75                	ld	a0, 104(sp)
ffffffff80206fdc: e6 65                	ld	a1, 88(sp)
ffffffff80206fde: 97 00 00 00          	auipc	ra, 0
ffffffff80206fe2: e7 80 80 f1          	jalr	-232(ra)
ffffffff80206fe6: aa e8                	sd	a0, 80(sp)
ffffffff80206fe8: 09 a0                	j	2
ffffffff80206fea: 06 75                	ld	a0, 96(sp)
ffffffff80206fec: c6 65                	ld	a1, 80(sp)
ffffffff80206fee: 33 06 b5 00          	add	a2, a0, a1
ffffffff80206ff2: b2 e1                	sd	a2, 192(sp)
ffffffff80206ff4: 32 85                	add	a0, zero, a2
ffffffff80206ff6: c6 75                	ld	a1, 112(sp)
ffffffff80206ff8: b2 e4                	sd	a2, 72(sp)
ffffffff80206ffa: 97 f0 ff ff          	auipc	ra, 1048575
ffffffff80206ffe: e7 80 40 7f          	jalr	2036(ra)
ffffffff80207002: aa e0                	sd	a0, 64(sp)
ffffffff80207004: 2e fc                	sd	a1, 56(sp)
ffffffff80207006: 09 a0                	j	2
ffffffff80207008: 06 65                	ld	a0, 64(sp)
ffffffff8020700a: e2 75                	ld	a1, 56(sp)
ffffffff8020700c: 97 00 00 00          	auipc	ra, 0
ffffffff80207010: e7 80 80 0f          	jalr	248(ra)
ffffffff80207014: 2a f8                	sd	a0, 48(sp)
ffffffff80207016: 2e f4                	sd	a1, 40(sp)
ffffffff80207018: 09 a0                	j	2
ffffffff8020701a: 42 75                	ld	a0, 48(sp)
ffffffff8020701c: a2 75                	ld	a1, 40(sp)
ffffffff8020701e: 97 00 00 00          	auipc	ra, 0
ffffffff80207022: e7 80 60 2f          	jalr	758(ra)
ffffffff80207026: 2a e1                	sd	a0, 128(sp)
ffffffff80207028: 2e e5                	sd	a1, 136(sp)
ffffffff8020702a: 09 a0                	j	2
ffffffff8020702c: 0a 65                	ld	a0, 128(sp)
ffffffff8020702e: 81 45                	mv	a1, zero
ffffffff80207030: 63 04 b5 00          	beq	a0, a1, 8
ffffffff80207034: 09 a0                	j	2
ffffffff80207036: 31 a8                	j	28
ffffffff80207038: 2a 65                	ld	a0, 136(sp)
ffffffff8020703a: aa e5                	sd	a0, 200(sp)
ffffffff8020703c: aa e9                	sd	a0, 208(sp)
ffffffff8020703e: a6 75                	ld	a1, 104(sp)
ffffffff80207040: 2a f0                	sd	a0, 32(sp)
ffffffff80207042: 2e 85                	add	a0, zero, a1
ffffffff80207044: 97 00 00 00          	auipc	ra, 0
ffffffff80207048: e7 80 00 f5          	jalr	-176(ra)
ffffffff8020704c: 2a ec                	sd	a0, 24(sp)
ffffffff8020704e: 0d a0                	j	34
ffffffff80207050: 00 00                	unimp	
ffffffff80207052: 97 00 00 00          	auipc	ra, 0
ffffffff80207056: e7 80 e0 3c          	jalr	974(ra)
ffffffff8020705a: 21 a0                	j	8
ffffffff8020705c: ee 60                	ld	ra, 216(sp)
ffffffff8020705e: 2d 61                	addi	sp, sp, 224
ffffffff80207060: 82 80                	ret
ffffffff80207062: 66 75                	ld	a0, 120(sp)
ffffffff80207064: 97 00 00 00          	auipc	ra, 0
ffffffff80207068: e7 80 80 28          	jalr	648(ra)
ffffffff8020706c: 09 a0                	j	2
ffffffff8020706e: fd b7                	j	-18
ffffffff80207070: 02 75                	ld	a0, 32(sp)
ffffffff80207072: e2 65                	ld	a1, 24(sp)
ffffffff80207074: 97 00 00 00          	auipc	ra, 0
ffffffff80207078: e7 80 00 ef          	jalr	-272(ra)
ffffffff8020707c: 2a e8                	sd	a0, 16(sp)
ffffffff8020707e: 2e e4                	sd	a1, 8(sp)
ffffffff80207080: 09 a0                	j	2
ffffffff80207082: 42 65                	ld	a0, 16(sp)
ffffffff80207084: 2a e9                	sd	a0, 144(sp)
ffffffff80207086: a2 65                	ld	a1, 8(sp)
ffffffff80207088: 2e ed                	sd	a1, 152(sp)
ffffffff8020708a: 26 66                	ld	a2, 72(sp)
ffffffff8020708c: 32 f1                	sd	a2, 160(sp)
ffffffff8020708e: e6 76                	ld	a3, 120(sp)
ffffffff80207090: 90 ea                	sd	a2, 16(a3)
ffffffff80207092: 8c e6                	sd	a1, 8(a3)
ffffffff80207094: 88 e2                	sd	a0, 0(a3)
ffffffff80207096: d9 b7                	j	-58

ffffffff80207098 _ZN4core5alloc6layout6Layout8dangling17h40f6ef2fa33dfc3bE:
ffffffff80207098: 01 11                	addi	sp, sp, -32
ffffffff8020709a: 06 ec                	sd	ra, 24(sp)
ffffffff8020709c: 2a e8                	sd	a0, 16(sp)
ffffffff8020709e: 97 00 00 00          	auipc	ra, 0
ffffffff802070a2: e7 80 60 ef          	jalr	-266(ra)
ffffffff802070a6: 2a e4                	sd	a0, 8(sp)
ffffffff802070a8: 09 a0                	j	2
ffffffff802070aa: 22 65                	ld	a0, 8(sp)
ffffffff802070ac: 97 10 00 00          	auipc	ra, 1
ffffffff802070b0: e7 80 60 9f          	jalr	-1546(ra)
ffffffff802070b4: 2a e0                	sd	a0, 0(sp)
ffffffff802070b6: 09 a0                	j	2
ffffffff802070b8: 02 65                	ld	a0, 0(sp)
ffffffff802070ba: e2 60                	ld	ra, 24(sp)
ffffffff802070bc: 05 61                	addi	sp, sp, 32
ffffffff802070be: 82 80                	ret

ffffffff802070c0 _ZN4core6option15Option$LT$T$GT$5ok_or17h073c82462e95570bE:
ffffffff802070c0: 79 71                	addi	sp, sp, -48
ffffffff802070c2: 2a e4                	sd	a0, 8(sp)
ffffffff802070c4: 85 45                	addi	a1, zero, 1
ffffffff802070c6: a3 0f b1 00          	sb	a1, 31(sp)
ffffffff802070ca: b3 35 a0 00          	snez	a1, a0
ffffffff802070ce: 01 46                	mv	a2, zero
ffffffff802070d0: 63 04 c5 00          	beq	a0, a2, 8
ffffffff802070d4: 09 a0                	j	2
ffffffff802070d6: 39 a0                	j	14
ffffffff802070d8: 01 45                	mv	a0, zero
ffffffff802070da: a3 0f a1 00          	sb	a0, 31(sp)
ffffffff802070de: 2a e8                	sd	a0, 16(sp)
ffffffff802070e0: 31 a0                	j	12
ffffffff802070e2: 00 00                	unimp	
ffffffff802070e4: 22 65                	ld	a0, 8(sp)
ffffffff802070e6: 2a f4                	sd	a0, 40(sp)
ffffffff802070e8: 2a e8                	sd	a0, 16(sp)
ffffffff802070ea: 09 a0                	j	2
ffffffff802070ec: 03 45 f1 01          	lbu	a0, 31(sp)
ffffffff802070f0: 05 89                	andi	a0, a0, 1
ffffffff802070f2: 09 e5                	bnez	a0, 10
ffffffff802070f4: 09 a0                	j	2
ffffffff802070f6: 42 65                	ld	a0, 16(sp)
ffffffff802070f8: 45 61                	addi	sp, sp, 48
ffffffff802070fa: 82 80                	ret
ffffffff802070fc: 01 45                	mv	a0, zero
ffffffff802070fe: a3 0f a1 00          	sb	a0, 31(sp)
ffffffff80207102: d5 bf                	j	-12

ffffffff80207104 _ZN4core6option15Option$LT$T$GT$5ok_or17h33e1da606572d0efE:
ffffffff80207104: 39 71                	addi	sp, sp, -64
ffffffff80207106: 2a e4                	sd	a0, 8(sp)
ffffffff80207108: 2e e8                	sd	a1, 16(sp)
ffffffff8020710a: 85 45                	addi	a1, zero, 1
ffffffff8020710c: a3 07 b1 02          	sb	a1, 47(sp)
ffffffff80207110: aa 85                	add	a1, zero, a0
ffffffff80207112: 01 46                	mv	a2, zero
ffffffff80207114: 63 04 c5 00          	beq	a0, a2, 8
ffffffff80207118: 09 a0                	j	2
ffffffff8020711a: 01 a8                	j	16
ffffffff8020711c: 01 45                	mv	a0, zero
ffffffff8020711e: a3 07 a1 02          	sb	a0, 47(sp)
ffffffff80207122: 05 45                	addi	a0, zero, 1
ffffffff80207124: 2a ec                	sd	a0, 24(sp)
ffffffff80207126: 01 a8                	j	16
ffffffff80207128: 00 00                	unimp	
ffffffff8020712a: 42 65                	ld	a0, 16(sp)
ffffffff8020712c: 2a fc                	sd	a0, 56(sp)
ffffffff8020712e: 2a f0                	sd	a0, 32(sp)
ffffffff80207130: 01 45                	mv	a0, zero
ffffffff80207132: 2a ec                	sd	a0, 24(sp)
ffffffff80207134: 09 a0                	j	2
ffffffff80207136: 03 45 f1 02          	lbu	a0, 47(sp)
ffffffff8020713a: 05 89                	andi	a0, a0, 1
ffffffff8020713c: 11 e5                	bnez	a0, 12
ffffffff8020713e: 09 a0                	j	2
ffffffff80207140: 62 65                	ld	a0, 24(sp)
ffffffff80207142: 82 75                	ld	a1, 32(sp)
ffffffff80207144: 21 61                	addi	sp, sp, 64
ffffffff80207146: 82 80                	ret
ffffffff80207148: 01 45                	mv	a0, zero
ffffffff8020714a: a3 07 a1 02          	sb	a0, 47(sp)
ffffffff8020714e: cd bf                	j	-14

ffffffff80207150 _ZN4core6option15Option$LT$T$GT$7is_none17hc8050ed4ab48b072E:
ffffffff80207150: 01 11                	addi	sp, sp, -32
ffffffff80207152: 06 ec                	sd	ra, 24(sp)
ffffffff80207154: 2a e8                	sd	a0, 16(sp)
ffffffff80207156: 97 00 00 00          	auipc	ra, 0
ffffffff8020715a: e7 80 80 01          	jalr	24(ra)
ffffffff8020715e: 2a e4                	sd	a0, 8(sp)
ffffffff80207160: 09 a0                	j	2
ffffffff80207162: 22 65                	ld	a0, 8(sp)
ffffffff80207164: 13 45 15 00          	xori	a0, a0, 1
ffffffff80207168: e2 60                	ld	ra, 24(sp)
ffffffff8020716a: 05 61                	addi	sp, sp, 32
ffffffff8020716c: 82 80                	ret

ffffffff8020716e _ZN4core6option15Option$LT$T$GT$7is_some17h9f33029034b05628E:
ffffffff8020716e: 41 11                	addi	sp, sp, -16
ffffffff80207170: 2a e4                	sd	a0, 8(sp)
ffffffff80207172: 08 61                	ld	a0, 0(a0)
ffffffff80207174: 85 45                	addi	a1, zero, 1
ffffffff80207176: 63 07 b5 00          	beq	a0, a1, 14
ffffffff8020717a: 09 a0                	j	2
ffffffff8020717c: 01 45                	mv	a0, zero
ffffffff8020717e: a3 03 a1 00          	sb	a0, 7(sp)
ffffffff80207182: 29 a0                	j	10
ffffffff80207184: 05 45                	addi	a0, zero, 1
ffffffff80207186: a3 03 a1 00          	sb	a0, 7(sp)
ffffffff8020718a: 09 a0                	j	2
ffffffff8020718c: 03 45 71 00          	lbu	a0, 7(sp)
ffffffff80207190: 41 01                	addi	sp, sp, 16
ffffffff80207192: 82 80                	ret

ffffffff80207194 _ZN4core6result19Result$LT$T$C$E$GT$14unwrap_or_else17h05264a41299b8777E:
ffffffff80207194: 5d 71                	addi	sp, sp, -80
ffffffff80207196: 86 e4                	sd	ra, 72(sp)
ffffffff80207198: 2a e0                	sd	a0, 0(sp)
ffffffff8020719a: 2e e4                	sd	a1, 8(sp)
ffffffff8020719c: 05 45                	addi	a0, zero, 1
ffffffff8020719e: a3 03 a1 02          	sb	a0, 39(sp)
ffffffff802071a2: 13 b5 15 00          	seqz	a0, a1
ffffffff802071a6: 01 46                	mv	a2, zero
ffffffff802071a8: 63 9e c5 00          	bne	a1, a2, 28
ffffffff802071ac: 09 a0                	j	2
ffffffff802071ae: 01 45                	mv	a0, zero
ffffffff802071b0: a3 03 a1 02          	sb	a0, 39(sp)
ffffffff802071b4: 97 00 00 00          	auipc	ra, 0
ffffffff802071b8: e7 80 a0 b7          	jalr	-1158(ra)
ffffffff802071bc: 2a e8                	sd	a0, 16(sp)
ffffffff802071be: 2e ec                	sd	a1, 24(sp)
ffffffff802071c0: 09 a8                	j	18
ffffffff802071c2: 00 00                	unimp	
ffffffff802071c4: 02 65                	ld	a0, 0(sp)
ffffffff802071c6: a2 65                	ld	a1, 8(sp)
ffffffff802071c8: 2a fc                	sd	a0, 56(sp)
ffffffff802071ca: ae e0                	sd	a1, 64(sp)
ffffffff802071cc: 2a e8                	sd	a0, 16(sp)
ffffffff802071ce: 2e ec                	sd	a1, 24(sp)
ffffffff802071d0: 11 a0                	j	4
ffffffff802071d2: 09 a0                	j	2
ffffffff802071d4: 03 45 71 02          	lbu	a0, 39(sp)
ffffffff802071d8: 05 89                	andi	a0, a0, 1
ffffffff802071da: 19 e5                	bnez	a0, 14
ffffffff802071dc: 09 a0                	j	2
ffffffff802071de: 42 65                	ld	a0, 16(sp)
ffffffff802071e0: e2 65                	ld	a1, 24(sp)
ffffffff802071e2: a6 60                	ld	ra, 72(sp)
ffffffff802071e4: 61 61                	addi	sp, sp, 80
ffffffff802071e6: 82 80                	ret
ffffffff802071e8: 01 45                	mv	a0, zero
ffffffff802071ea: a3 03 a1 02          	sb	a0, 39(sp)
ffffffff802071ee: c5 bf                	j	-16

ffffffff802071f0 _ZN4core6result19Result$LT$T$C$E$GT$14unwrap_or_else17hc5839820825203c2E:
ffffffff802071f0: 1d 71                	addi	sp, sp, -96
ffffffff802071f2: 86 ec                	sd	ra, 88(sp)
ffffffff802071f4: 2a e8                	sd	a0, 16(sp)
ffffffff802071f6: 2e ec                	sd	a1, 24(sp)
ffffffff802071f8: 32 fc                	sd	a2, 56(sp)
ffffffff802071fa: 85 45                	addi	a1, zero, 1
ffffffff802071fc: a3 0b b1 02          	sb	a1, 55(sp)
ffffffff80207200: 93 35 15 00          	seqz	a1, a0
ffffffff80207204: 81 46                	mv	a3, zero
ffffffff80207206: 32 e4                	sd	a2, 8(sp)
ffffffff80207208: 63 1f d5 00          	bne	a0, a3, 30
ffffffff8020720c: 09 a0                	j	2
ffffffff8020720e: 01 45                	mv	a0, zero
ffffffff80207210: a3 0b a1 02          	sb	a0, 55(sp)
ffffffff80207214: 22 65                	ld	a0, 8(sp)
ffffffff80207216: 97 00 00 00          	auipc	ra, 0
ffffffff8020721a: e7 80 40 b2          	jalr	-1244(ra)
ffffffff8020721e: 2a f0                	sd	a0, 32(sp)
ffffffff80207220: 2e f4                	sd	a1, 40(sp)
ffffffff80207222: 09 a8                	j	18
ffffffff80207224: 00 00                	unimp	
ffffffff80207226: 42 65                	ld	a0, 16(sp)
ffffffff80207228: e2 65                	ld	a1, 24(sp)
ffffffff8020722a: aa e4                	sd	a0, 72(sp)
ffffffff8020722c: ae e8                	sd	a1, 80(sp)
ffffffff8020722e: 2a f0                	sd	a0, 32(sp)
ffffffff80207230: 2e f4                	sd	a1, 40(sp)
ffffffff80207232: 11 a0                	j	4
ffffffff80207234: 09 a0                	j	2
ffffffff80207236: 03 45 71 03          	lbu	a0, 55(sp)
ffffffff8020723a: 05 89                	andi	a0, a0, 1
ffffffff8020723c: 19 e5                	bnez	a0, 14
ffffffff8020723e: 09 a0                	j	2
ffffffff80207240: 02 75                	ld	a0, 32(sp)
ffffffff80207242: a2 75                	ld	a1, 40(sp)
ffffffff80207244: e6 60                	ld	ra, 88(sp)
ffffffff80207246: 25 61                	addi	sp, sp, 96
ffffffff80207248: 82 80                	ret
ffffffff8020724a: 01 45                	mv	a0, zero
ffffffff8020724c: a3 0b a1 02          	sb	a0, 55(sp)
ffffffff80207250: c5 bf                	j	-16

ffffffff80207252 _ZN4core6result19Result$LT$T$C$E$GT$14unwrap_or_else17hef0467ae82615ac4E:
ffffffff80207252: 5d 71                	addi	sp, sp, -80
ffffffff80207254: 86 e4                	sd	ra, 72(sp)
ffffffff80207256: 85 45                	addi	a1, zero, 1
ffffffff80207258: a3 03 b1 02          	sb	a1, 39(sp)
ffffffff8020725c: 0c 61                	ld	a1, 0(a0)
ffffffff8020725e: 01 46                	mv	a2, zero
ffffffff80207260: 2a e0                	sd	a0, 0(sp)
ffffffff80207262: 63 85 c5 02          	beq	a1, a2, 42
ffffffff80207266: 09 a0                	j	2
ffffffff80207268: 02 65                	ld	a0, 0(sp)
ffffffff8020726a: 0c 65                	ld	a1, 8(a0)
ffffffff8020726c: 10 69                	ld	a2, 16(a0)
ffffffff8020726e: 2e fc                	sd	a1, 56(sp)
ffffffff80207270: b2 e0                	sd	a2, 64(sp)
ffffffff80207272: 81 46                	mv	a3, zero
ffffffff80207274: a3 03 d1 02          	sb	a3, 39(sp)
ffffffff80207278: 2e e8                	sd	a1, 16(sp)
ffffffff8020727a: 32 ec                	sd	a2, 24(sp)
ffffffff8020727c: 2e 85                	add	a0, zero, a1
ffffffff8020727e: b2 85                	add	a1, zero, a2
ffffffff80207280: 97 00 00 00          	auipc	ra, 0
ffffffff80207284: e7 80 e0 a9          	jalr	-1378(ra)
ffffffff80207288: 19 a0                	j	6
ffffffff8020728a: 00 00                	unimp	
ffffffff8020728c: 11 a0                	j	4
ffffffff8020728e: 09 a0                	j	2
ffffffff80207290: 03 45 71 02          	lbu	a0, 39(sp)
ffffffff80207294: 05 89                	andi	a0, a0, 1
ffffffff80207296: 09 e5                	bnez	a0, 10
ffffffff80207298: 09 a0                	j	2
ffffffff8020729a: a6 60                	ld	ra, 72(sp)
ffffffff8020729c: 61 61                	addi	sp, sp, 80
ffffffff8020729e: 82 80                	ret
ffffffff802072a0: 01 45                	mv	a0, zero
ffffffff802072a2: a3 03 a1 02          	sb	a0, 39(sp)
ffffffff802072a6: d5 bf                	j	-12

ffffffff802072a8 _ZN4core6result19Result$LT$T$C$E$GT$6unwrap17hd052deb73ea884a0E:
ffffffff802072a8: 79 71                	addi	sp, sp, -48
ffffffff802072aa: 2a e4                	sd	a0, 8(sp)
ffffffff802072ac: 2e e8                	sd	a1, 16(sp)
ffffffff802072ae: 13 b5 15 00          	seqz	a0, a1
ffffffff802072b2: 81 46                	mv	a3, zero
ffffffff802072b4: 32 e0                	sd	a2, 0(sp)
ffffffff802072b6: 63 95 d5 02          	bne	a1, a3, 42
ffffffff802072ba: 09 a0                	j	2

ffffffff802072bc .LBB3_5:
ffffffff802072bc: 17 65 00 00          	auipc	a0, 6
ffffffff802072c0: 13 05 45 98          	addi	a0, a0, -1660

ffffffff802072c4 .LBB3_6:
ffffffff802072c4: 97 66 00 00          	auipc	a3, 6
ffffffff802072c8: 93 86 c6 9a          	addi	a3, a3, -1620
ffffffff802072cc: 93 05 b0 02          	addi	a1, zero, 43
ffffffff802072d0: 30 08                	addi	a2, sp, 24
ffffffff802072d2: 02 67                	ld	a4, 0(sp)
ffffffff802072d4: 97 10 00 00          	auipc	ra, 1
ffffffff802072d8: e7 80 40 53          	jalr	1332(ra)
ffffffff802072dc: 00 00                	unimp	
ffffffff802072de: 00 00                	unimp	
ffffffff802072e0: 22 65                	ld	a0, 8(sp)
ffffffff802072e2: c2 65                	ld	a1, 16(sp)
ffffffff802072e4: 2a f0                	sd	a0, 32(sp)
ffffffff802072e6: 2e f4                	sd	a1, 40(sp)
ffffffff802072e8: 45 61                	addi	sp, sp, 48
ffffffff802072ea: 82 80                	ret

ffffffff802072ec _ZN73_$LT$core..result..Result$LT$T$C$E$GT$$u20$as$u20$core..ops..try..Try$GT$10from_error17h060536680022411aE:
ffffffff802072ec: 41 11                	addi	sp, sp, -16
ffffffff802072ee: 81 45                	mv	a1, zero
ffffffff802072f0: 0c e5                	sd	a1, 8(a0)
ffffffff802072f2: 41 01                	addi	sp, sp, 16
ffffffff802072f4: 82 80                	ret

ffffffff802072f6 _ZN73_$LT$core..result..Result$LT$T$C$E$GT$$u20$as$u20$core..ops..try..Try$GT$10from_error17h2074cae2dfb906cdE:
ffffffff802072f6: 01 11                	addi	sp, sp, -32
ffffffff802072f8: 01 45                	mv	a0, zero
ffffffff802072fa: 2a e4                	sd	a0, 8(sp)
ffffffff802072fc: c2 65                	ld	a1, 16(sp)
ffffffff802072fe: 05 61                	addi	sp, sp, 32
ffffffff80207300: 82 80                	ret

ffffffff80207302 _ZN73_$LT$core..result..Result$LT$T$C$E$GT$$u20$as$u20$core..ops..try..Try$GT$10from_error17hacbcc24dc2414e80E:
ffffffff80207302: 01 11                	addi	sp, sp, -32
ffffffff80207304: 01 45                	mv	a0, zero
ffffffff80207306: 2a e8                	sd	a0, 16(sp)
ffffffff80207308: a2 65                	ld	a1, 8(sp)
ffffffff8020730a: 2a e0                	sd	a0, 0(sp)
ffffffff8020730c: 2e 85                	add	a0, zero, a1
ffffffff8020730e: 82 65                	ld	a1, 0(sp)
ffffffff80207310: 05 61                	addi	sp, sp, 32
ffffffff80207312: 82 80                	ret

ffffffff80207314 _ZN73_$LT$core..result..Result$LT$T$C$E$GT$$u20$as$u20$core..ops..try..Try$GT$11into_result17h334ff79f654b1631E:
ffffffff80207314: 41 11                	addi	sp, sp, -16
ffffffff80207316: 2a e0                	sd	a0, 0(sp)
ffffffff80207318: 2e e4                	sd	a1, 8(sp)
ffffffff8020731a: 41 01                	addi	sp, sp, 16
ffffffff8020731c: 82 80                	ret

ffffffff8020731e _ZN73_$LT$core..result..Result$LT$T$C$E$GT$$u20$as$u20$core..ops..try..Try$GT$11into_result17h5692130a69460a6dE:
ffffffff8020731e: 90 69                	ld	a2, 16(a1)
ffffffff80207320: 10 e9                	sd	a2, 16(a0)
ffffffff80207322: 90 65                	ld	a2, 8(a1)
ffffffff80207324: 10 e5                	sd	a2, 8(a0)
ffffffff80207326: 8c 61                	ld	a1, 0(a1)
ffffffff80207328: 0c e1                	sd	a1, 0(a0)
ffffffff8020732a: 82 80                	ret

ffffffff8020732c _ZN73_$LT$core..result..Result$LT$T$C$E$GT$$u20$as$u20$core..ops..try..Try$GT$11into_result17h7fa11c512b4903d8E:
ffffffff8020732c: 41 11                	addi	sp, sp, -16
ffffffff8020732e: 2a e4                	sd	a0, 8(sp)
ffffffff80207330: 41 01                	addi	sp, sp, 16
ffffffff80207332: 82 80                	ret

ffffffff80207334 _ZN4core5alloc6layout10size_align17ha94b6aace0bd9677E:
ffffffff80207334: 79 71                	addi	sp, sp, -48
ffffffff80207336: 05 45                	addi	a0, zero, 1
ffffffff80207338: 2a f0                	sd	a0, 32(sp)
ffffffff8020733a: 2a e4                	sd	a0, 8(sp)
ffffffff8020733c: 09 a0                	j	2
ffffffff8020733e: 05 45                	addi	a0, zero, 1
ffffffff80207340: 2a f4                	sd	a0, 40(sp)
ffffffff80207342: 2a e0                	sd	a0, 0(sp)
ffffffff80207344: 09 a0                	j	2
ffffffff80207346: 22 65                	ld	a0, 8(sp)
ffffffff80207348: 2a e8                	sd	a0, 16(sp)
ffffffff8020734a: 82 65                	ld	a1, 0(sp)
ffffffff8020734c: 2e ec                	sd	a1, 24(sp)
ffffffff8020734e: 45 61                	addi	sp, sp, 48
ffffffff80207350: 82 80                	ret

ffffffff80207352 _ZN4core5alloc6layout6Layout3new17h9f3212a930b7b453E:
ffffffff80207352: 39 71                	addi	sp, sp, -64
ffffffff80207354: 06 fc                	sd	ra, 56(sp)
ffffffff80207356: 97 00 00 00          	auipc	ra, 0
ffffffff8020735a: e7 80 e0 fd          	jalr	-34(ra)
ffffffff8020735e: 2a f0                	sd	a0, 32(sp)
ffffffff80207360: 2e ec                	sd	a1, 24(sp)
ffffffff80207362: 09 a0                	j	2
ffffffff80207364: 02 75                	ld	a0, 32(sp)
ffffffff80207366: 2a f4                	sd	a0, 40(sp)
ffffffff80207368: e2 65                	ld	a1, 24(sp)
ffffffff8020736a: 2e f8                	sd	a1, 48(sp)
ffffffff8020736c: 97 00 00 00          	auipc	ra, 0
ffffffff80207370: e7 80 80 bf          	jalr	-1032(ra)
ffffffff80207374: 2a e8                	sd	a0, 16(sp)
ffffffff80207376: 2e e4                	sd	a1, 8(sp)
ffffffff80207378: 09 a0                	j	2
ffffffff8020737a: 42 65                	ld	a0, 16(sp)
ffffffff8020737c: a2 65                	ld	a1, 8(sp)
ffffffff8020737e: e2 70                	ld	ra, 56(sp)
ffffffff80207380: 21 61                	addi	sp, sp, 64
ffffffff80207382: 82 80                	ret

ffffffff80207384 _ZN4core5alloc6layout6Layout5array17h5340a63258e385f2E:
ffffffff80207384: 55 71                	addi	sp, sp, -208
ffffffff80207386: 86 e5                	sd	ra, 200(sp)
ffffffff80207388: 2a f9                	sd	a0, 176(sp)
ffffffff8020738a: 2a ec                	sd	a0, 24(sp)
ffffffff8020738c: 97 00 00 00          	auipc	ra, 0
ffffffff80207390: e7 80 60 fc          	jalr	-58(ra)
ffffffff80207394: 2a e5                	sd	a0, 136(sp)
ffffffff80207396: 2e e9                	sd	a1, 144(sp)
ffffffff80207398: 09 a0                	j	2
ffffffff8020739a: 88 18                	addi	a0, sp, 112
ffffffff8020739c: 2c 01                	addi	a1, sp, 136
ffffffff8020739e: 62 66                	ld	a2, 24(sp)
ffffffff802073a0: 97 00 00 00          	auipc	ra, 0
ffffffff802073a4: e7 80 00 c1          	jalr	-1008(ra)
ffffffff802073a8: 09 a0                	j	2
ffffffff802073aa: a8 08                	addi	a0, sp, 88
ffffffff802073ac: 8c 18                	addi	a1, sp, 112
ffffffff802073ae: 97 00 00 00          	auipc	ra, 0
ffffffff802073b2: e7 80 00 f7          	jalr	-144(ra)
ffffffff802073b6: 09 a0                	j	2
ffffffff802073b8: 06 75                	ld	a0, 96(sp)
ffffffff802073ba: 93 35 15 00          	seqz	a1, a0
ffffffff802073be: 01 46                	mv	a2, zero
ffffffff802073c0: 63 14 c5 00          	bne	a0, a2, 8
ffffffff802073c4: 09 a0                	j	2
ffffffff802073c6: 35 a0                	j	44
ffffffff802073c8: 26 75                	ld	a0, 104(sp)
ffffffff802073ca: 2a f5                	sd	a0, 168(sp)
ffffffff802073cc: 86 75                	ld	a1, 96(sp)
ffffffff802073ce: 2e f1                	sd	a1, 160(sp)
ffffffff802073d0: 66 66                	ld	a2, 88(sp)
ffffffff802073d2: 32 ed                	sd	a2, 152(sp)
ffffffff802073d4: b2 e0                	sd	a2, 64(sp)
ffffffff802073d6: ae e4                	sd	a1, 72(sp)
ffffffff802073d8: aa e8                	sd	a0, 80(sp)
ffffffff802073da: 32 f8                	sd	a2, 48(sp)
ffffffff802073dc: 2e fc                	sd	a1, 56(sp)
ffffffff802073de: aa e1                	sd	a0, 192(sp)
ffffffff802073e0: 08 18                	addi	a0, sp, 48
ffffffff802073e2: 97 00 00 00          	auipc	ra, 0
ffffffff802073e6: e7 80 a0 a2          	jalr	-1494(ra)
ffffffff802073ea: 2a e8                	sd	a0, 16(sp)
ffffffff802073ec: 2e e4                	sd	a1, 8(sp)
ffffffff802073ee: 25 a0                	j	40
ffffffff802073f0: 00 00                	unimp	
ffffffff802073f2: 97 00 00 00          	auipc	ra, 0
ffffffff802073f6: e7 80 e0 02          	jalr	46(ra)
ffffffff802073fa: 31 a0                	j	12
ffffffff802073fc: 02 75                	ld	a0, 32(sp)
ffffffff802073fe: a2 75                	ld	a1, 40(sp)
ffffffff80207400: ae 60                	ld	ra, 200(sp)
ffffffff80207402: 69 61                	addi	sp, sp, 208
ffffffff80207404: 82 80                	ret
ffffffff80207406: 97 00 00 00          	auipc	ra, 0
ffffffff8020740a: e7 80 c0 ef          	jalr	-260(ra)
ffffffff8020740e: 2a f0                	sd	a0, 32(sp)
ffffffff80207410: 2e f4                	sd	a1, 40(sp)
ffffffff80207412: 09 a0                	j	2
ffffffff80207414: e5 b7                	j	-24
ffffffff80207416: 42 65                	ld	a0, 16(sp)
ffffffff80207418: 2a f0                	sd	a0, 32(sp)
ffffffff8020741a: a2 65                	ld	a1, 8(sp)
ffffffff8020741c: 2e f4                	sd	a1, 40(sp)
ffffffff8020741e: f9 bf                	j	-34

ffffffff80207420 _ZN50_$LT$T$u20$as$u20$core..convert..From$LT$T$GT$$GT$4from17h7780d75575046b11E:
ffffffff80207420: 41 11                	addi	sp, sp, -16
ffffffff80207422: 41 01                	addi	sp, sp, 16
ffffffff80207424: 82 80                	ret

ffffffff80207426 _ZN5alloc7raw_vec11alloc_guard17hd29b5b4dfb9611b4E:
ffffffff80207426: 39 71                	addi	sp, sp, -64
ffffffff80207428: 2e f8                	sd	a1, 48(sp)
ffffffff8020742a: 21 46                	addi	a2, zero, 8
ffffffff8020742c: 32 fc                	sd	a2, 56(sp)
ffffffff8020742e: 2e e8                	sd	a1, 16(sp)
ffffffff80207430: 2a e4                	sd	a0, 8(sp)
ffffffff80207432: 32 e0                	sd	a2, 0(sp)
ffffffff80207434: 1d a0                	j	38
ffffffff80207436: 05 45                	addi	a0, zero, 1
ffffffff80207438: a3 0f a1 00          	sb	a0, 31(sp)
ffffffff8020743c: 11 a8                	j	20
ffffffff8020743e: 01 45                	mv	a0, zero
ffffffff80207440: a3 0f a1 00          	sb	a0, 31(sp)
ffffffff80207444: 31 a0                	j	12
ffffffff80207446: 01 45                	mv	a0, zero
ffffffff80207448: c2 65                	ld	a1, 16(sp)
ffffffff8020744a: e3 c6 a5 fe          	blt	a1, a0, -20
ffffffff8020744e: c5 bf                	j	-16
ffffffff80207450: 03 45 f1 01          	lbu	a0, 31(sp)
ffffffff80207454: 05 89                	andi	a0, a0, 1
ffffffff80207456: 19 e9                	bnez	a0, 22
ffffffff80207458: 31 a0                	j	12
ffffffff8020745a: 21 45                	addi	a0, zero, 8
ffffffff8020745c: 82 65                	ld	a1, 0(sp)
ffffffff8020745e: e3 e4 a5 fe          	bltu	a1, a0, -24
ffffffff80207462: f1 bf                	j	-36
ffffffff80207464: 01 45                	mv	a0, zero
ffffffff80207466: a2 65                	ld	a1, 8(sp)
ffffffff80207468: 88 e1                	sd	a0, 0(a1)
ffffffff8020746a: 11 a8                	j	20
ffffffff8020746c: 01 45                	mv	a0, zero
ffffffff8020746e: 2a f4                	sd	a0, 40(sp)
ffffffff80207470: 82 75                	ld	a1, 32(sp)
ffffffff80207472: 22 66                	ld	a2, 8(sp)
ffffffff80207474: 0c e6                	sd	a1, 8(a2)
ffffffff80207476: 08 ea                	sd	a0, 16(a2)
ffffffff80207478: 05 45                	addi	a0, zero, 1
ffffffff8020747a: 08 e2                	sd	a0, 0(a2)
ffffffff8020747c: 09 a0                	j	2
ffffffff8020747e: 21 61                	addi	sp, sp, 64
ffffffff80207480: 82 80                	ret

ffffffff80207482 _ZN4core5clone5impls54_$LT$impl$u20$core..clone..Clone$u20$for$u20$usize$GT$5clone17h3caa5f7aae1424cfE:
ffffffff80207482: 41 11                	addi	sp, sp, -16
ffffffff80207484: 2a e4                	sd	a0, 8(sp)
ffffffff80207486: 08 61                	ld	a0, 0(a0)
ffffffff80207488: 41 01                	addi	sp, sp, 16
ffffffff8020748a: 82 80                	ret

ffffffff8020748c _ZN4core3ptr7mut_ptr31_$LT$impl$u20$$BP$mut$u20$T$GT$3add17hba7e4d04252ee9d9E:
ffffffff8020748c: 01 11                	addi	sp, sp, -32
ffffffff8020748e: 06 ec                	sd	ra, 24(sp)
ffffffff80207490: 2a e4                	sd	a0, 8(sp)
ffffffff80207492: 2e e8                	sd	a1, 16(sp)
ffffffff80207494: 97 00 00 00          	auipc	ra, 0
ffffffff80207498: e7 80 40 01          	jalr	20(ra)
ffffffff8020749c: 2a e0                	sd	a0, 0(sp)
ffffffff8020749e: 09 a0                	j	2
ffffffff802074a0: 02 65                	ld	a0, 0(sp)
ffffffff802074a2: e2 60                	ld	ra, 24(sp)
ffffffff802074a4: 05 61                	addi	sp, sp, 32
ffffffff802074a6: 82 80                	ret

ffffffff802074a8 _ZN4core3ptr7mut_ptr31_$LT$impl$u20$$BP$mut$u20$T$GT$6offset17h73334601b6641a68E:
ffffffff802074a8: 01 11                	addi	sp, sp, -32
ffffffff802074aa: 2a e4                	sd	a0, 8(sp)
ffffffff802074ac: 2e e8                	sd	a1, 16(sp)
ffffffff802074ae: 2e 95                	add	a0, a0, a1
ffffffff802074b0: 2a ec                	sd	a0, 24(sp)
ffffffff802074b2: 2a e0                	sd	a0, 0(sp)
ffffffff802074b4: 09 a0                	j	2
ffffffff802074b6: 02 65                	ld	a0, 0(sp)
ffffffff802074b8: 05 61                	addi	sp, sp, 32
ffffffff802074ba: 82 80                	ret

ffffffff802074bc _ZN4core3ptr7mut_ptr31_$LT$impl$u20$$BP$mut$u20$T$GT$7is_null17h5694b4d0ec1d0b09E:
ffffffff802074bc: 41 11                	addi	sp, sp, -16
ffffffff802074be: 2a e4                	sd	a0, 8(sp)
ffffffff802074c0: 2a e0                	sd	a0, 0(sp)
ffffffff802074c2: 09 a0                	j	2
ffffffff802074c4: 02 65                	ld	a0, 0(sp)
ffffffff802074c6: 13 35 15 00          	seqz	a0, a0
ffffffff802074ca: 41 01                	addi	sp, sp, 16
ffffffff802074cc: 82 80                	ret

ffffffff802074ce _ZN4core10intrinsics11write_bytes17h202c5f563ec0f05aE:
ffffffff802074ce: 79 71                	addi	sp, sp, -48
ffffffff802074d0: 06 f4                	sd	ra, 40(sp)
ffffffff802074d2: ae 86                	add	a3, zero, a1
ffffffff802074d4: 2a e8                	sd	a0, 16(sp)
ffffffff802074d6: a3 0f b1 00          	sb	a1, 31(sp)
ffffffff802074da: 32 f0                	sd	a2, 32(sp)
ffffffff802074dc: 36 e4                	sd	a3, 8(sp)
ffffffff802074de: 97 30 00 00          	auipc	ra, 3
ffffffff802074e2: e7 80 80 2f          	jalr	760(ra)
ffffffff802074e6: 09 a0                	j	2
ffffffff802074e8: a2 70                	ld	ra, 40(sp)
ffffffff802074ea: 45 61                	addi	sp, sp, 48
ffffffff802074ec: 82 80                	ret

ffffffff802074ee _ZN4core10intrinsics19copy_nonoverlapping17h4142a8f89894e6b2E:
ffffffff802074ee: 79 71                	addi	sp, sp, -48
ffffffff802074f0: 06 f4                	sd	ra, 40(sp)
ffffffff802074f2: 2a e8                	sd	a0, 16(sp)
ffffffff802074f4: 2e ec                	sd	a1, 24(sp)
ffffffff802074f6: 32 f0                	sd	a2, 32(sp)
ffffffff802074f8: 0e 06                	slli	a2, a2, 3
ffffffff802074fa: 2a e4                	sd	a0, 8(sp)
ffffffff802074fc: 2e 85                	add	a0, zero, a1
ffffffff802074fe: a2 65                	ld	a1, 8(sp)
ffffffff80207500: 97 30 00 00          	auipc	ra, 3
ffffffff80207504: e7 80 00 2c          	jalr	704(ra)
ffffffff80207508: 09 a0                	j	2
ffffffff8020750a: a2 70                	ld	ra, 40(sp)
ffffffff8020750c: 45 61                	addi	sp, sp, 48
ffffffff8020750e: 82 80                	ret

ffffffff80207510 _ZN4core10intrinsics19copy_nonoverlapping17hd520e3e9dab450d8E:
ffffffff80207510: 79 71                	addi	sp, sp, -48
ffffffff80207512: 06 f4                	sd	ra, 40(sp)
ffffffff80207514: 2a e8                	sd	a0, 16(sp)
ffffffff80207516: 2e ec                	sd	a1, 24(sp)
ffffffff80207518: 32 f0                	sd	a2, 32(sp)
ffffffff8020751a: 2a e4                	sd	a0, 8(sp)
ffffffff8020751c: 2e 85                	add	a0, zero, a1
ffffffff8020751e: a2 65                	ld	a1, 8(sp)
ffffffff80207520: 97 30 00 00          	auipc	ra, 3
ffffffff80207524: e7 80 00 2a          	jalr	672(ra)
ffffffff80207528: 09 a0                	j	2
ffffffff8020752a: a2 70                	ld	ra, 40(sp)
ffffffff8020752c: 45 61                	addi	sp, sp, 48
ffffffff8020752e: 82 80                	ret

ffffffff80207530 _ZN60_$LT$$u5b$T$u5d$$u20$as$u20$bit_field..BitArray$LT$T$GT$$GT$7get_bit17h4ddfc2697dafdbbeE:
ffffffff80207530: 1d 71                	addi	sp, sp, -96
ffffffff80207532: 86 ec                	sd	ra, 88(sp)
ffffffff80207534: 2a f8                	sd	a0, 48(sp)
ffffffff80207536: 2e fc                	sd	a1, 56(sp)
ffffffff80207538: b2 e0                	sd	a2, 64(sp)
ffffffff8020753a: 32 f4                	sd	a2, 40(sp)
ffffffff8020753c: 2e f0                	sd	a1, 32(sp)
ffffffff8020753e: 2a ec                	sd	a0, 24(sp)
ffffffff80207540: 09 a0                	j	2
ffffffff80207542: 22 75                	ld	a0, 40(sp)
ffffffff80207544: 93 55 35 00          	srli	a1, a0, 3
ffffffff80207548: ae e4                	sd	a1, 72(sp)
ffffffff8020754a: 2e e8                	sd	a1, 16(sp)
ffffffff8020754c: 09 a0                	j	2
ffffffff8020754e: 22 75                	ld	a0, 40(sp)
ffffffff80207550: 93 75 75 00          	andi	a1, a0, 7
ffffffff80207554: ae e8                	sd	a1, 80(sp)
ffffffff80207556: 42 66                	ld	a2, 16(sp)
ffffffff80207558: 82 76                	ld	a3, 32(sp)
ffffffff8020755a: 2e e4                	sd	a1, 8(sp)
ffffffff8020755c: 63 71 d6 02          	bgeu	a2, a3, 34
ffffffff80207560: 09 a0                	j	2
ffffffff80207562: 62 65                	ld	a0, 24(sp)
ffffffff80207564: c2 65                	ld	a1, 16(sp)
ffffffff80207566: 2e 95                	add	a0, a0, a1
ffffffff80207568: a2 65                	ld	a1, 8(sp)
ffffffff8020756a: 97 00 00 00          	auipc	ra, 0
ffffffff8020756e: e7 80 40 09          	jalr	148(ra)
ffffffff80207572: 2a e0                	sd	a0, 0(sp)
ffffffff80207574: 09 a0                	j	2
ffffffff80207576: 02 65                	ld	a0, 0(sp)
ffffffff80207578: e6 60                	ld	ra, 88(sp)
ffffffff8020757a: 25 61                	addi	sp, sp, 96
ffffffff8020757c: 82 80                	ret

ffffffff8020757e .LBB0_6:
ffffffff8020757e: 17 56 00 00          	auipc	a2, 5
ffffffff80207582: 13 06 26 77          	addi	a2, a2, 1906
ffffffff80207586: 42 65                	ld	a0, 16(sp)
ffffffff80207588: 82 75                	ld	a1, 32(sp)
ffffffff8020758a: 97 10 00 00          	auipc	ra, 1
ffffffff8020758e: e7 80 a0 30          	jalr	778(ra)
ffffffff80207592: 00 00                	unimp	

ffffffff80207594 _ZN60_$LT$$u5b$T$u5d$$u20$as$u20$bit_field..BitArray$LT$T$GT$$GT$7set_bit17h7ae683d1de565244E:
ffffffff80207594: 59 71                	addi	sp, sp, -112
ffffffff80207596: 86 f4                	sd	ra, 104(sp)
ffffffff80207598: 36 87                	add	a4, zero, a3
ffffffff8020759a: 2a fc                	sd	a0, 56(sp)
ffffffff8020759c: ae e0                	sd	a1, 64(sp)
ffffffff8020759e: b2 e4                	sd	a2, 72(sp)
ffffffff802075a0: a3 0b d1 04          	sb	a3, 87(sp)
ffffffff802075a4: 32 f8                	sd	a2, 48(sp)
ffffffff802075a6: 2e f4                	sd	a1, 40(sp)
ffffffff802075a8: 2a f0                	sd	a0, 32(sp)
ffffffff802075aa: 3a ec                	sd	a4, 24(sp)
ffffffff802075ac: 09 a0                	j	2
ffffffff802075ae: 42 75                	ld	a0, 48(sp)
ffffffff802075b0: 93 55 35 00          	srli	a1, a0, 3
ffffffff802075b4: ae ec                	sd	a1, 88(sp)
ffffffff802075b6: 2e e8                	sd	a1, 16(sp)
ffffffff802075b8: 09 a0                	j	2
ffffffff802075ba: 42 75                	ld	a0, 48(sp)
ffffffff802075bc: 93 75 75 00          	andi	a1, a0, 7
ffffffff802075c0: ae f0                	sd	a1, 96(sp)
ffffffff802075c2: 42 66                	ld	a2, 16(sp)
ffffffff802075c4: a2 76                	ld	a3, 40(sp)
ffffffff802075c6: 2e e4                	sd	a1, 8(sp)
ffffffff802075c8: 63 70 d6 02          	bgeu	a2, a3, 32
ffffffff802075cc: 09 a0                	j	2
ffffffff802075ce: 02 75                	ld	a0, 32(sp)
ffffffff802075d0: c2 65                	ld	a1, 16(sp)
ffffffff802075d2: 2e 95                	add	a0, a0, a1
ffffffff802075d4: a2 65                	ld	a1, 8(sp)
ffffffff802075d6: 62 66                	ld	a2, 24(sp)
ffffffff802075d8: 97 00 00 00          	auipc	ra, 0
ffffffff802075dc: e7 80 60 0a          	jalr	166(ra)
ffffffff802075e0: 09 a0                	j	2
ffffffff802075e2: a6 70                	ld	ra, 104(sp)
ffffffff802075e4: 65 61                	addi	sp, sp, 112
ffffffff802075e6: 82 80                	ret

ffffffff802075e8 .LBB1_6:
ffffffff802075e8: 17 56 00 00          	auipc	a2, 5
ffffffff802075ec: 13 06 06 72          	addi	a2, a2, 1824
ffffffff802075f0: 42 65                	ld	a0, 16(sp)
ffffffff802075f2: a2 75                	ld	a1, 40(sp)
ffffffff802075f4: 97 10 00 00          	auipc	ra, 1
ffffffff802075f8: e7 80 00 2a          	jalr	672(ra)
ffffffff802075fc: 00 00                	unimp	

ffffffff802075fe _ZN42_$LT$u8$u20$as$u20$bit_field..BitField$GT$7get_bit17hbc3cd16576295629E:
ffffffff802075fe: 79 71                	addi	sp, sp, -48
ffffffff80207600: 2a f0                	sd	a0, 32(sp)
ffffffff80207602: 2e f4                	sd	a1, 40(sp)
ffffffff80207604: 1d 46                	addi	a2, zero, 7
ffffffff80207606: 2e ec                	sd	a1, 24(sp)
ffffffff80207608: 2a e8                	sd	a0, 16(sp)
ffffffff8020760a: 63 64 b6 02          	bltu	a2, a1, 40
ffffffff8020760e: 09 a0                	j	2
ffffffff80207610: 42 65                	ld	a0, 16(sp)
ffffffff80207612: 83 45 05 00          	lbu	a1, 0(a0)
ffffffff80207616: 62 66                	ld	a2, 24(sp)
ffffffff80207618: 93 76 86 ff          	andi	a3, a2, -8
ffffffff8020761c: 13 77 76 00          	andi	a4, a2, 7
ffffffff80207620: 85 47                	addi	a5, zero, 1
ffffffff80207622: 33 97 e7 00          	sll	a4, a5, a4
ffffffff80207626: 81 47                	mv	a5, zero
ffffffff80207628: 2e e4                	sd	a1, 8(sp)
ffffffff8020762a: 3a e0                	sd	a4, 0(sp)
ffffffff8020762c: 63 9a f6 02          	bne	a3, a5, 52
ffffffff80207630: 05 a0                	j	32

ffffffff80207632 .LBB0_5:
ffffffff80207632: 17 55 00 00          	auipc	a0, 5
ffffffff80207636: 13 05 e5 6e          	addi	a0, a0, 1774

ffffffff8020763a .LBB0_6:
ffffffff8020763a: 17 56 00 00          	auipc	a2, 5
ffffffff8020763e: 13 06 e6 75          	addi	a2, a2, 1886
ffffffff80207642: 93 05 80 02          	addi	a1, zero, 40
ffffffff80207646: 97 10 00 00          	auipc	ra, 1
ffffffff8020764a: e7 80 20 22          	jalr	546(ra)
ffffffff8020764e: 00 00                	unimp	
ffffffff80207650: 22 65                	ld	a0, 8(sp)
ffffffff80207652: 82 65                	ld	a1, 0(sp)
ffffffff80207654: 33 76 b5 00          	and	a2, a0, a1
ffffffff80207658: 33 35 c0 00          	snez	a0, a2
ffffffff8020765c: 45 61                	addi	sp, sp, 48
ffffffff8020765e: 82 80                	ret

ffffffff80207660 .LBB0_7:
ffffffff80207660: 17 55 00 00          	auipc	a0, 5
ffffffff80207664: 13 05 05 7d          	addi	a0, a0, 2000

ffffffff80207668 .LBB0_8:
ffffffff80207668: 17 56 00 00          	auipc	a2, 5
ffffffff8020766c: 13 06 86 7a          	addi	a2, a2, 1960
ffffffff80207670: 93 05 30 02          	addi	a1, zero, 35
ffffffff80207674: 97 10 00 00          	auipc	ra, 1
ffffffff80207678: e7 80 40 1f          	jalr	500(ra)
ffffffff8020767c: 00 00                	unimp	

ffffffff8020767e _ZN42_$LT$u8$u20$as$u20$bit_field..BitField$GT$7set_bit17hc33958b76d4f0b2bE:
ffffffff8020767e: 39 71                	addi	sp, sp, -64
ffffffff80207680: b2 86                	add	a3, zero, a2
ffffffff80207682: 2a f4                	sd	a0, 40(sp)
ffffffff80207684: 2e f8                	sd	a1, 48(sp)
ffffffff80207686: a3 0f c1 02          	sb	a2, 63(sp)
ffffffff8020768a: 1d 46                	addi	a2, zero, 7
ffffffff8020768c: 2e f0                	sd	a1, 32(sp)
ffffffff8020768e: 2a ec                	sd	a0, 24(sp)
ffffffff80207690: 36 e8                	sd	a3, 16(sp)
ffffffff80207692: 63 66 b6 00          	bltu	a2, a1, 12
ffffffff80207696: 09 a0                	j	2
ffffffff80207698: 42 65                	ld	a0, 16(sp)
ffffffff8020769a: 15 ed                	bnez	a0, 60
ffffffff8020769c: 05 a0                	j	32

ffffffff8020769e .LBB1_10:
ffffffff8020769e: 17 55 00 00          	auipc	a0, 5
ffffffff802076a2: 13 05 25 68          	addi	a0, a0, 1666

ffffffff802076a6 .LBB1_11:
ffffffff802076a6: 17 56 00 00          	auipc	a2, 5
ffffffff802076aa: 13 06 26 6f          	addi	a2, a2, 1778
ffffffff802076ae: 93 05 80 02          	addi	a1, zero, 40
ffffffff802076b2: 97 10 00 00          	auipc	ra, 1
ffffffff802076b6: e7 80 60 1b          	jalr	438(ra)
ffffffff802076ba: 00 00                	unimp	
ffffffff802076bc: 02 75                	ld	a0, 32(sp)
ffffffff802076be: 93 75 85 ff          	andi	a1, a0, -8
ffffffff802076c2: 13 76 75 00          	andi	a2, a0, 7
ffffffff802076c6: 85 46                	addi	a3, zero, 1
ffffffff802076c8: 33 96 c6 00          	sll	a2, a3, a2
ffffffff802076cc: 81 46                	mv	a3, zero
ffffffff802076ce: 32 e4                	sd	a2, 8(sp)
ffffffff802076d0: 63 94 d5 06          	bne	a1, a3, 104
ffffffff802076d4: 35 a0                	j	44
ffffffff802076d6: 02 75                	ld	a0, 32(sp)
ffffffff802076d8: 93 75 85 ff          	andi	a1, a0, -8
ffffffff802076dc: 13 76 75 00          	andi	a2, a0, 7
ffffffff802076e0: 85 46                	addi	a3, zero, 1
ffffffff802076e2: 33 96 c6 00          	sll	a2, a3, a2
ffffffff802076e6: 81 46                	mv	a3, zero
ffffffff802076e8: 32 e0                	sd	a2, 0(sp)
ffffffff802076ea: 63 98 d5 02          	bne	a1, a3, 48
ffffffff802076ee: 09 a0                	j	2
ffffffff802076f0: 62 65                	ld	a0, 24(sp)
ffffffff802076f2: 83 05 05 00          	lb	a1, 0(a0)
ffffffff802076f6: 02 66                	ld	a2, 0(sp)
ffffffff802076f8: d1 8d                	or	a1, a1, a2
ffffffff802076fa: 23 00 b5 00          	sb	a1, 0(a0)
ffffffff802076fe: 19 a8                	j	22
ffffffff80207700: 22 65                	ld	a0, 8(sp)
ffffffff80207702: 93 45 f5 ff          	not	a1, a0
ffffffff80207706: 62 66                	ld	a2, 24(sp)
ffffffff80207708: 83 06 06 00          	lb	a3, 0(a2)
ffffffff8020770c: f5 8d                	and	a1, a1, a3
ffffffff8020770e: 23 00 b6 00          	sb	a1, 0(a2)
ffffffff80207712: 09 a0                	j	2
ffffffff80207714: 62 65                	ld	a0, 24(sp)
ffffffff80207716: 21 61                	addi	sp, sp, 64
ffffffff80207718: 82 80                	ret

ffffffff8020771a .LBB1_12:
ffffffff8020771a: 17 55 00 00          	auipc	a0, 5
ffffffff8020771e: 13 05 65 71          	addi	a0, a0, 1814

ffffffff80207722 .LBB1_13:
ffffffff80207722: 17 56 00 00          	auipc	a2, 5
ffffffff80207726: 13 06 66 73          	addi	a2, a2, 1846
ffffffff8020772a: 93 05 30 02          	addi	a1, zero, 35
ffffffff8020772e: 97 10 00 00          	auipc	ra, 1
ffffffff80207732: e7 80 a0 13          	jalr	314(ra)
ffffffff80207736: 00 00                	unimp	

ffffffff80207738 .LBB1_14:
ffffffff80207738: 17 55 00 00          	auipc	a0, 5
ffffffff8020773c: 13 05 85 6f          	addi	a0, a0, 1784

ffffffff80207740 .LBB1_15:
ffffffff80207740: 17 56 00 00          	auipc	a2, 5
ffffffff80207744: 13 06 06 73          	addi	a2, a2, 1840
ffffffff80207748: 93 05 30 02          	addi	a1, zero, 35
ffffffff8020774c: 97 10 00 00          	auipc	ra, 1
ffffffff80207750: e7 80 c0 11          	jalr	284(ra)
ffffffff80207754: 00 00                	unimp	

ffffffff80207756 _ZN5alloc5alloc12alloc_zeroed17h8d8a256da1c54d84E:
ffffffff80207756: 79 71                	addi	sp, sp, -48
ffffffff80207758: 06 f4                	sd	ra, 40(sp)
ffffffff8020775a: 2a ec                	sd	a0, 24(sp)
ffffffff8020775c: 2e f0                	sd	a1, 32(sp)
ffffffff8020775e: 28 08                	addi	a0, sp, 24
ffffffff80207760: 97 00 00 00          	auipc	ra, 0
ffffffff80207764: e7 80 a0 82          	jalr	-2006(ra)
ffffffff80207768: 2a e8                	sd	a0, 16(sp)
ffffffff8020776a: 09 a0                	j	2
ffffffff8020776c: 28 08                	addi	a0, sp, 24
ffffffff8020776e: 97 00 00 00          	auipc	ra, 0
ffffffff80207772: e7 80 60 82          	jalr	-2010(ra)
ffffffff80207776: 2a e4                	sd	a0, 8(sp)
ffffffff80207778: 09 a0                	j	2
ffffffff8020777a: 42 65                	ld	a0, 16(sp)
ffffffff8020777c: a2 65                	ld	a1, 8(sp)
ffffffff8020777e: 97 c0 ff ff          	auipc	ra, 1048572
ffffffff80207782: e7 80 20 f9          	jalr	-110(ra)
ffffffff80207786: 2a e0                	sd	a0, 0(sp)
ffffffff80207788: 09 a0                	j	2
ffffffff8020778a: 02 65                	ld	a0, 0(sp)
ffffffff8020778c: a2 70                	ld	ra, 40(sp)
ffffffff8020778e: 45 61                	addi	sp, sp, 48
ffffffff80207790: 82 80                	ret

ffffffff80207792 _ZN5alloc5alloc5alloc17h57c541c2d4cb2a75E:
ffffffff80207792: 79 71                	addi	sp, sp, -48
ffffffff80207794: 06 f4                	sd	ra, 40(sp)
ffffffff80207796: 2a ec                	sd	a0, 24(sp)
ffffffff80207798: 2e f0                	sd	a1, 32(sp)
ffffffff8020779a: 28 08                	addi	a0, sp, 24
ffffffff8020779c: 97 f0 ff ff          	auipc	ra, 1048575
ffffffff802077a0: e7 80 e0 7e          	jalr	2030(ra)
ffffffff802077a4: 2a e8                	sd	a0, 16(sp)
ffffffff802077a6: 09 a0                	j	2
ffffffff802077a8: 28 08                	addi	a0, sp, 24
ffffffff802077aa: 97 f0 ff ff          	auipc	ra, 1048575
ffffffff802077ae: e7 80 a0 7e          	jalr	2026(ra)
ffffffff802077b2: 2a e4                	sd	a0, 8(sp)
ffffffff802077b4: 09 a0                	j	2
ffffffff802077b6: 42 65                	ld	a0, 16(sp)
ffffffff802077b8: a2 65                	ld	a1, 8(sp)
ffffffff802077ba: 97 c0 ff ff          	auipc	ra, 1048572
ffffffff802077be: e7 80 60 f4          	jalr	-186(ra)
ffffffff802077c2: 2a e0                	sd	a0, 0(sp)
ffffffff802077c4: 09 a0                	j	2
ffffffff802077c6: 02 65                	ld	a0, 0(sp)
ffffffff802077c8: a2 70                	ld	ra, 40(sp)
ffffffff802077ca: 45 61                	addi	sp, sp, 48
ffffffff802077cc: 82 80                	ret

ffffffff802077ce _ZN62_$LT$alloc..alloc..Global$u20$as$u20$core..alloc..AllocRef$GT$5alloc17h65a5eeced233ff34E:
ffffffff802077ce: 71 71                	addi	sp, sp, -176
ffffffff802077d0: 06 f5                	sd	ra, 168(sp)
ffffffff802077d2: 36 87                	add	a4, zero, a3
ffffffff802077d4: 2e f4                	sd	a1, 40(sp)
ffffffff802077d6: 32 f8                	sd	a2, 48(sp)
ffffffff802077d8: a3 0f d1 02          	sb	a3, 63(sp)
ffffffff802077dc: 2a e1                	sd	a0, 128(sp)
ffffffff802077de: 28 10                	addi	a0, sp, 40
ffffffff802077e0: 3a f0                	sd	a4, 32(sp)
ffffffff802077e2: 97 f0 ff ff          	auipc	ra, 1048575
ffffffff802077e6: e7 80 80 7a          	jalr	1960(ra)
ffffffff802077ea: aa 85                	add	a1, zero, a0
ffffffff802077ec: 2a e9                	sd	a0, 144(sp)
ffffffff802077ee: 2e ec                	sd	a1, 24(sp)
ffffffff802077f0: 09 a0                	j	2
ffffffff802077f2: 01 45                	mv	a0, zero
ffffffff802077f4: e2 65                	ld	a1, 24(sp)
ffffffff802077f6: 63 8b a5 00          	beq	a1, a0, 22
ffffffff802077fa: 09 a0                	j	2
ffffffff802077fc: 03 45 f1 03          	lbu	a0, 63(sp)
ffffffff80207800: 05 89                	andi	a0, a0, 1
ffffffff80207802: 81 45                	mv	a1, zero
ffffffff80207804: 63 0b b5 02          	beq	a0, a1, 54
ffffffff80207808: 09 a0                	j	2
ffffffff8020780a: 39 a8                	j	30
ffffffff8020780c: 28 10                	addi	a0, sp, 40
ffffffff8020780e: 97 00 00 00          	auipc	ra, 0
ffffffff80207812: e7 80 a0 88          	jalr	-1910(ra)
ffffffff80207816: 2a e8                	sd	a0, 16(sp)
ffffffff80207818: 09 a0                	j	2
ffffffff8020781a: 42 65                	ld	a0, 16(sp)
ffffffff8020781c: aa e8                	sd	a0, 80(sp)
ffffffff8020781e: 81 45                	mv	a1, zero
ffffffff80207820: ae ec                	sd	a1, 88(sp)
ffffffff80207822: aa e0                	sd	a0, 64(sp)
ffffffff80207824: ae e4                	sd	a1, 72(sp)
ffffffff80207826: 69 a8                	j	154
ffffffff80207828: 22 75                	ld	a0, 40(sp)
ffffffff8020782a: c2 75                	ld	a1, 48(sp)
ffffffff8020782c: 97 00 00 00          	auipc	ra, 0
ffffffff80207830: e7 80 a0 f2          	jalr	-214(ra)
ffffffff80207834: aa f0                	sd	a0, 96(sp)
ffffffff80207836: 19 a8                	j	22
ffffffff80207838: 00 00                	unimp	
ffffffff8020783a: 22 75                	ld	a0, 40(sp)
ffffffff8020783c: c2 75                	ld	a1, 48(sp)
ffffffff8020783e: 97 00 00 00          	auipc	ra, 0
ffffffff80207842: e7 80 40 f5          	jalr	-172(ra)
ffffffff80207846: aa f0                	sd	a0, 96(sp)
ffffffff80207848: 09 a0                	j	2
ffffffff8020784a: 11 a0                	j	4
ffffffff8020784c: 09 a0                	j	2
ffffffff8020784e: 06 75                	ld	a0, 96(sp)
ffffffff80207850: 97 00 00 00          	auipc	ra, 0
ffffffff80207854: e7 80 c0 25          	jalr	604(ra)
ffffffff80207858: 2a e4                	sd	a0, 8(sp)
ffffffff8020785a: 09 a0                	j	2
ffffffff8020785c: 22 65                	ld	a0, 8(sp)
ffffffff8020785e: 97 00 00 00          	auipc	ra, 0
ffffffff80207862: e7 80 20 86          	jalr	-1950(ra)
ffffffff80207866: 2a e0                	sd	a0, 0(sp)
ffffffff80207868: 09 a0                	j	2
ffffffff8020786a: 02 65                	ld	a0, 0(sp)
ffffffff8020786c: 97 00 00 00          	auipc	ra, 0
ffffffff80207870: e7 80 00 ac          	jalr	-1344(ra)
ffffffff80207874: aa f4                	sd	a0, 104(sp)
ffffffff80207876: 09 a0                	j	2
ffffffff80207878: 26 75                	ld	a0, 104(sp)
ffffffff8020787a: 93 35 15 00          	seqz	a1, a0
ffffffff8020787e: 01 46                	mv	a2, zero
ffffffff80207880: 63 14 c5 00          	bne	a0, a2, 8
ffffffff80207884: 09 a0                	j	2
ffffffff80207886: 19 a8                	j	22
ffffffff80207888: 26 75                	ld	a0, 104(sp)
ffffffff8020788a: 2a ed                	sd	a0, 152(sp)
ffffffff8020788c: 2a f1                	sd	a0, 160(sp)
ffffffff8020788e: aa f8                	sd	a0, 112(sp)
ffffffff80207890: e2 65                	ld	a1, 24(sp)
ffffffff80207892: ae fc                	sd	a1, 120(sp)
ffffffff80207894: aa e0                	sd	a0, 64(sp)
ffffffff80207896: ae e4                	sd	a1, 72(sp)
ffffffff80207898: 25 a0                	j	40
ffffffff8020789a: 00 00                	unimp	
ffffffff8020789c: 97 00 00 00          	auipc	ra, 0
ffffffff802078a0: e7 80 60 02          	jalr	38(ra)
ffffffff802078a4: 31 a0                	j	12
ffffffff802078a6: 06 65                	ld	a0, 64(sp)
ffffffff802078a8: a6 65                	ld	a1, 72(sp)
ffffffff802078aa: aa 70                	ld	ra, 168(sp)
ffffffff802078ac: 4d 61                	addi	sp, sp, 176
ffffffff802078ae: 82 80                	ret
ffffffff802078b0: 97 00 00 00          	auipc	ra, 0
ffffffff802078b4: e7 80 60 a4          	jalr	-1466(ra)
ffffffff802078b8: aa e0                	sd	a0, 64(sp)
ffffffff802078ba: ae e4                	sd	a1, 72(sp)
ffffffff802078bc: 09 a0                	j	2
ffffffff802078be: e5 b7                	j	-24
ffffffff802078c0: dd b7                	j	-26

ffffffff802078c2 _ZN50_$LT$T$u20$as$u20$core..convert..From$LT$T$GT$$GT$4from17h5a8ff04d30def086E:
ffffffff802078c2: 41 11                	addi	sp, sp, -16
ffffffff802078c4: 41 01                	addi	sp, sp, 16
ffffffff802078c6: 82 80                	ret

ffffffff802078c8 _ZN47_$LT$u8$u20$as$u20$alloc..vec..SpecFromElem$GT$9from_elem17he051be77fa253419E:
ffffffff802078c8: 1d 71                	addi	sp, sp, -96
ffffffff802078ca: 86 ec                	sd	ra, 88(sp)
ffffffff802078cc: 93 f6 f5 0f          	andi	a3, a1, 255
ffffffff802078d0: 2e 87                	add	a4, zero, a1
ffffffff802078d2: a3 07 b1 04          	sb	a1, 79(sp)
ffffffff802078d6: b2 e8                	sd	a2, 80(sp)
ffffffff802078d8: 81 45                	mv	a1, zero
ffffffff802078da: 32 f4                	sd	a2, 40(sp)
ffffffff802078dc: 2a f0                	sd	a0, 32(sp)
ffffffff802078de: 3a ec                	sd	a4, 24(sp)
ffffffff802078e0: 63 8a b6 00          	beq	a3, a1, 20
ffffffff802078e4: 09 a0                	j	2
ffffffff802078e6: 08 18                	addi	a0, sp, 48
ffffffff802078e8: a2 75                	ld	a1, 40(sp)
ffffffff802078ea: 97 f0 ff ff          	auipc	ra, 1048575
ffffffff802078ee: e7 80 00 1d          	jalr	464(ra)
ffffffff802078f2: 25 a0                	j	40
ffffffff802078f4: 22 75                	ld	a0, 40(sp)
ffffffff802078f6: 97 f0 ff ff          	auipc	ra, 1048575
ffffffff802078fa: e7 80 80 30          	jalr	776(ra)
ffffffff802078fe: 2a e8                	sd	a0, 16(sp)
ffffffff80207900: 2e e4                	sd	a1, 8(sp)
ffffffff80207902: 21 a0                	j	8
ffffffff80207904: e6 60                	ld	ra, 88(sp)
ffffffff80207906: 25 61                	addi	sp, sp, 96
ffffffff80207908: 82 80                	ret
ffffffff8020790a: 42 65                	ld	a0, 16(sp)
ffffffff8020790c: 82 75                	ld	a1, 32(sp)
ffffffff8020790e: 88 e1                	sd	a0, 0(a1)
ffffffff80207910: 22 66                	ld	a2, 8(sp)
ffffffff80207912: 90 e5                	sd	a2, 8(a1)
ffffffff80207914: a2 76                	ld	a3, 40(sp)
ffffffff80207916: 94 e9                	sd	a3, 16(a1)
ffffffff80207918: f5 b7                	j	-20
ffffffff8020791a: 08 18                	addi	a0, sp, 48
ffffffff8020791c: 97 f0 ff ff          	auipc	ra, 1048575
ffffffff80207920: e7 80 20 17          	jalr	370(ra)
ffffffff80207924: 2a e0                	sd	a0, 0(sp)
ffffffff80207926: 09 a0                	j	2
ffffffff80207928: 02 65                	ld	a0, 0(sp)
ffffffff8020792a: e2 65                	ld	a1, 24(sp)
ffffffff8020792c: 22 76                	ld	a2, 40(sp)
ffffffff8020792e: 97 00 00 00          	auipc	ra, 0
ffffffff80207932: e7 80 00 ba          	jalr	-1120(ra)
ffffffff80207936: 09 a0                	j	2
ffffffff80207938: 08 18                	addi	a0, sp, 48
ffffffff8020793a: a2 75                	ld	a1, 40(sp)
ffffffff8020793c: 97 f0 ff ff          	auipc	ra, 1048575
ffffffff80207940: e7 80 00 1e          	jalr	480(ra)
ffffffff80207944: 09 a0                	j	2
ffffffff80207946: 06 65                	ld	a0, 64(sp)
ffffffff80207948: 82 75                	ld	a1, 32(sp)
ffffffff8020794a: 88 e9                	sd	a0, 16(a1)
ffffffff8020794c: 62 75                	ld	a0, 56(sp)
ffffffff8020794e: 88 e5                	sd	a0, 8(a1)
ffffffff80207950: 42 75                	ld	a0, 48(sp)
ffffffff80207952: 88 e1                	sd	a0, 0(a1)
ffffffff80207954: 45 bf                	j	-80

ffffffff80207956 _ZN49_$LT$usize$u20$as$u20$core..iter..range..Step$GT$16backward_checked17h85ec7f0b3cd0b673E:
ffffffff80207956: 5d 71                	addi	sp, sp, -80
ffffffff80207958: 86 e4                	sd	ra, 72(sp)
ffffffff8020795a: 2a f8                	sd	a0, 48(sp)
ffffffff8020795c: 2e fc                	sd	a1, 56(sp)
ffffffff8020795e: 2a f0                	sd	a0, 32(sp)
ffffffff80207960: 2e 85                	add	a0, zero, a1
ffffffff80207962: 97 00 00 00          	auipc	ra, 0
ffffffff80207966: e7 80 c0 0f          	jalr	252(ra)
ffffffff8020796a: 2a f4                	sd	a0, 40(sp)
ffffffff8020796c: 09 a0                	j	2
ffffffff8020796e: 22 75                	ld	a0, 40(sp)
ffffffff80207970: aa e0                	sd	a0, 64(sp)
ffffffff80207972: 82 75                	ld	a1, 32(sp)
ffffffff80207974: 2a ec                	sd	a0, 24(sp)
ffffffff80207976: 2e 85                	add	a0, zero, a1
ffffffff80207978: e2 65                	ld	a1, 24(sp)
ffffffff8020797a: 97 f0 ff ff          	auipc	ra, 1048575
ffffffff8020797e: e7 80 60 eb          	jalr	-330(ra)
ffffffff80207982: 2a e8                	sd	a0, 16(sp)
ffffffff80207984: 2e e4                	sd	a1, 8(sp)
ffffffff80207986: 09 a0                	j	2
ffffffff80207988: 42 65                	ld	a0, 16(sp)
ffffffff8020798a: a2 65                	ld	a1, 8(sp)
ffffffff8020798c: a6 60                	ld	ra, 72(sp)
ffffffff8020798e: 61 61                	addi	sp, sp, 80
ffffffff80207990: 82 80                	ret

ffffffff80207992 _ZN49_$LT$usize$u20$as$u20$core..iter..range..Step$GT$17forward_unchecked17h4b65d0078e9ee366E:
ffffffff80207992: 01 11                	addi	sp, sp, -32
ffffffff80207994: 06 ec                	sd	ra, 24(sp)
ffffffff80207996: 2a e4                	sd	a0, 8(sp)
ffffffff80207998: 2e e8                	sd	a1, 16(sp)
ffffffff8020799a: 97 f0 ff ff          	auipc	ra, 1048575
ffffffff8020799e: e7 80 00 f0          	jalr	-256(ra)
ffffffff802079a2: 2a e0                	sd	a0, 0(sp)
ffffffff802079a4: 09 a0                	j	2
ffffffff802079a6: 02 65                	ld	a0, 0(sp)
ffffffff802079a8: e2 60                	ld	ra, 24(sp)
ffffffff802079aa: 05 61                	addi	sp, sp, 32
ffffffff802079ac: 82 80                	ret

ffffffff802079ae _ZN49_$LT$usize$u20$as$u20$core..iter..range..Step$GT$8backward17h645589fa8dfdcc13E:
ffffffff802079ae: 5d 71                	addi	sp, sp, -80
ffffffff802079b0: 86 e4                	sd	ra, 72(sp)
ffffffff802079b2: 2a fc                	sd	a0, 56(sp)
ffffffff802079b4: ae e0                	sd	a1, 64(sp)
ffffffff802079b6: 2a f0                	sd	a0, 32(sp)
ffffffff802079b8: 2e ec                	sd	a1, 24(sp)
ffffffff802079ba: 97 00 00 00          	auipc	ra, 0
ffffffff802079be: e7 80 c0 f9          	jalr	-100(ra)
ffffffff802079c2: 2a f4                	sd	a0, 40(sp)
ffffffff802079c4: 2e f8                	sd	a1, 48(sp)
ffffffff802079c6: 09 a0                	j	2
ffffffff802079c8: 28 10                	addi	a0, sp, 40
ffffffff802079ca: 97 f0 ff ff          	auipc	ra, 1048575
ffffffff802079ce: e7 80 60 78          	jalr	1926(ra)
ffffffff802079d2: 2a e8                	sd	a0, 16(sp)
ffffffff802079d4: 09 a0                	j	2
ffffffff802079d6: 42 65                	ld	a0, 16(sp)
ffffffff802079d8: 19 e1                	bnez	a0, 6
ffffffff802079da: 09 a0                	j	2
ffffffff802079dc: 09 a8                	j	18
ffffffff802079de: 01 45                	mv	a0, zero
ffffffff802079e0: 85 45                	addi	a1, zero, 1
ffffffff802079e2: 97 00 00 00          	auipc	ra, 0
ffffffff802079e6: e7 80 40 02          	jalr	36(ra)
ffffffff802079ea: 09 a0                	j	2
ffffffff802079ec: 09 a0                	j	2
ffffffff802079ee: 02 75                	ld	a0, 32(sp)
ffffffff802079f0: e2 65                	ld	a1, 24(sp)
ffffffff802079f2: 97 f0 ff ff          	auipc	ra, 1048575
ffffffff802079f6: e7 80 40 e9          	jalr	-364(ra)
ffffffff802079fa: 2a e4                	sd	a0, 8(sp)
ffffffff802079fc: 09 a0                	j	2
ffffffff802079fe: 22 65                	ld	a0, 8(sp)
ffffffff80207a00: a6 60                	ld	ra, 72(sp)
ffffffff80207a02: 61 61                	addi	sp, sp, 80
ffffffff80207a04: 82 80                	ret

ffffffff80207a06 _ZN47_$LT$usize$u20$as$u20$core..ops..arith..Sub$GT$3sub17h2ee219b9d382caa2E:
ffffffff80207a06: 01 11                	addi	sp, sp, -32
ffffffff80207a08: 2a e8                	sd	a0, 16(sp)
ffffffff80207a0a: 2e ec                	sd	a1, 24(sp)
ffffffff80207a0c: b3 05 b5 40          	sub	a1, a0, a1
ffffffff80207a10: 2e e4                	sd	a1, 8(sp)
ffffffff80207a12: 63 66 b5 00          	bltu	a0, a1, 12
ffffffff80207a16: 09 a0                	j	2
ffffffff80207a18: 22 65                	ld	a0, 8(sp)
ffffffff80207a1a: 05 61                	addi	sp, sp, 32
ffffffff80207a1c: 82 80                	ret

ffffffff80207a1e .LBB0_3:
ffffffff80207a1e: 17 55 00 00          	auipc	a0, 5
ffffffff80207a22: 13 05 25 4d          	addi	a0, a0, 1234

ffffffff80207a26 .LBB0_4:
ffffffff80207a26: 17 56 00 00          	auipc	a2, 5
ffffffff80207a2a: 13 06 a6 4a          	addi	a2, a2, 1194
ffffffff80207a2e: 93 05 10 02          	addi	a1, zero, 33
ffffffff80207a32: 97 10 00 00          	auipc	ra, 1
ffffffff80207a36: e7 80 60 e3          	jalr	-458(ra)
ffffffff80207a3a: 00 00                	unimp	

ffffffff80207a3c _ZN50_$LT$T$u20$as$u20$core..convert..From$LT$T$GT$$GT$4from17h890a887307c4b4c3E:
ffffffff80207a3c: 41 11                	addi	sp, sp, -16
ffffffff80207a3e: 2a e4                	sd	a0, 8(sp)
ffffffff80207a40: 41 01                	addi	sp, sp, 16
ffffffff80207a42: 82 80                	ret

ffffffff80207a44 _ZN50_$LT$T$u20$as$u20$core..convert..Into$LT$U$GT$$GT$4into17h2c7e53bf644f3fe9E:
ffffffff80207a44: 01 11                	addi	sp, sp, -32
ffffffff80207a46: 06 ec                	sd	ra, 24(sp)
ffffffff80207a48: 2a e8                	sd	a0, 16(sp)
ffffffff80207a4a: 97 00 00 00          	auipc	ra, 0
ffffffff80207a4e: e7 80 20 ff          	jalr	-14(ra)
ffffffff80207a52: 2a e4                	sd	a0, 8(sp)
ffffffff80207a54: 09 a0                	j	2
ffffffff80207a56: 22 65                	ld	a0, 8(sp)
ffffffff80207a58: e2 60                	ld	ra, 24(sp)
ffffffff80207a5a: 05 61                	addi	sp, sp, 32
ffffffff80207a5c: 82 80                	ret

ffffffff80207a5e _ZN53_$LT$T$u20$as$u20$core..convert..TryFrom$LT$U$GT$$GT$8try_from17h5dd69e972b6a6cedE:
ffffffff80207a5e: 01 11                	addi	sp, sp, -32
ffffffff80207a60: 06 ec                	sd	ra, 24(sp)
ffffffff80207a62: 2a e8                	sd	a0, 16(sp)
ffffffff80207a64: 97 00 00 00          	auipc	ra, 0
ffffffff80207a68: e7 80 00 fe          	jalr	-32(ra)
ffffffff80207a6c: 2a e0                	sd	a0, 0(sp)
ffffffff80207a6e: 09 a0                	j	2
ffffffff80207a70: 02 65                	ld	a0, 0(sp)
ffffffff80207a72: 2a e4                	sd	a0, 8(sp)
ffffffff80207a74: e2 60                	ld	ra, 24(sp)
ffffffff80207a76: 05 61                	addi	sp, sp, 32
ffffffff80207a78: 82 80                	ret

ffffffff80207a7a _ZN119_$LT$core..ptr..non_null..NonNull$LT$T$GT$$u20$as$u20$core..convert..From$LT$core..ptr..unique..Unique$LT$T$GT$$GT$$GT$4from17h4da11410335da3faE:
ffffffff80207a7a: 01 11                	addi	sp, sp, -32
ffffffff80207a7c: 06 ec                	sd	ra, 24(sp)
ffffffff80207a7e: 2a e8                	sd	a0, 16(sp)
ffffffff80207a80: 97 00 00 00          	auipc	ra, 0
ffffffff80207a84: e7 80 e0 2f          	jalr	766(ra)
ffffffff80207a88: 2a e4                	sd	a0, 8(sp)
ffffffff80207a8a: 09 a0                	j	2
ffffffff80207a8c: 22 65                	ld	a0, 8(sp)
ffffffff80207a8e: 97 00 00 00          	auipc	ra, 0
ffffffff80207a92: e7 80 40 01          	jalr	20(ra)
ffffffff80207a96: 2a e0                	sd	a0, 0(sp)
ffffffff80207a98: 09 a0                	j	2
ffffffff80207a9a: 02 65                	ld	a0, 0(sp)
ffffffff80207a9c: e2 60                	ld	ra, 24(sp)
ffffffff80207a9e: 05 61                	addi	sp, sp, 32
ffffffff80207aa0: 82 80                	ret

ffffffff80207aa2 _ZN4core3ptr8non_null16NonNull$LT$T$GT$13new_unchecked17h899aea3ed13dabb9E:
ffffffff80207aa2: 41 11                	addi	sp, sp, -16
ffffffff80207aa4: 2a e4                	sd	a0, 8(sp)
ffffffff80207aa6: 2a e0                	sd	a0, 0(sp)
ffffffff80207aa8: 41 01                	addi	sp, sp, 16
ffffffff80207aaa: 82 80                	ret

ffffffff80207aac _ZN4core3ptr8non_null16NonNull$LT$T$GT$3new17he05e98f33d161a49E:
ffffffff80207aac: 79 71                	addi	sp, sp, -48
ffffffff80207aae: 06 f4                	sd	ra, 40(sp)
ffffffff80207ab0: 2a f0                	sd	a0, 32(sp)
ffffffff80207ab2: 2a e8                	sd	a0, 16(sp)
ffffffff80207ab4: 97 00 00 00          	auipc	ra, 0
ffffffff80207ab8: e7 80 80 a0          	jalr	-1528(ra)
ffffffff80207abc: 2a e4                	sd	a0, 8(sp)
ffffffff80207abe: 09 a0                	j	2
ffffffff80207ac0: 01 45                	mv	a0, zero
ffffffff80207ac2: a2 65                	ld	a1, 8(sp)
ffffffff80207ac4: 63 86 a5 00          	beq	a1, a0, 12
ffffffff80207ac8: 09 a0                	j	2
ffffffff80207aca: 01 45                	mv	a0, zero
ffffffff80207acc: 2a ec                	sd	a0, 24(sp)
ffffffff80207ace: 19 a8                	j	22
ffffffff80207ad0: 42 65                	ld	a0, 16(sp)
ffffffff80207ad2: 97 00 00 00          	auipc	ra, 0
ffffffff80207ad6: e7 80 00 fd          	jalr	-48(ra)
ffffffff80207ada: 2a e0                	sd	a0, 0(sp)
ffffffff80207adc: 09 a0                	j	2
ffffffff80207ade: 02 65                	ld	a0, 0(sp)
ffffffff80207ae0: 2a ec                	sd	a0, 24(sp)
ffffffff80207ae2: 09 a0                	j	2
ffffffff80207ae4: 62 65                	ld	a0, 24(sp)
ffffffff80207ae6: a2 70                	ld	ra, 40(sp)
ffffffff80207ae8: 45 61                	addi	sp, sp, 48
ffffffff80207aea: 82 80                	ret

ffffffff80207aec _ZN4core3ptr8non_null16NonNull$LT$T$GT$4cast17hd4662aee3fc63ba2E:
ffffffff80207aec: 01 11                	addi	sp, sp, -32
ffffffff80207aee: 06 ec                	sd	ra, 24(sp)
ffffffff80207af0: 2a e8                	sd	a0, 16(sp)
ffffffff80207af2: 97 00 00 00          	auipc	ra, 0
ffffffff80207af6: e7 80 20 02          	jalr	34(ra)
ffffffff80207afa: 2a e4                	sd	a0, 8(sp)
ffffffff80207afc: 09 a0                	j	2
ffffffff80207afe: 22 65                	ld	a0, 8(sp)
ffffffff80207b00: 97 00 00 00          	auipc	ra, 0
ffffffff80207b04: e7 80 20 fa          	jalr	-94(ra)
ffffffff80207b08: 2a e0                	sd	a0, 0(sp)
ffffffff80207b0a: 09 a0                	j	2
ffffffff80207b0c: 02 65                	ld	a0, 0(sp)
ffffffff80207b0e: e2 60                	ld	ra, 24(sp)
ffffffff80207b10: 05 61                	addi	sp, sp, 32
ffffffff80207b12: 82 80                	ret

ffffffff80207b14 _ZN4core3ptr8non_null16NonNull$LT$T$GT$6as_ptr17h753b4b8d7104379dE:
ffffffff80207b14: 41 11                	addi	sp, sp, -16
ffffffff80207b16: 2a e4                	sd	a0, 8(sp)
ffffffff80207b18: 41 01                	addi	sp, sp, 16
ffffffff80207b1a: 82 80                	ret

ffffffff80207b1c _ZN4core3ptr19swap_nonoverlapping17h90c385f6c16bd1ceE:
ffffffff80207b1c: 1d 71                	addi	sp, sp, -96
ffffffff80207b1e: 86 ec                	sd	ra, 88(sp)
ffffffff80207b20: 2a f0                	sd	a0, 32(sp)
ffffffff80207b22: 2e f4                	sd	a1, 40(sp)
ffffffff80207b24: 32 f8                	sd	a2, 48(sp)
ffffffff80207b26: aa 86                	add	a3, zero, a0
ffffffff80207b28: 2a fc                	sd	a0, 56(sp)
ffffffff80207b2a: 2e 85                	add	a0, zero, a1
ffffffff80207b2c: ae e0                	sd	a1, 64(sp)
ffffffff80207b2e: a1 45                	addi	a1, zero, 8
ffffffff80207b30: ae e8                	sd	a1, 80(sp)
ffffffff80207b32: 32 ec                	sd	a2, 24(sp)
ffffffff80207b34: 36 e8                	sd	a3, 16(sp)
ffffffff80207b36: 2a e4                	sd	a0, 8(sp)
ffffffff80207b38: 2e e0                	sd	a1, 0(sp)
ffffffff80207b3a: 09 a0                	j	2
ffffffff80207b3c: 02 65                	ld	a0, 0(sp)
ffffffff80207b3e: e2 65                	ld	a1, 24(sp)
ffffffff80207b40: 33 06 b5 02          	<unknown>
ffffffff80207b44: b2 e4                	sd	a2, 72(sp)
ffffffff80207b46: 42 65                	ld	a0, 16(sp)
ffffffff80207b48: a2 65                	ld	a1, 8(sp)
ffffffff80207b4a: 97 00 00 00          	auipc	ra, 0
ffffffff80207b4e: e7 80 20 0e          	jalr	226(ra)
ffffffff80207b52: 09 a0                	j	2
ffffffff80207b54: e6 60                	ld	ra, 88(sp)
ffffffff80207b56: 25 61                	addi	sp, sp, 96
ffffffff80207b58: 82 80                	ret

ffffffff80207b5a _ZN4core3ptr20slice_from_raw_parts17hfea9b0600059766fE:
ffffffff80207b5a: 79 71                	addi	sp, sp, -48
ffffffff80207b5c: 2a f0                	sd	a0, 32(sp)
ffffffff80207b5e: 2e f4                	sd	a1, 40(sp)
ffffffff80207b60: 2a e8                	sd	a0, 16(sp)
ffffffff80207b62: 2e ec                	sd	a1, 24(sp)
ffffffff80207b64: 2a e0                	sd	a0, 0(sp)
ffffffff80207b66: 2e e4                	sd	a1, 8(sp)
ffffffff80207b68: 45 61                	addi	sp, sp, 48
ffffffff80207b6a: 82 80                	ret

ffffffff80207b6c _ZN4core3ptr23swap_nonoverlapping_one17hc000bac69f71f46bE:
ffffffff80207b6c: 5d 71                	addi	sp, sp, -80
ffffffff80207b6e: 86 e4                	sd	ra, 72(sp)
ffffffff80207b70: 2a f4                	sd	a0, 40(sp)
ffffffff80207b72: 2e f8                	sd	a1, 48(sp)
ffffffff80207b74: 21 46                	addi	a2, zero, 8
ffffffff80207b76: b2 e0                	sd	a2, 64(sp)
ffffffff80207b78: 2e ec                	sd	a1, 24(sp)
ffffffff80207b7a: 2a e8                	sd	a0, 16(sp)
ffffffff80207b7c: 32 e4                	sd	a2, 8(sp)
ffffffff80207b7e: 09 a0                	j	2
ffffffff80207b80: 13 05 00 02          	addi	a0, zero, 32
ffffffff80207b84: a2 65                	ld	a1, 8(sp)
ffffffff80207b86: 63 eb a5 00          	bltu	a1, a0, 22
ffffffff80207b8a: 09 a0                	j	2
ffffffff80207b8c: 05 46                	addi	a2, zero, 1
ffffffff80207b8e: 42 65                	ld	a0, 16(sp)
ffffffff80207b90: e2 65                	ld	a1, 24(sp)
ffffffff80207b92: 97 00 00 00          	auipc	ra, 0
ffffffff80207b96: e7 80 a0 f8          	jalr	-118(ra)
ffffffff80207b9a: 15 a8                	j	52
ffffffff80207b9c: 42 65                	ld	a0, 16(sp)
ffffffff80207b9e: 97 00 00 00          	auipc	ra, 0
ffffffff80207ba2: e7 80 a0 04          	jalr	74(ra)
ffffffff80207ba6: aa 85                	add	a1, zero, a0
ffffffff80207ba8: 2a fc                	sd	a0, 56(sp)
ffffffff80207baa: 2e e0                	sd	a1, 0(sp)
ffffffff80207bac: 09 a0                	j	2
ffffffff80207bae: 05 46                	addi	a2, zero, 1
ffffffff80207bb0: 62 65                	ld	a0, 24(sp)
ffffffff80207bb2: c2 65                	ld	a1, 16(sp)
ffffffff80207bb4: 97 00 00 00          	auipc	ra, 0
ffffffff80207bb8: e7 80 a0 93          	jalr	-1734(ra)
ffffffff80207bbc: 09 a0                	j	2
ffffffff80207bbe: 62 65                	ld	a0, 24(sp)
ffffffff80207bc0: 82 65                	ld	a1, 0(sp)
ffffffff80207bc2: 97 00 00 00          	auipc	ra, 0
ffffffff80207bc6: e7 80 e0 05          	jalr	94(ra)
ffffffff80207bca: 09 a0                	j	2
ffffffff80207bcc: 11 a0                	j	4
ffffffff80207bce: 09 a0                	j	2
ffffffff80207bd0: a6 60                	ld	ra, 72(sp)
ffffffff80207bd2: 61 61                	addi	sp, sp, 80
ffffffff80207bd4: 82 80                	ret

ffffffff80207bd6 _ZN4core3ptr24slice_from_raw_parts_mut17ha38ec9baf2f13fe8E:
ffffffff80207bd6: 79 71                	addi	sp, sp, -48
ffffffff80207bd8: 2a f0                	sd	a0, 32(sp)
ffffffff80207bda: 2e f4                	sd	a1, 40(sp)
ffffffff80207bdc: 2a e8                	sd	a0, 16(sp)
ffffffff80207bde: 2e ec                	sd	a1, 24(sp)
ffffffff80207be0: 2a e0                	sd	a0, 0(sp)
ffffffff80207be2: 2e e4                	sd	a1, 8(sp)
ffffffff80207be4: 45 61                	addi	sp, sp, 48
ffffffff80207be6: 82 80                	ret

ffffffff80207be8 _ZN4core3ptr4read17he0499841e48994c2E:
ffffffff80207be8: 5d 71                	addi	sp, sp, -80
ffffffff80207bea: 86 e4                	sd	ra, 72(sp)
ffffffff80207bec: 2a ec                	sd	a0, 24(sp)
ffffffff80207bee: 82 75                	ld	a1, 32(sp)
ffffffff80207bf0: 2e e8                	sd	a1, 16(sp)
ffffffff80207bf2: 2a e4                	sd	a0, 8(sp)
ffffffff80207bf4: 09 a0                	j	2
ffffffff80207bf6: 08 08                	addi	a0, sp, 16
ffffffff80207bf8: 2a fc                	sd	a0, 56(sp)
ffffffff80207bfa: aa e0                	sd	a0, 64(sp)
ffffffff80207bfc: 09 a0                	j	2
ffffffff80207bfe: 0c 08                	addi	a1, sp, 16
ffffffff80207c00: 05 46                	addi	a2, zero, 1
ffffffff80207c02: 22 65                	ld	a0, 8(sp)
ffffffff80207c04: 97 00 00 00          	auipc	ra, 0
ffffffff80207c08: e7 80 a0 8e          	jalr	-1814(ra)
ffffffff80207c0c: 09 a0                	j	2
ffffffff80207c0e: 42 65                	ld	a0, 16(sp)
ffffffff80207c10: 2a f4                	sd	a0, 40(sp)
ffffffff80207c12: 2a f8                	sd	a0, 48(sp)
ffffffff80207c14: 2a e0                	sd	a0, 0(sp)
ffffffff80207c16: 09 a0                	j	2
ffffffff80207c18: 02 65                	ld	a0, 0(sp)
ffffffff80207c1a: a6 60                	ld	ra, 72(sp)
ffffffff80207c1c: 61 61                	addi	sp, sp, 80
ffffffff80207c1e: 82 80                	ret

ffffffff80207c20 _ZN4core3ptr5write17h31fb98298acda0f9E:
ffffffff80207c20: 01 11                	addi	sp, sp, -32
ffffffff80207c22: 2a e8                	sd	a0, 16(sp)
ffffffff80207c24: 2e ec                	sd	a1, 24(sp)
ffffffff80207c26: 0c e1                	sd	a1, 0(a0)
ffffffff80207c28: 05 61                	addi	sp, sp, 32
ffffffff80207c2a: 82 80                	ret

ffffffff80207c2c _ZN4core3ptr25swap_nonoverlapping_bytes17h0f2aea0ba67e3066E:
ffffffff80207c2c: 09 71                	addi	sp, sp, -384
ffffffff80207c2e: 86 fe                	sd	ra, 376(sp)
ffffffff80207c30: a2 fa                	sd	s0, 368(sp)
ffffffff80207c32: 00 03                	addi	s0, sp, 384
ffffffff80207c34: 13 71 01 fe          	andi	sp, sp, -32
ffffffff80207c38: aa f9                	sd	a0, 240(sp)
ffffffff80207c3a: ae fd                	sd	a1, 248(sp)
ffffffff80207c3c: 32 e2                	sd	a2, 256(sp)
ffffffff80207c3e: 93 06 00 02          	addi	a3, zero, 32
ffffffff80207c42: b6 e6                	sd	a3, 328(sp)
ffffffff80207c44: 36 e6                	sd	a3, 264(sp)
ffffffff80207c46: 32 e5                	sd	a2, 136(sp)
ffffffff80207c48: 2e e1                	sd	a1, 128(sp)
ffffffff80207c4a: aa fc                	sd	a0, 120(sp)
ffffffff80207c4c: b6 f8                	sd	a3, 112(sp)
ffffffff80207c4e: 09 a0                	j	2
ffffffff80207c50: 01 45                	mv	a0, zero
ffffffff80207c52: 2a ed                	sd	a0, 152(sp)
ffffffff80207c54: 09 a0                	j	2
ffffffff80207c56: 6a 65                	ld	a0, 152(sp)
ffffffff80207c58: c6 75                	ld	a1, 112(sp)
ffffffff80207c5a: 2e 95                	add	a0, a0, a1
ffffffff80207c5c: 2a 66                	ld	a2, 136(sp)
ffffffff80207c5e: 63 78 a6 00          	bgeu	a2, a0, 16
ffffffff80207c62: 09 a0                	j	2
ffffffff80207c64: 6a 65                	ld	a0, 152(sp)
ffffffff80207c66: aa 65                	ld	a1, 136(sp)
ffffffff80207c68: 63 6e b5 06          	bltu	a0, a1, 124
ffffffff80207c6c: 9d a8                	j	118
ffffffff80207c6e: 09 a0                	j	2
ffffffff80207c70: 08 11                	addi	a0, sp, 160
ffffffff80207c72: aa f2                	sd	a0, 352(sp)
ffffffff80207c74: aa f6                	sd	a0, 360(sp)
ffffffff80207c76: 09 a0                	j	2
ffffffff80207c78: 08 11                	addi	a0, sp, 160
ffffffff80207c7a: 2a ea                	sd	a0, 272(sp)
ffffffff80207c7c: ea 65                	ld	a1, 152(sp)
ffffffff80207c7e: 66 76                	ld	a2, 120(sp)
ffffffff80207c80: aa f4                	sd	a0, 104(sp)
ffffffff80207c82: 32 85                	add	a0, zero, a2
ffffffff80207c84: 97 00 00 00          	auipc	ra, 0
ffffffff80207c88: e7 80 80 80          	jalr	-2040(ra)
ffffffff80207c8c: aa 85                	add	a1, zero, a0
ffffffff80207c8e: 2a ee                	sd	a0, 280(sp)
ffffffff80207c90: ae f0                	sd	a1, 96(sp)
ffffffff80207c92: 09 a0                	j	2
ffffffff80207c94: ea 65                	ld	a1, 152(sp)
ffffffff80207c96: 0a 65                	ld	a0, 128(sp)
ffffffff80207c98: 97 f0 ff ff          	auipc	ra, 1048575
ffffffff80207c9c: e7 80 40 7f          	jalr	2036(ra)
ffffffff80207ca0: aa 85                	add	a1, zero, a0
ffffffff80207ca2: 2a f2                	sd	a0, 288(sp)
ffffffff80207ca4: ae ec                	sd	a1, 88(sp)
ffffffff80207ca6: 09 a0                	j	2
ffffffff80207ca8: 06 75                	ld	a0, 96(sp)
ffffffff80207caa: a6 75                	ld	a1, 104(sp)
ffffffff80207cac: 46 76                	ld	a2, 112(sp)
ffffffff80207cae: 97 00 00 00          	auipc	ra, 0
ffffffff80207cb2: e7 80 20 86          	jalr	-1950(ra)
ffffffff80207cb6: 09 a0                	j	2
ffffffff80207cb8: 66 65                	ld	a0, 88(sp)
ffffffff80207cba: 86 75                	ld	a1, 96(sp)
ffffffff80207cbc: 46 76                	ld	a2, 112(sp)
ffffffff80207cbe: 97 00 00 00          	auipc	ra, 0
ffffffff80207cc2: e7 80 20 85          	jalr	-1966(ra)
ffffffff80207cc6: 09 a0                	j	2
ffffffff80207cc8: 26 75                	ld	a0, 104(sp)
ffffffff80207cca: e6 65                	ld	a1, 88(sp)
ffffffff80207ccc: 46 76                	ld	a2, 112(sp)
ffffffff80207cce: 97 00 00 00          	auipc	ra, 0
ffffffff80207cd2: e7 80 20 84          	jalr	-1982(ra)
ffffffff80207cd6: 09 a0                	j	2
ffffffff80207cd8: 6a 65                	ld	a0, 152(sp)
ffffffff80207cda: c6 75                	ld	a1, 112(sp)
ffffffff80207cdc: 2e 95                	add	a0, a0, a1
ffffffff80207cde: 2a ed                	sd	a0, 152(sp)
ffffffff80207ce0: 9d bf                	j	-138
ffffffff80207ce2: bd a8                	j	126
ffffffff80207ce4: 09 a0                	j	2
ffffffff80207ce6: 6a 65                	ld	a0, 152(sp)
ffffffff80207ce8: aa 65                	ld	a1, 136(sp)
ffffffff80207cea: 33 85 a5 40          	sub	a0, a1, a0
ffffffff80207cee: 2a f6                	sd	a0, 296(sp)
ffffffff80207cf0: 90 09                	addi	a2, sp, 208
ffffffff80207cf2: b2 ea                	sd	a2, 336(sp)
ffffffff80207cf4: b2 ee                	sd	a2, 344(sp)
ffffffff80207cf6: aa e8                	sd	a0, 80(sp)
ffffffff80207cf8: b2 e4                	sd	a2, 72(sp)
ffffffff80207cfa: 09 a0                	j	2
ffffffff80207cfc: 26 65                	ld	a0, 72(sp)
ffffffff80207cfe: a6 65                	ld	a1, 72(sp)
ffffffff80207d00: 2e fa                	sd	a1, 304(sp)
ffffffff80207d02: ea 65                	ld	a1, 152(sp)
ffffffff80207d04: 66 76                	ld	a2, 120(sp)
ffffffff80207d06: aa e0                	sd	a0, 64(sp)
ffffffff80207d08: 32 85                	add	a0, zero, a2
ffffffff80207d0a: 97 f0 ff ff          	auipc	ra, 1048575
ffffffff80207d0e: e7 80 20 78          	jalr	1922(ra)
ffffffff80207d12: aa 85                	add	a1, zero, a0
ffffffff80207d14: 2a fe                	sd	a0, 312(sp)
ffffffff80207d16: 2e fc                	sd	a1, 56(sp)
ffffffff80207d18: 09 a0                	j	2
ffffffff80207d1a: ea 65                	ld	a1, 152(sp)
ffffffff80207d1c: 0a 65                	ld	a0, 128(sp)
ffffffff80207d1e: 97 f0 ff ff          	auipc	ra, 1048575
ffffffff80207d22: e7 80 e0 76          	jalr	1902(ra)
ffffffff80207d26: aa 85                	add	a1, zero, a0
ffffffff80207d28: aa e2                	sd	a0, 320(sp)
ffffffff80207d2a: 2e f8                	sd	a1, 48(sp)
ffffffff80207d2c: 09 a0                	j	2
ffffffff80207d2e: 62 75                	ld	a0, 56(sp)
ffffffff80207d30: 86 65                	ld	a1, 64(sp)
ffffffff80207d32: 46 66                	ld	a2, 80(sp)
ffffffff80207d34: 97 f0 ff ff          	auipc	ra, 1048575
ffffffff80207d38: e7 80 c0 7d          	jalr	2012(ra)
ffffffff80207d3c: 09 a0                	j	2
ffffffff80207d3e: 42 75                	ld	a0, 48(sp)
ffffffff80207d40: e2 75                	ld	a1, 56(sp)
ffffffff80207d42: 46 66                	ld	a2, 80(sp)
ffffffff80207d44: 97 f0 ff ff          	auipc	ra, 1048575
ffffffff80207d48: e7 80 c0 7c          	jalr	1996(ra)
ffffffff80207d4c: 09 a0                	j	2
ffffffff80207d4e: 06 65                	ld	a0, 64(sp)
ffffffff80207d50: c2 75                	ld	a1, 48(sp)
ffffffff80207d52: 46 66                	ld	a2, 80(sp)
ffffffff80207d54: 97 f0 ff ff          	auipc	ra, 1048575
ffffffff80207d58: e7 80 c0 7b          	jalr	1980(ra)
ffffffff80207d5c: 09 a0                	j	2
ffffffff80207d5e: 09 a0                	j	2
ffffffff80207d60: 13 01 04 e8          	addi	sp, s0, -384
ffffffff80207d64: 56 74                	ld	s0, 368(sp)
ffffffff80207d66: f6 70                	ld	ra, 376(sp)
ffffffff80207d68: 19 61                	addi	sp, sp, 384
ffffffff80207d6a: 82 80                	ret

ffffffff80207d6c _ZN4core3ptr13drop_in_place17hf9ab6e13a6d7cd58E:
ffffffff80207d6c: 41 11                	addi	sp, sp, -16
ffffffff80207d6e: 2a e4                	sd	a0, 8(sp)
ffffffff80207d70: 41 01                	addi	sp, sp, 16
ffffffff80207d72: 82 80                	ret

ffffffff80207d74 _ZN4core3ptr6unique15Unique$LT$T$GT$13new_unchecked17h100496cadaae3781E:
ffffffff80207d74: 01 11                	addi	sp, sp, -32
ffffffff80207d76: 2a ec                	sd	a0, 24(sp)
ffffffff80207d78: 2a e4                	sd	a0, 8(sp)
ffffffff80207d7a: 05 61                	addi	sp, sp, 32
ffffffff80207d7c: 82 80                	ret

ffffffff80207d7e _ZN4core3ptr6unique15Unique$LT$T$GT$6as_ptr17h348a0cc1553edb55E:
ffffffff80207d7e: 41 11                	addi	sp, sp, -16
ffffffff80207d80: 2a e4                	sd	a0, 8(sp)
ffffffff80207d82: 41 01                	addi	sp, sp, 16
ffffffff80207d84: 82 80                	ret

ffffffff80207d86 _ZN4core3ptr6unique15Unique$LT$T$GT$8dangling17h68fb46b8d51a8b10E:
ffffffff80207d86: 01 11                	addi	sp, sp, -32
ffffffff80207d88: 06 ec                	sd	ra, 24(sp)
ffffffff80207d8a: 05 45                	addi	a0, zero, 1
ffffffff80207d8c: 2a e8                	sd	a0, 16(sp)
ffffffff80207d8e: 2a e4                	sd	a0, 8(sp)
ffffffff80207d90: 09 a0                	j	2
ffffffff80207d92: 22 65                	ld	a0, 8(sp)
ffffffff80207d94: 97 00 00 00          	auipc	ra, 0
ffffffff80207d98: e7 80 00 fe          	jalr	-32(ra)
ffffffff80207d9c: 2a e0                	sd	a0, 0(sp)
ffffffff80207d9e: 09 a0                	j	2
ffffffff80207da0: 02 65                	ld	a0, 0(sp)
ffffffff80207da2: e2 60                	ld	ra, 24(sp)
ffffffff80207da4: 05 61                	addi	sp, sp, 32
ffffffff80207da6: 82 80                	ret

ffffffff80207da8 _ZN50_$LT$T$u20$as$u20$core..convert..Into$LT$U$GT$$GT$4into17h5120786db7c86ae3E:
ffffffff80207da8: 01 11                	addi	sp, sp, -32
ffffffff80207daa: 06 ec                	sd	ra, 24(sp)
ffffffff80207dac: 2a e8                	sd	a0, 16(sp)
ffffffff80207dae: 97 00 00 00          	auipc	ra, 0
ffffffff80207db2: e7 80 c0 cc          	jalr	-820(ra)
ffffffff80207db6: 2a e4                	sd	a0, 8(sp)
ffffffff80207db8: 09 a0                	j	2
ffffffff80207dba: 22 65                	ld	a0, 8(sp)
ffffffff80207dbc: e2 60                	ld	ra, 24(sp)
ffffffff80207dbe: 05 61                	addi	sp, sp, 32
ffffffff80207dc0: 82 80                	ret

ffffffff80207dc2 _ZN60_$LT$spin..once..Finish$u20$as$u20$core..ops..drop..Drop$GT$4drop17hacc74e682de6720bE:
ffffffff80207dc2: 01 11                	addi	sp, sp, -32
ffffffff80207dc4: 06 ec                	sd	ra, 24(sp)
ffffffff80207dc6: 2a e8                	sd	a0, 16(sp)
ffffffff80207dc8: 83 45 85 00          	lbu	a1, 8(a0)
ffffffff80207dcc: 85 89                	andi	a1, a1, 1
ffffffff80207dce: 2a e0                	sd	a0, 0(sp)
ffffffff80207dd0: 99 e1                	bnez	a1, 6
ffffffff80207dd2: 09 a0                	j	2
ffffffff80207dd4: 19 a8                	j	22
ffffffff80207dd6: 02 65                	ld	a0, 0(sp)
ffffffff80207dd8: 08 61                	ld	a0, 0(a0)
ffffffff80207dda: 8d 45                	addi	a1, zero, 3
ffffffff80207ddc: 11 46                	addi	a2, zero, 4
ffffffff80207dde: 97 00 00 00          	auipc	ra, 0
ffffffff80207de2: e7 80 20 01          	jalr	18(ra)
ffffffff80207de6: 09 a0                	j	2
ffffffff80207de8: 09 a0                	j	2
ffffffff80207dea: e2 60                	ld	ra, 24(sp)
ffffffff80207dec: 05 61                	addi	sp, sp, 32
ffffffff80207dee: 82 80                	ret

ffffffff80207df0 _ZN4core4sync6atomic11AtomicUsize5store17h3dec5db0ddee1c5aE:
ffffffff80207df0: 39 71                	addi	sp, sp, -64
ffffffff80207df2: 06 fc                	sd	ra, 56(sp)
ffffffff80207df4: b2 86                	add	a3, zero, a2
ffffffff80207df6: 2a f0                	sd	a0, 32(sp)
ffffffff80207df8: 2e f4                	sd	a1, 40(sp)
ffffffff80207dfa: a3 0b c1 02          	sb	a2, 55(sp)
ffffffff80207dfe: 2e ec                	sd	a1, 24(sp)
ffffffff80207e00: 36 e8                	sd	a3, 16(sp)
ffffffff80207e02: 97 00 00 00          	auipc	ra, 0
ffffffff80207e06: e7 80 80 0c          	jalr	200(ra)
ffffffff80207e0a: 2a e4                	sd	a0, 8(sp)
ffffffff80207e0c: 09 a0                	j	2
ffffffff80207e0e: 22 65                	ld	a0, 8(sp)
ffffffff80207e10: e2 65                	ld	a1, 24(sp)
ffffffff80207e12: 42 66                	ld	a2, 16(sp)
ffffffff80207e14: 97 00 00 00          	auipc	ra, 0
ffffffff80207e18: e7 80 00 01          	jalr	16(ra)
ffffffff80207e1c: 09 a0                	j	2
ffffffff80207e1e: e2 70                	ld	ra, 56(sp)
ffffffff80207e20: 21 61                	addi	sp, sp, 64
ffffffff80207e22: 82 80                	ret

ffffffff80207e24 _ZN4core4sync6atomic12atomic_store17hbd19a05b2e99872bE:
ffffffff80207e24: 39 71                	addi	sp, sp, -64
ffffffff80207e26: b2 86                	add	a3, zero, a2
ffffffff80207e28: a3 03 c1 02          	sb	a2, 39(sp)
ffffffff80207e2c: 2a f8                	sd	a0, 48(sp)
ffffffff80207e2e: 2e fc                	sd	a1, 56(sp)
ffffffff80207e30: 13 76 f6 0f          	andi	a2, a2, 255
ffffffff80207e34: 01 47                	mv	a4, zero
ffffffff80207e36: 2e ec                	sd	a1, 24(sp)
ffffffff80207e38: 2a e8                	sd	a0, 16(sp)
ffffffff80207e3a: 32 e4                	sd	a2, 8(sp)
ffffffff80207e3c: 63 0a e6 04          	beq	a2, a4, 84
ffffffff80207e40: 09 a0                	j	2
ffffffff80207e42: 05 45                	addi	a0, zero, 1
ffffffff80207e44: a2 65                	ld	a1, 8(sp)
ffffffff80207e46: 63 8e a5 02          	beq	a1, a0, 60
ffffffff80207e4a: 09 a0                	j	2
ffffffff80207e4c: 09 45                	addi	a0, zero, 2
ffffffff80207e4e: a2 65                	ld	a1, 8(sp)
ffffffff80207e50: 63 8c a5 04          	beq	a1, a0, 88
ffffffff80207e54: 09 a0                	j	2
ffffffff80207e56: 0d 45                	addi	a0, zero, 3
ffffffff80207e58: a2 65                	ld	a1, 8(sp)
ffffffff80207e5a: 63 84 a5 00          	beq	a1, a0, 8
ffffffff80207e5e: 09 a0                	j	2
ffffffff80207e60: 2d a8                	j	58

ffffffff80207e62 .LBB1_15:
ffffffff80207e62: 17 55 00 00          	auipc	a0, 5
ffffffff80207e66: 13 05 f5 0a          	addi	a0, a0, 175

ffffffff80207e6a .LBB1_16:
ffffffff80207e6a: 17 56 00 00          	auipc	a2, 5
ffffffff80207e6e: 13 06 66 12          	addi	a2, a2, 294
ffffffff80207e72: 93 05 20 03          	addi	a1, zero, 50
ffffffff80207e76: 97 10 00 00          	auipc	ra, 1
ffffffff80207e7a: e7 80 20 9f          	jalr	-1550(ra)
ffffffff80207e7e: 00 00                	unimp	
ffffffff80207e80: 00 00                	unimp	
ffffffff80207e82: 0f 00 10 03          	fence	rw, w
ffffffff80207e86: 62 65                	ld	a0, 24(sp)
ffffffff80207e88: c2 65                	ld	a1, 16(sp)
ffffffff80207e8a: 88 e1                	sd	a0, 0(a1)
ffffffff80207e8c: 09 a0                	j	2
ffffffff80207e8e: 25 a8                	j	56
ffffffff80207e90: 62 65                	ld	a0, 24(sp)
ffffffff80207e92: c2 65                	ld	a1, 16(sp)
ffffffff80207e94: 88 e1                	sd	a0, 0(a1)
ffffffff80207e96: 09 a0                	j	2
ffffffff80207e98: 3d a0                	j	46
ffffffff80207e9a: 0f 00 10 03          	fence	rw, w
ffffffff80207e9e: 62 65                	ld	a0, 24(sp)
ffffffff80207ea0: c2 65                	ld	a1, 16(sp)
ffffffff80207ea2: 88 e1                	sd	a0, 0(a1)
ffffffff80207ea4: 09 a0                	j	2
ffffffff80207ea6: 05 a0                	j	32

ffffffff80207ea8 .LBB1_17:
ffffffff80207ea8: 17 55 00 00          	auipc	a0, 5
ffffffff80207eac: 13 05 05 10          	addi	a0, a0, 256

ffffffff80207eb0 .LBB1_18:
ffffffff80207eb0: 17 56 00 00          	auipc	a2, 5
ffffffff80207eb4: 13 06 06 0e          	addi	a2, a2, 224
ffffffff80207eb8: 93 05 a0 02          	addi	a1, zero, 42
ffffffff80207ebc: 97 10 00 00          	auipc	ra, 1
ffffffff80207ec0: e7 80 c0 9a          	jalr	-1620(ra)
ffffffff80207ec4: 00 00                	unimp	
ffffffff80207ec6: 21 61                	addi	sp, sp, 64
ffffffff80207ec8: 82 80                	ret

ffffffff80207eca _ZN4core4cell19UnsafeCell$LT$T$GT$3get17ha89cd70ec93badbfE:
ffffffff80207eca: 41 11                	addi	sp, sp, -16
ffffffff80207ecc: 2a e4                	sd	a0, 8(sp)
ffffffff80207ece: 41 01                	addi	sp, sp, 16
ffffffff80207ed0: 82 80                	ret

ffffffff80207ed2 _ZN42_$LT$$RF$T$u20$as$u20$core..fmt..Debug$GT$3fmt17h64fd105cc4a1de63E:
ffffffff80207ed2: 01 11                	addi	sp, sp, -32
ffffffff80207ed4: 06 ec                	sd	ra, 24(sp)
ffffffff80207ed6: 2a e4                	sd	a0, 8(sp)
ffffffff80207ed8: 2e e8                	sd	a1, 16(sp)
ffffffff80207eda: 08 61                	ld	a0, 0(a0)
ffffffff80207edc: 97 00 00 00          	auipc	ra, 0
ffffffff80207ee0: e7 80 c0 2f          	jalr	764(ra)
ffffffff80207ee4: 2a e0                	sd	a0, 0(sp)
ffffffff80207ee6: 09 a0                	j	2
ffffffff80207ee8: 02 65                	ld	a0, 0(sp)
ffffffff80207eea: e2 60                	ld	ra, 24(sp)
ffffffff80207eec: 05 61                	addi	sp, sp, 32
ffffffff80207eee: 82 80                	ret

ffffffff80207ef0 _ZN42_$LT$$RF$T$u20$as$u20$core..fmt..Debug$GT$3fmt17h6c54cb5afa1f086cE:
ffffffff80207ef0: 01 11                	addi	sp, sp, -32
ffffffff80207ef2: 06 ec                	sd	ra, 24(sp)
ffffffff80207ef4: 2a e4                	sd	a0, 8(sp)
ffffffff80207ef6: 2e e8                	sd	a1, 16(sp)
ffffffff80207ef8: 08 61                	ld	a0, 0(a0)
ffffffff80207efa: 97 00 00 00          	auipc	ra, 0
ffffffff80207efe: e7 80 c0 45          	jalr	1116(ra)
ffffffff80207f02: 2a e0                	sd	a0, 0(sp)
ffffffff80207f04: 09 a0                	j	2
ffffffff80207f06: 02 65                	ld	a0, 0(sp)
ffffffff80207f08: e2 60                	ld	ra, 24(sp)
ffffffff80207f0a: 05 61                	addi	sp, sp, 32
ffffffff80207f0c: 82 80                	ret

ffffffff80207f0e _ZN5riscv8register6scause9Interrupt4from17hca6de9dcadd79211E:
ffffffff80207f0e: 01 11                	addi	sp, sp, -32
ffffffff80207f10: 2a ec                	sd	a0, 24(sp)
ffffffff80207f12: 81 45                	mv	a1, zero
ffffffff80207f14: 2a e4                	sd	a0, 8(sp)
ffffffff80207f16: 63 00 b5 04          	beq	a0, a1, 64
ffffffff80207f1a: 09 a0                	j	2
ffffffff80207f1c: 05 45                	addi	a0, zero, 1
ffffffff80207f1e: a2 65                	ld	a1, 8(sp)
ffffffff80207f20: 63 8f a5 02          	beq	a1, a0, 62
ffffffff80207f24: 09 a0                	j	2
ffffffff80207f26: 11 45                	addi	a0, zero, 4
ffffffff80207f28: a2 65                	ld	a1, 8(sp)
ffffffff80207f2a: 63 8e a5 02          	beq	a1, a0, 60
ffffffff80207f2e: 09 a0                	j	2
ffffffff80207f30: 15 45                	addi	a0, zero, 5
ffffffff80207f32: a2 65                	ld	a1, 8(sp)
ffffffff80207f34: 63 8d a5 02          	beq	a1, a0, 58
ffffffff80207f38: 09 a0                	j	2
ffffffff80207f3a: 21 45                	addi	a0, zero, 8
ffffffff80207f3c: a2 65                	ld	a1, 8(sp)
ffffffff80207f3e: 63 8c a5 02          	beq	a1, a0, 56
ffffffff80207f42: 09 a0                	j	2
ffffffff80207f44: 25 45                	addi	a0, zero, 9
ffffffff80207f46: a2 65                	ld	a1, 8(sp)
ffffffff80207f48: 63 8b a5 02          	beq	a1, a0, 54
ffffffff80207f4c: 09 a0                	j	2
ffffffff80207f4e: 19 45                	addi	a0, zero, 6
ffffffff80207f50: a3 0b a1 00          	sb	a0, 23(sp)
ffffffff80207f54: 0d a8                	j	50
ffffffff80207f56: 01 45                	mv	a0, zero
ffffffff80207f58: a3 0b a1 00          	sb	a0, 23(sp)
ffffffff80207f5c: 2d a0                	j	42
ffffffff80207f5e: 05 45                	addi	a0, zero, 1
ffffffff80207f60: a3 0b a1 00          	sb	a0, 23(sp)
ffffffff80207f64: 0d a0                	j	34
ffffffff80207f66: 09 45                	addi	a0, zero, 2
ffffffff80207f68: a3 0b a1 00          	sb	a0, 23(sp)
ffffffff80207f6c: 29 a8                	j	26
ffffffff80207f6e: 0d 45                	addi	a0, zero, 3
ffffffff80207f70: a3 0b a1 00          	sb	a0, 23(sp)
ffffffff80207f74: 09 a8                	j	18
ffffffff80207f76: 11 45                	addi	a0, zero, 4
ffffffff80207f78: a3 0b a1 00          	sb	a0, 23(sp)
ffffffff80207f7c: 29 a0                	j	10
ffffffff80207f7e: 15 45                	addi	a0, zero, 5
ffffffff80207f80: a3 0b a1 00          	sb	a0, 23(sp)
ffffffff80207f84: 09 a0                	j	2
ffffffff80207f86: 03 05 71 01          	lb	a0, 23(sp)
ffffffff80207f8a: 05 61                	addi	sp, sp, 32
ffffffff80207f8c: 82 80                	ret

ffffffff80207f8e _ZN5riscv8register6scause9Exception4from17h66f2dda0382a7e85E:
ffffffff80207f8e: 01 11                	addi	sp, sp, -32
ffffffff80207f90: 2a ec                	sd	a0, 24(sp)
ffffffff80207f92: 81 45                	mv	a1, zero
ffffffff80207f94: 2a e4                	sd	a0, 8(sp)
ffffffff80207f96: 63 09 b5 06          	beq	a0, a1, 114
ffffffff80207f9a: 09 a0                	j	2
ffffffff80207f9c: 05 45                	addi	a0, zero, 1
ffffffff80207f9e: a2 65                	ld	a1, 8(sp)
ffffffff80207fa0: 63 88 a5 06          	beq	a1, a0, 112
ffffffff80207fa4: 09 a0                	j	2
ffffffff80207fa6: 09 45                	addi	a0, zero, 2
ffffffff80207fa8: a2 65                	ld	a1, 8(sp)
ffffffff80207faa: 63 87 a5 06          	beq	a1, a0, 110
ffffffff80207fae: 09 a0                	j	2
ffffffff80207fb0: 0d 45                	addi	a0, zero, 3
ffffffff80207fb2: a2 65                	ld	a1, 8(sp)
ffffffff80207fb4: 63 86 a5 06          	beq	a1, a0, 108
ffffffff80207fb8: 09 a0                	j	2
ffffffff80207fba: 15 45                	addi	a0, zero, 5
ffffffff80207fbc: a2 65                	ld	a1, 8(sp)
ffffffff80207fbe: 63 85 a5 06          	beq	a1, a0, 106
ffffffff80207fc2: 09 a0                	j	2
ffffffff80207fc4: 19 45                	addi	a0, zero, 6
ffffffff80207fc6: a2 65                	ld	a1, 8(sp)
ffffffff80207fc8: 63 84 a5 06          	beq	a1, a0, 104
ffffffff80207fcc: 09 a0                	j	2
ffffffff80207fce: 1d 45                	addi	a0, zero, 7
ffffffff80207fd0: a2 65                	ld	a1, 8(sp)
ffffffff80207fd2: 63 83 a5 06          	beq	a1, a0, 102
ffffffff80207fd6: 09 a0                	j	2
ffffffff80207fd8: 21 45                	addi	a0, zero, 8
ffffffff80207fda: a2 65                	ld	a1, 8(sp)
ffffffff80207fdc: 63 82 a5 06          	beq	a1, a0, 100
ffffffff80207fe0: 09 a0                	j	2
ffffffff80207fe2: 31 45                	addi	a0, zero, 12
ffffffff80207fe4: a2 65                	ld	a1, 8(sp)
ffffffff80207fe6: 63 81 a5 06          	beq	a1, a0, 98
ffffffff80207fea: 09 a0                	j	2
ffffffff80207fec: 35 45                	addi	a0, zero, 13
ffffffff80207fee: a2 65                	ld	a1, 8(sp)
ffffffff80207ff0: 63 80 a5 06          	beq	a1, a0, 96
ffffffff80207ff4: 09 a0                	j	2
ffffffff80207ff6: 3d 45                	addi	a0, zero, 15
ffffffff80207ff8: a2 65                	ld	a1, 8(sp)
ffffffff80207ffa: 63 8f a5 04          	beq	a1, a0, 94
ffffffff80207ffe: 09 a0                	j	2
ffffffff80208000: 2d 45                	addi	a0, zero, 11
ffffffff80208002: a3 0b a1 00          	sb	a0, 23(sp)
ffffffff80208006: a9 a8                	j	90
ffffffff80208008: 01 45                	mv	a0, zero
ffffffff8020800a: a3 0b a1 00          	sb	a0, 23(sp)
ffffffff8020800e: 89 a8                	j	82
ffffffff80208010: 05 45                	addi	a0, zero, 1
ffffffff80208012: a3 0b a1 00          	sb	a0, 23(sp)
ffffffff80208016: a9 a0                	j	74
ffffffff80208018: 09 45                	addi	a0, zero, 2
ffffffff8020801a: a3 0b a1 00          	sb	a0, 23(sp)
ffffffff8020801e: 89 a0                	j	66
ffffffff80208020: 0d 45                	addi	a0, zero, 3
ffffffff80208022: a3 0b a1 00          	sb	a0, 23(sp)
ffffffff80208026: 2d a8                	j	58
ffffffff80208028: 11 45                	addi	a0, zero, 4
ffffffff8020802a: a3 0b a1 00          	sb	a0, 23(sp)
ffffffff8020802e: 0d a8                	j	50
ffffffff80208030: 15 45                	addi	a0, zero, 5
ffffffff80208032: a3 0b a1 00          	sb	a0, 23(sp)
ffffffff80208036: 2d a0                	j	42
ffffffff80208038: 19 45                	addi	a0, zero, 6
ffffffff8020803a: a3 0b a1 00          	sb	a0, 23(sp)
ffffffff8020803e: 0d a0                	j	34
ffffffff80208040: 1d 45                	addi	a0, zero, 7
ffffffff80208042: a3 0b a1 00          	sb	a0, 23(sp)
ffffffff80208046: 29 a8                	j	26
ffffffff80208048: 21 45                	addi	a0, zero, 8
ffffffff8020804a: a3 0b a1 00          	sb	a0, 23(sp)
ffffffff8020804e: 09 a8                	j	18
ffffffff80208050: 25 45                	addi	a0, zero, 9
ffffffff80208052: a3 0b a1 00          	sb	a0, 23(sp)
ffffffff80208056: 29 a0                	j	10
ffffffff80208058: 29 45                	addi	a0, zero, 10
ffffffff8020805a: a3 0b a1 00          	sb	a0, 23(sp)
ffffffff8020805e: 09 a0                	j	2
ffffffff80208060: 03 05 71 01          	lb	a0, 23(sp)
ffffffff80208064: 05 61                	addi	sp, sp, 32
ffffffff80208066: 82 80                	ret

ffffffff80208068 _ZN5riscv8register6scause6Scause4code17hc1bdc112b76f21baE:
ffffffff80208068: 39 71                	addi	sp, sp, -64
ffffffff8020806a: 2a f4                	sd	a0, 40(sp)
ffffffff8020806c: a1 45                	addi	a1, zero, 8
ffffffff8020806e: 2e fc                	sd	a1, 56(sp)
ffffffff80208070: 2a f0                	sd	a0, 32(sp)
ffffffff80208072: 2e ec                	sd	a1, 24(sp)
ffffffff80208074: 09 a0                	j	2
ffffffff80208076: 62 65                	ld	a0, 24(sp)
ffffffff80208078: 93 15 35 00          	slli	a1, a0, 3
ffffffff8020807c: 01 46                	mv	a2, zero
ffffffff8020807e: 2e e8                	sd	a1, 16(sp)
ffffffff80208080: 15 ee                	bnez	a2, 60
ffffffff80208082: 09 a0                	j	2
ffffffff80208084: 42 65                	ld	a0, 16(sp)
ffffffff80208086: 93 05 f5 ff          	addi	a1, a0, -1
ffffffff8020808a: 2e e4                	sd	a1, 8(sp)
ffffffff8020808c: 63 67 b5 04          	bltu	a0, a1, 78
ffffffff80208090: 09 a0                	j	2
ffffffff80208092: 22 65                	ld	a0, 8(sp)
ffffffff80208094: 93 75 05 fc          	andi	a1, a0, -64
ffffffff80208098: 05 46                	addi	a2, zero, 1
ffffffff8020809a: 33 16 a6 00          	sll	a2, a2, a0
ffffffff8020809e: 81 46                	mv	a3, zero
ffffffff802080a0: 32 e0                	sd	a2, 0(sp)
ffffffff802080a2: 63 9b d5 04          	bne	a1, a3, 86
ffffffff802080a6: 09 a0                	j	2
ffffffff802080a8: 02 65                	ld	a0, 0(sp)
ffffffff802080aa: 2a f8                	sd	a0, 48(sp)
ffffffff802080ac: 82 75                	ld	a1, 32(sp)
ffffffff802080ae: 90 61                	ld	a2, 0(a1)
ffffffff802080b0: 93 46 f5 ff          	not	a3, a0
ffffffff802080b4: 33 75 d6 00          	and	a0, a2, a3
ffffffff802080b8: 21 61                	addi	sp, sp, 64
ffffffff802080ba: 82 80                	ret

ffffffff802080bc .LBB4_8:
ffffffff802080bc: 17 55 00 00          	auipc	a0, 5
ffffffff802080c0: 13 05 45 f8          	addi	a0, a0, -124

ffffffff802080c4 .LBB4_9:
ffffffff802080c4: 17 56 00 00          	auipc	a2, 5
ffffffff802080c8: 13 06 46 f6          	addi	a2, a2, -156
ffffffff802080cc: 93 05 10 02          	addi	a1, zero, 33
ffffffff802080d0: 97 00 00 00          	auipc	ra, 0
ffffffff802080d4: e7 80 80 79          	jalr	1944(ra)
ffffffff802080d8: 00 00                	unimp	

ffffffff802080da .LBB4_10:
ffffffff802080da: 17 55 00 00          	auipc	a0, 5
ffffffff802080de: 13 05 65 fa          	addi	a0, a0, -90

ffffffff802080e2 .LBB4_11:
ffffffff802080e2: 17 56 00 00          	auipc	a2, 5
ffffffff802080e6: 13 06 66 f8          	addi	a2, a2, -122
ffffffff802080ea: 93 05 10 02          	addi	a1, zero, 33
ffffffff802080ee: 97 00 00 00          	auipc	ra, 0
ffffffff802080f2: e7 80 a0 77          	jalr	1914(ra)
ffffffff802080f6: 00 00                	unimp	

ffffffff802080f8 .LBB4_12:
ffffffff802080f8: 17 55 00 00          	auipc	a0, 5
ffffffff802080fc: 13 05 85 fc          	addi	a0, a0, -56

ffffffff80208100 .LBB4_13:
ffffffff80208100: 17 56 00 00          	auipc	a2, 5
ffffffff80208104: 13 06 86 fa          	addi	a2, a2, -88
ffffffff80208108: 93 05 30 02          	addi	a1, zero, 35
ffffffff8020810c: 97 00 00 00          	auipc	ra, 0
ffffffff80208110: e7 80 c0 75          	jalr	1884(ra)
ffffffff80208114: 00 00                	unimp	

ffffffff80208116 _ZN66_$LT$riscv..register..scause..Trap$u20$as$u20$core..fmt..Debug$GT$3fmt17h9e5ff04cce688f11E:
ffffffff80208116: 75 71                	addi	sp, sp, -144
ffffffff80208118: 06 e5                	sd	ra, 136(sp)
ffffffff8020811a: aa f4                	sd	a0, 104(sp)
ffffffff8020811c: ae f8                	sd	a1, 112(sp)
ffffffff8020811e: 2a f0                	sd	a0, 32(sp)
ffffffff80208120: 03 45 05 00          	lbu	a0, 0(a0)
ffffffff80208124: 05 89                	andi	a0, a0, 1
ffffffff80208126: 01 46                	mv	a2, zero
ffffffff80208128: 2e e8                	sd	a1, 16(sp)
ffffffff8020812a: 63 05 c5 02          	beq	a0, a2, 42
ffffffff8020812e: 09 a0                	j	2
ffffffff80208130: 02 75                	ld	a0, 32(sp)
ffffffff80208132: 05 05                	addi	a0, a0, 1
ffffffff80208134: aa fc                	sd	a0, 120(sp)

ffffffff80208136 .LBB5_12:
ffffffff80208136: 17 56 00 00          	auipc	a2, 5
ffffffff8020813a: 13 06 d6 fa          	addi	a2, a2, -83
ffffffff8020813e: ac 00                	addi	a1, sp, 72
ffffffff80208140: a5 46                	addi	a3, zero, 9
ffffffff80208142: 2a e4                	sd	a0, 8(sp)
ffffffff80208144: 2e 85                	add	a0, zero, a1
ffffffff80208146: c2 65                	ld	a1, 16(sp)
ffffffff80208148: 97 10 00 00          	auipc	ra, 1
ffffffff8020814c: e7 80 20 72          	jalr	1826(ra)
ffffffff80208150: 89 a8                	j	82
ffffffff80208152: 00 00                	unimp	
ffffffff80208154: 02 75                	ld	a0, 32(sp)
ffffffff80208156: 05 05                	addi	a0, a0, 1
ffffffff80208158: 2a e1                	sd	a0, 128(sp)

ffffffff8020815a .LBB5_13:
ffffffff8020815a: 17 56 00 00          	auipc	a2, 5
ffffffff8020815e: 13 06 66 fb          	addi	a2, a2, -74
ffffffff80208162: 2c 10                	addi	a1, sp, 40
ffffffff80208164: a5 46                	addi	a3, zero, 9
ffffffff80208166: 2a e0                	sd	a0, 0(sp)
ffffffff80208168: 2e 85                	add	a0, zero, a1
ffffffff8020816a: c2 65                	ld	a1, 16(sp)
ffffffff8020816c: 97 10 00 00          	auipc	ra, 1
ffffffff80208170: e7 80 e0 6f          	jalr	1790(ra)
ffffffff80208174: 09 a0                	j	2
ffffffff80208176: 02 65                	ld	a0, 0(sp)
ffffffff80208178: aa e0                	sd	a0, 64(sp)

ffffffff8020817a .LBB5_14:
ffffffff8020817a: 17 56 00 00          	auipc	a2, 5
ffffffff8020817e: 13 06 66 fa          	addi	a2, a2, -90
ffffffff80208182: 28 10                	addi	a0, sp, 40
ffffffff80208184: 8c 00                	addi	a1, sp, 64
ffffffff80208186: 97 10 00 00          	auipc	ra, 1
ffffffff8020818a: e7 80 c0 ad          	jalr	-1316(ra)
ffffffff8020818e: 09 a0                	j	2
ffffffff80208190: 28 10                	addi	a0, sp, 40
ffffffff80208192: 97 10 00 00          	auipc	ra, 1
ffffffff80208196: e7 80 00 bc          	jalr	-1088(ra)
ffffffff8020819a: a3 0f a1 00          	sb	a0, 31(sp)
ffffffff8020819e: 09 a0                	j	2
ffffffff802081a0: 3d a0                	j	46
ffffffff802081a2: 22 65                	ld	a0, 8(sp)
ffffffff802081a4: aa f0                	sd	a0, 96(sp)

ffffffff802081a6 .LBB5_15:
ffffffff802081a6: 17 56 00 00          	auipc	a2, 5
ffffffff802081aa: 13 06 a6 f4          	addi	a2, a2, -182
ffffffff802081ae: a8 00                	addi	a0, sp, 72
ffffffff802081b0: 8c 10                	addi	a1, sp, 96
ffffffff802081b2: 97 10 00 00          	auipc	ra, 1
ffffffff802081b6: e7 80 00 ab          	jalr	-1360(ra)
ffffffff802081ba: 09 a0                	j	2
ffffffff802081bc: a8 00                	addi	a0, sp, 72
ffffffff802081be: 97 10 00 00          	auipc	ra, 1
ffffffff802081c2: e7 80 40 b9          	jalr	-1132(ra)
ffffffff802081c6: a3 0f a1 00          	sb	a0, 31(sp)
ffffffff802081ca: 09 a0                	j	2
ffffffff802081cc: 09 a0                	j	2
ffffffff802081ce: 03 45 f1 01          	lbu	a0, 31(sp)
ffffffff802081d2: aa 60                	ld	ra, 136(sp)
ffffffff802081d4: 49 61                	addi	sp, sp, 144
ffffffff802081d6: 82 80                	ret

ffffffff802081d8 _ZN71_$LT$riscv..register..scause..Interrupt$u20$as$u20$core..fmt..Debug$GT$3fmt17h439a136bdf19674bE:
ffffffff802081d8: 15 71                	addi	sp, sp, -224
ffffffff802081da: 86 ed                	sd	ra, 216(sp)
ffffffff802081dc: aa e5                	sd	a0, 200(sp)
ffffffff802081de: ae e9                	sd	a1, 208(sp)
ffffffff802081e0: 2a ec                	sd	a0, 24(sp)
ffffffff802081e2: 03 45 05 00          	lbu	a0, 0(a0)
ffffffff802081e6: 01 46                	mv	a2, zero
ffffffff802081e8: 2e e4                	sd	a1, 8(sp)
ffffffff802081ea: 2a e0                	sd	a0, 0(sp)
ffffffff802081ec: 63 09 c5 04          	beq	a0, a2, 82
ffffffff802081f0: 09 a0                	j	2
ffffffff802081f2: 05 45                	addi	a0, zero, 1
ffffffff802081f4: 82 65                	ld	a1, 0(sp)
ffffffff802081f6: 63 89 a5 06          	beq	a1, a0, 114
ffffffff802081fa: 09 a0                	j	2
ffffffff802081fc: 09 45                	addi	a0, zero, 2
ffffffff802081fe: 82 65                	ld	a1, 0(sp)
ffffffff80208200: 63 89 a5 08          	beq	a1, a0, 146
ffffffff80208204: 09 a0                	j	2
ffffffff80208206: 0d 45                	addi	a0, zero, 3
ffffffff80208208: 82 65                	ld	a1, 0(sp)
ffffffff8020820a: 63 89 a5 0a          	beq	a1, a0, 178
ffffffff8020820e: 09 a0                	j	2
ffffffff80208210: 11 45                	addi	a0, zero, 4
ffffffff80208212: 82 65                	ld	a1, 0(sp)
ffffffff80208214: 63 89 a5 0c          	beq	a1, a0, 210
ffffffff80208218: 09 a0                	j	2
ffffffff8020821a: 15 45                	addi	a0, zero, 5
ffffffff8020821c: 82 65                	ld	a1, 0(sp)
ffffffff8020821e: 63 89 a5 0e          	beq	a1, a0, 242
ffffffff80208222: 09 a0                	j	2

ffffffff80208224 .LBB6_30:
ffffffff80208224: 17 56 00 00          	auipc	a2, 5
ffffffff80208228: 13 06 c6 f1          	addi	a2, a2, -228
ffffffff8020822c: 08 19                	addi	a0, sp, 176
ffffffff8020822e: 9d 46                	addi	a3, zero, 7
ffffffff80208230: a2 65                	ld	a1, 8(sp)
ffffffff80208232: 97 10 00 00          	auipc	ra, 1
ffffffff80208236: e7 80 80 63          	jalr	1592(ra)
ffffffff8020823a: 01 a2                	j	256
ffffffff8020823c: 00 00                	unimp	

ffffffff8020823e .LBB6_31:
ffffffff8020823e: 17 36 00 00          	auipc	a2, 3
ffffffff80208242: 13 06 26 1b          	addi	a2, a2, 434
ffffffff80208246: 08 10                	addi	a0, sp, 32
ffffffff80208248: a1 46                	addi	a3, zero, 8
ffffffff8020824a: a2 65                	ld	a1, 8(sp)
ffffffff8020824c: 97 10 00 00          	auipc	ra, 1
ffffffff80208250: e7 80 e0 61          	jalr	1566(ra)
ffffffff80208254: 09 a0                	j	2
ffffffff80208256: 08 10                	addi	a0, sp, 32
ffffffff80208258: 97 10 00 00          	auipc	ra, 1
ffffffff8020825c: e7 80 a0 af          	jalr	-1286(ra)
ffffffff80208260: a3 0b a1 00          	sb	a0, 23(sp)
ffffffff80208264: 09 a0                	j	2
ffffffff80208266: dd a0                	j	230

ffffffff80208268 .LBB6_32:
ffffffff80208268: 17 56 00 00          	auipc	a2, 5
ffffffff8020826c: 13 06 56 f1          	addi	a2, a2, -235
ffffffff80208270: 28 18                	addi	a0, sp, 56
ffffffff80208272: b9 46                	addi	a3, zero, 14
ffffffff80208274: a2 65                	ld	a1, 8(sp)
ffffffff80208276: 97 10 00 00          	auipc	ra, 1
ffffffff8020827a: e7 80 40 5f          	jalr	1524(ra)
ffffffff8020827e: 09 a0                	j	2
ffffffff80208280: 28 18                	addi	a0, sp, 56
ffffffff80208282: 97 10 00 00          	auipc	ra, 1
ffffffff80208286: e7 80 00 ad          	jalr	-1328(ra)
ffffffff8020828a: a3 0b a1 00          	sb	a0, 23(sp)
ffffffff8020828e: 09 a0                	j	2
ffffffff80208290: 75 a8                	j	188

ffffffff80208292 .LBB6_33:
ffffffff80208292: 17 56 00 00          	auipc	a2, 5
ffffffff80208296: 13 06 26 ee          	addi	a2, a2, -286
ffffffff8020829a: 88 08                	addi	a0, sp, 80
ffffffff8020829c: a5 46                	addi	a3, zero, 9
ffffffff8020829e: a2 65                	ld	a1, 8(sp)
ffffffff802082a0: 97 10 00 00          	auipc	ra, 1
ffffffff802082a4: e7 80 a0 5c          	jalr	1482(ra)
ffffffff802082a8: 09 a0                	j	2
ffffffff802082aa: 88 08                	addi	a0, sp, 80
ffffffff802082ac: 97 10 00 00          	auipc	ra, 1
ffffffff802082b0: e7 80 60 aa          	jalr	-1370(ra)
ffffffff802082b4: a3 0b a1 00          	sb	a0, 23(sp)
ffffffff802082b8: 09 a0                	j	2
ffffffff802082ba: 49 a8                	j	146

ffffffff802082bc .LBB6_34:
ffffffff802082bc: 17 56 00 00          	auipc	a2, 5
ffffffff802082c0: 13 06 96 ea          	addi	a2, a2, -343
ffffffff802082c4: a8 10                	addi	a0, sp, 104
ffffffff802082c6: bd 46                	addi	a3, zero, 15
ffffffff802082c8: a2 65                	ld	a1, 8(sp)
ffffffff802082ca: 97 10 00 00          	auipc	ra, 1
ffffffff802082ce: e7 80 00 5a          	jalr	1440(ra)
ffffffff802082d2: 09 a0                	j	2
ffffffff802082d4: a8 10                	addi	a0, sp, 104
ffffffff802082d6: 97 10 00 00          	auipc	ra, 1
ffffffff802082da: e7 80 c0 a7          	jalr	-1412(ra)
ffffffff802082de: a3 0b a1 00          	sb	a0, 23(sp)
ffffffff802082e2: 09 a0                	j	2
ffffffff802082e4: a5 a0                	j	104

ffffffff802082e6 .LBB6_35:
ffffffff802082e6: 17 56 00 00          	auipc	a2, 5
ffffffff802082ea: 13 06 36 e7          	addi	a2, a2, -397
ffffffff802082ee: 08 01                	addi	a0, sp, 128
ffffffff802082f0: b1 46                	addi	a3, zero, 12
ffffffff802082f2: a2 65                	ld	a1, 8(sp)
ffffffff802082f4: 97 10 00 00          	auipc	ra, 1
ffffffff802082f8: e7 80 60 57          	jalr	1398(ra)
ffffffff802082fc: 09 a0                	j	2
ffffffff802082fe: 08 01                	addi	a0, sp, 128
ffffffff80208300: 97 10 00 00          	auipc	ra, 1
ffffffff80208304: e7 80 20 a5          	jalr	-1454(ra)
ffffffff80208308: a3 0b a1 00          	sb	a0, 23(sp)
ffffffff8020830c: 09 a0                	j	2
ffffffff8020830e: 3d a8                	j	62

ffffffff80208310 .LBB6_36:
ffffffff80208310: 17 56 00 00          	auipc	a2, 5
ffffffff80208314: 13 06 76 e3          	addi	a2, a2, -457
ffffffff80208318: 28 09                	addi	a0, sp, 152
ffffffff8020831a: c9 46                	addi	a3, zero, 18
ffffffff8020831c: a2 65                	ld	a1, 8(sp)
ffffffff8020831e: 97 10 00 00          	auipc	ra, 1
ffffffff80208322: e7 80 c0 54          	jalr	1356(ra)
ffffffff80208326: 09 a0                	j	2
ffffffff80208328: 28 09                	addi	a0, sp, 152
ffffffff8020832a: 97 10 00 00          	auipc	ra, 1
ffffffff8020832e: e7 80 80 a2          	jalr	-1496(ra)
ffffffff80208332: a3 0b a1 00          	sb	a0, 23(sp)
ffffffff80208336: 09 a0                	j	2
ffffffff80208338: 11 a8                	j	20
ffffffff8020833a: 08 19                	addi	a0, sp, 176
ffffffff8020833c: 97 10 00 00          	auipc	ra, 1
ffffffff80208340: e7 80 60 a1          	jalr	-1514(ra)
ffffffff80208344: a3 0b a1 00          	sb	a0, 23(sp)
ffffffff80208348: 09 a0                	j	2
ffffffff8020834a: 09 a0                	j	2
ffffffff8020834c: 03 45 71 01          	lbu	a0, 23(sp)
ffffffff80208350: ee 60                	ld	ra, 216(sp)
ffffffff80208352: 2d 61                	addi	sp, sp, 224
ffffffff80208354: 82 80                	ret

ffffffff80208356 _ZN71_$LT$riscv..register..scause..Exception$u20$as$u20$core..fmt..Debug$GT$3fmt17h11558561adbc92a9E:
ffffffff80208356: 0d 71                	addi	sp, sp, -352
ffffffff80208358: 86 ee                	sd	ra, 344(sp)
ffffffff8020835a: aa e6                	sd	a0, 328(sp)
ffffffff8020835c: ae ea                	sd	a1, 336(sp)
ffffffff8020835e: 2a f0                	sd	a0, 32(sp)
ffffffff80208360: 03 45 05 00          	lbu	a0, 0(a0)
ffffffff80208364: 01 46                	mv	a2, zero
ffffffff80208366: 2e e8                	sd	a1, 16(sp)
ffffffff80208368: 2a e4                	sd	a0, 8(sp)
ffffffff8020836a: 63 02 c5 08          	beq	a0, a2, 132
ffffffff8020836e: 09 a0                	j	2
ffffffff80208370: 05 45                	addi	a0, zero, 1
ffffffff80208372: a2 65                	ld	a1, 8(sp)
ffffffff80208374: 63 82 a5 0a          	beq	a1, a0, 164
ffffffff80208378: 09 a0                	j	2
ffffffff8020837a: 09 45                	addi	a0, zero, 2
ffffffff8020837c: a2 65                	ld	a1, 8(sp)
ffffffff8020837e: 63 82 a5 0c          	beq	a1, a0, 196
ffffffff80208382: 09 a0                	j	2
ffffffff80208384: 0d 45                	addi	a0, zero, 3
ffffffff80208386: a2 65                	ld	a1, 8(sp)
ffffffff80208388: 63 82 a5 0e          	beq	a1, a0, 228
ffffffff8020838c: 09 a0                	j	2
ffffffff8020838e: 11 45                	addi	a0, zero, 4
ffffffff80208390: a2 65                	ld	a1, 8(sp)
ffffffff80208392: 63 82 a5 10          	beq	a1, a0, 260
ffffffff80208396: 09 a0                	j	2
ffffffff80208398: 15 45                	addi	a0, zero, 5
ffffffff8020839a: a2 65                	ld	a1, 8(sp)
ffffffff8020839c: 63 82 a5 12          	beq	a1, a0, 292
ffffffff802083a0: 09 a0                	j	2
ffffffff802083a2: 19 45                	addi	a0, zero, 6
ffffffff802083a4: a2 65                	ld	a1, 8(sp)
ffffffff802083a6: 63 82 a5 14          	beq	a1, a0, 324
ffffffff802083aa: 09 a0                	j	2
ffffffff802083ac: 1d 45                	addi	a0, zero, 7
ffffffff802083ae: a2 65                	ld	a1, 8(sp)
ffffffff802083b0: 63 82 a5 16          	beq	a1, a0, 356
ffffffff802083b4: 09 a0                	j	2
ffffffff802083b6: 21 45                	addi	a0, zero, 8
ffffffff802083b8: a2 65                	ld	a1, 8(sp)
ffffffff802083ba: 63 82 a5 18          	beq	a1, a0, 388
ffffffff802083be: 09 a0                	j	2
ffffffff802083c0: 25 45                	addi	a0, zero, 9
ffffffff802083c2: a2 65                	ld	a1, 8(sp)
ffffffff802083c4: 63 82 a5 1a          	beq	a1, a0, 420
ffffffff802083c8: 09 a0                	j	2
ffffffff802083ca: 29 45                	addi	a0, zero, 10
ffffffff802083cc: a2 65                	ld	a1, 8(sp)
ffffffff802083ce: 63 82 a5 1c          	beq	a1, a0, 452
ffffffff802083d2: 09 a0                	j	2

ffffffff802083d4 .LBB7_50:
ffffffff802083d4: 17 56 00 00          	auipc	a2, 5
ffffffff802083d8: 13 06 c6 d6          	addi	a2, a2, -660
ffffffff802083dc: 08 1a                	addi	a0, sp, 304
ffffffff802083de: 9d 46                	addi	a3, zero, 7
ffffffff802083e0: c2 65                	ld	a1, 16(sp)
ffffffff802083e2: 97 10 00 00          	auipc	ra, 1
ffffffff802083e6: e7 80 80 48          	jalr	1160(ra)
ffffffff802083ea: c9 aa                	j	466
ffffffff802083ec: 00 00                	unimp	

ffffffff802083ee .LBB7_51:
ffffffff802083ee: 17 56 00 00          	auipc	a2, 5
ffffffff802083f2: 13 06 56 e1          	addi	a2, a2, -491
ffffffff802083f6: 28 10                	addi	a0, sp, 40
ffffffff802083f8: d5 46                	addi	a3, zero, 21
ffffffff802083fa: c2 65                	ld	a1, 16(sp)
ffffffff802083fc: 97 10 00 00          	auipc	ra, 1
ffffffff80208400: e7 80 e0 46          	jalr	1134(ra)
ffffffff80208404: 09 a0                	j	2
ffffffff80208406: 28 10                	addi	a0, sp, 40
ffffffff80208408: 97 10 00 00          	auipc	ra, 1
ffffffff8020840c: e7 80 a0 94          	jalr	-1718(ra)
ffffffff80208410: a3 0f a1 00          	sb	a0, 31(sp)
ffffffff80208414: 09 a0                	j	2
ffffffff80208416: 65 aa                	j	440

ffffffff80208418 .LBB7_52:
ffffffff80208418: 17 36 00 00          	auipc	a2, 3
ffffffff8020841c: 13 06 06 f2          	addi	a2, a2, -224
ffffffff80208420: 88 00                	addi	a0, sp, 64
ffffffff80208422: c1 46                	addi	a3, zero, 16
ffffffff80208424: c2 65                	ld	a1, 16(sp)
ffffffff80208426: 97 10 00 00          	auipc	ra, 1
ffffffff8020842a: e7 80 40 44          	jalr	1092(ra)
ffffffff8020842e: 09 a0                	j	2
ffffffff80208430: 88 00                	addi	a0, sp, 64
ffffffff80208432: 97 10 00 00          	auipc	ra, 1
ffffffff80208436: e7 80 00 92          	jalr	-1760(ra)
ffffffff8020843a: a3 0f a1 00          	sb	a0, 31(sp)
ffffffff8020843e: 09 a0                	j	2
ffffffff80208440: 79 a2                	j	398

ffffffff80208442 .LBB7_53:
ffffffff80208442: 17 56 00 00          	auipc	a2, 5
ffffffff80208446: 13 06 f6 da          	addi	a2, a2, -593
ffffffff8020844a: a8 08                	addi	a0, sp, 88
ffffffff8020844c: c9 46                	addi	a3, zero, 18
ffffffff8020844e: c2 65                	ld	a1, 16(sp)
ffffffff80208450: 97 10 00 00          	auipc	ra, 1
ffffffff80208454: e7 80 a0 41          	jalr	1050(ra)
ffffffff80208458: 09 a0                	j	2
ffffffff8020845a: a8 08                	addi	a0, sp, 88
ffffffff8020845c: 97 10 00 00          	auipc	ra, 1
ffffffff80208460: e7 80 60 8f          	jalr	-1802(ra)
ffffffff80208464: a3 0f a1 00          	sb	a0, 31(sp)
ffffffff80208468: 09 a0                	j	2
ffffffff8020846a: 95 a2                	j	356

ffffffff8020846c .LBB7_54:
ffffffff8020846c: 17 56 00 00          	auipc	a2, 5
ffffffff80208470: 13 06 b6 d7          	addi	a2, a2, -645
ffffffff80208474: 88 18                	addi	a0, sp, 112
ffffffff80208476: a9 46                	addi	a3, zero, 10
ffffffff80208478: c2 65                	ld	a1, 16(sp)
ffffffff8020847a: 97 10 00 00          	auipc	ra, 1
ffffffff8020847e: e7 80 00 3f          	jalr	1008(ra)
ffffffff80208482: 09 a0                	j	2
ffffffff80208484: 88 18                	addi	a0, sp, 112
ffffffff80208486: 97 10 00 00          	auipc	ra, 1
ffffffff8020848a: e7 80 c0 8c          	jalr	-1844(ra)
ffffffff8020848e: a3 0f a1 00          	sb	a0, 31(sp)
ffffffff80208492: 09 a0                	j	2
ffffffff80208494: 2d aa                	j	314

ffffffff80208496 .LBB7_55:
ffffffff80208496: 17 56 00 00          	auipc	a2, 5
ffffffff8020849a: 13 06 86 d4          	addi	a2, a2, -696
ffffffff8020849e: 28 01                	addi	a0, sp, 136
ffffffff802084a0: a5 46                	addi	a3, zero, 9
ffffffff802084a2: c2 65                	ld	a1, 16(sp)
ffffffff802084a4: 97 10 00 00          	auipc	ra, 1
ffffffff802084a8: e7 80 60 3c          	jalr	966(ra)
ffffffff802084ac: 09 a0                	j	2
ffffffff802084ae: 28 01                	addi	a0, sp, 136
ffffffff802084b0: 97 10 00 00          	auipc	ra, 1
ffffffff802084b4: e7 80 20 8a          	jalr	-1886(ra)
ffffffff802084b8: a3 0f a1 00          	sb	a0, 31(sp)
ffffffff802084bc: 09 a0                	j	2
ffffffff802084be: 01 aa                	j	272

ffffffff802084c0 .LBB7_56:
ffffffff802084c0: 17 56 00 00          	auipc	a2, 5
ffffffff802084c4: 13 06 f6 d0          	addi	a2, a2, -753
ffffffff802084c8: 08 11                	addi	a0, sp, 160
ffffffff802084ca: bd 46                	addi	a3, zero, 15
ffffffff802084cc: c2 65                	ld	a1, 16(sp)
ffffffff802084ce: 97 10 00 00          	auipc	ra, 1
ffffffff802084d2: e7 80 c0 39          	jalr	924(ra)
ffffffff802084d6: 09 a0                	j	2
ffffffff802084d8: 08 11                	addi	a0, sp, 160
ffffffff802084da: 97 10 00 00          	auipc	ra, 1
ffffffff802084de: e7 80 80 87          	jalr	-1928(ra)
ffffffff802084e2: a3 0f a1 00          	sb	a0, 31(sp)
ffffffff802084e6: 09 a0                	j	2
ffffffff802084e8: dd a0                	j	230

ffffffff802084ea .LBB7_57:
ffffffff802084ea: 17 56 00 00          	auipc	a2, 5
ffffffff802084ee: 13 06 b6 cd          	addi	a2, a2, -805
ffffffff802084f2: 28 19                	addi	a0, sp, 184
ffffffff802084f4: a9 46                	addi	a3, zero, 10
ffffffff802084f6: c2 65                	ld	a1, 16(sp)
ffffffff802084f8: 97 10 00 00          	auipc	ra, 1
ffffffff802084fc: e7 80 20 37          	jalr	882(ra)
ffffffff80208500: 09 a0                	j	2
ffffffff80208502: 28 19                	addi	a0, sp, 184
ffffffff80208504: 97 10 00 00          	auipc	ra, 1
ffffffff80208508: e7 80 e0 84          	jalr	-1970(ra)
ffffffff8020850c: a3 0f a1 00          	sb	a0, 31(sp)
ffffffff80208510: 09 a0                	j	2
ffffffff80208512: 75 a8                	j	188

ffffffff80208514 .LBB7_58:
ffffffff80208514: 17 56 00 00          	auipc	a2, 5
ffffffff80208518: 13 06 66 ca          	addi	a2, a2, -858
ffffffff8020851c: 88 09                	addi	a0, sp, 208
ffffffff8020851e: ad 46                	addi	a3, zero, 11
ffffffff80208520: c2 65                	ld	a1, 16(sp)
ffffffff80208522: 97 10 00 00          	auipc	ra, 1
ffffffff80208526: e7 80 80 34          	jalr	840(ra)
ffffffff8020852a: 09 a0                	j	2
ffffffff8020852c: 88 09                	addi	a0, sp, 208
ffffffff8020852e: 97 10 00 00          	auipc	ra, 1
ffffffff80208532: e7 80 40 82          	jalr	-2012(ra)
ffffffff80208536: a3 0f a1 00          	sb	a0, 31(sp)
ffffffff8020853a: 09 a0                	j	2
ffffffff8020853c: 49 a8                	j	146

ffffffff8020853e .LBB7_59:
ffffffff8020853e: 17 56 00 00          	auipc	a2, 5
ffffffff80208542: 13 06 86 c6          	addi	a2, a2, -920
ffffffff80208546: a8 11                	addi	a0, sp, 232
ffffffff80208548: d1 46                	addi	a3, zero, 20
ffffffff8020854a: c2 65                	ld	a1, 16(sp)
ffffffff8020854c: 97 10 00 00          	auipc	ra, 1
ffffffff80208550: e7 80 e0 31          	jalr	798(ra)
ffffffff80208554: 09 a0                	j	2
ffffffff80208556: a8 11                	addi	a0, sp, 232
ffffffff80208558: 97 00 00 00          	auipc	ra, 0
ffffffff8020855c: e7 80 a0 7f          	jalr	2042(ra)
ffffffff80208560: a3 0f a1 00          	sb	a0, 31(sp)
ffffffff80208564: 09 a0                	j	2
ffffffff80208566: a5 a0                	j	104

ffffffff80208568 .LBB7_60:
ffffffff80208568: 17 56 00 00          	auipc	a2, 5
ffffffff8020856c: 13 06 16 c3          	addi	a2, a2, -975
ffffffff80208570: 08 02                	addi	a0, sp, 256
ffffffff80208572: b5 46                	addi	a3, zero, 13
ffffffff80208574: c2 65                	ld	a1, 16(sp)
ffffffff80208576: 97 10 00 00          	auipc	ra, 1
ffffffff8020857a: e7 80 40 2f          	jalr	756(ra)
ffffffff8020857e: 09 a0                	j	2
ffffffff80208580: 08 02                	addi	a0, sp, 256
ffffffff80208582: 97 00 00 00          	auipc	ra, 0
ffffffff80208586: e7 80 00 7d          	jalr	2000(ra)
ffffffff8020858a: a3 0f a1 00          	sb	a0, 31(sp)
ffffffff8020858e: 09 a0                	j	2
ffffffff80208590: 3d a8                	j	62

ffffffff80208592 .LBB7_61:
ffffffff80208592: 17 56 00 00          	auipc	a2, 5
ffffffff80208596: 13 06 96 bf          	addi	a2, a2, -1031
ffffffff8020859a: 28 0a                	addi	a0, sp, 280
ffffffff8020859c: b9 46                	addi	a3, zero, 14
ffffffff8020859e: c2 65                	ld	a1, 16(sp)
ffffffff802085a0: 97 10 00 00          	auipc	ra, 1
ffffffff802085a4: e7 80 a0 2c          	jalr	714(ra)
ffffffff802085a8: 09 a0                	j	2
ffffffff802085aa: 28 0a                	addi	a0, sp, 280
ffffffff802085ac: 97 00 00 00          	auipc	ra, 0
ffffffff802085b0: e7 80 60 7a          	jalr	1958(ra)
ffffffff802085b4: a3 0f a1 00          	sb	a0, 31(sp)
ffffffff802085b8: 09 a0                	j	2
ffffffff802085ba: 11 a8                	j	20
ffffffff802085bc: 08 1a                	addi	a0, sp, 304
ffffffff802085be: 97 00 00 00          	auipc	ra, 0
ffffffff802085c2: e7 80 40 79          	jalr	1940(ra)
ffffffff802085c6: a3 0f a1 00          	sb	a0, 31(sp)
ffffffff802085ca: 09 a0                	j	2
ffffffff802085cc: 09 a0                	j	2
ffffffff802085ce: 03 45 f1 01          	lbu	a0, 31(sp)
ffffffff802085d2: f6 60                	ld	ra, 344(sp)
ffffffff802085d4: 35 61                	addi	sp, sp, 352
ffffffff802085d6: 82 80                	ret

ffffffff802085d8 _ZN4core3fmt3num52_$LT$impl$u20$core..fmt..Debug$u20$for$u20$usize$GT$3fmt17h9317459c4c321fa0E:
ffffffff802085d8: 39 71                	addi	sp, sp, -64
ffffffff802085da: 06 fc                	sd	ra, 56(sp)
ffffffff802085dc: 2a f4                	sd	a0, 40(sp)
ffffffff802085de: 2e f8                	sd	a1, 48(sp)
ffffffff802085e0: 2a ec                	sd	a0, 24(sp)
ffffffff802085e2: 2e 85                	add	a0, zero, a1
ffffffff802085e4: 2e e8                	sd	a1, 16(sp)
ffffffff802085e6: 97 10 00 00          	auipc	ra, 1
ffffffff802085ea: e7 80 00 24          	jalr	576(ra)
ffffffff802085ee: 2a e4                	sd	a0, 8(sp)
ffffffff802085f0: 09 a0                	j	2
ffffffff802085f2: 22 65                	ld	a0, 8(sp)
ffffffff802085f4: 09 e9                	bnez	a0, 18
ffffffff802085f6: 09 a0                	j	2
ffffffff802085f8: 42 65                	ld	a0, 16(sp)
ffffffff802085fa: 97 10 00 00          	auipc	ra, 1
ffffffff802085fe: e7 80 60 23          	jalr	566(ra)
ffffffff80208602: 2a e0                	sd	a0, 0(sp)
ffffffff80208604: 19 a8                	j	22
ffffffff80208606: 62 65                	ld	a0, 24(sp)
ffffffff80208608: c2 65                	ld	a1, 16(sp)
ffffffff8020860a: 97 20 00 00          	auipc	ra, 2
ffffffff8020860e: e7 80 c0 ca          	jalr	-852(ra)
ffffffff80208612: a3 03 a1 02          	sb	a0, 39(sp)
ffffffff80208616: 09 a0                	j	2
ffffffff80208618: 0d a8                	j	50
ffffffff8020861a: 02 65                	ld	a0, 0(sp)
ffffffff8020861c: 19 e9                	bnez	a0, 22
ffffffff8020861e: 09 a0                	j	2
ffffffff80208620: 62 65                	ld	a0, 24(sp)
ffffffff80208622: c2 65                	ld	a1, 16(sp)
ffffffff80208624: 97 20 00 00          	auipc	ra, 2
ffffffff80208628: e7 80 40 f5          	jalr	-172(ra)
ffffffff8020862c: a3 03 a1 02          	sb	a0, 39(sp)
ffffffff80208630: 19 a8                	j	22
ffffffff80208632: 62 65                	ld	a0, 24(sp)
ffffffff80208634: c2 65                	ld	a1, 16(sp)
ffffffff80208636: 97 20 00 00          	auipc	ra, 2
ffffffff8020863a: e7 80 00 d0          	jalr	-768(ra)
ffffffff8020863e: a3 03 a1 02          	sb	a0, 39(sp)
ffffffff80208642: 09 a0                	j	2
ffffffff80208644: 11 a0                	j	4
ffffffff80208646: 09 a0                	j	2
ffffffff80208648: 09 a0                	j	2
ffffffff8020864a: 03 45 71 02          	lbu	a0, 39(sp)
ffffffff8020864e: e2 70                	ld	ra, 56(sp)
ffffffff80208650: 21 61                	addi	sp, sp, 64
ffffffff80208652: 82 80                	ret

ffffffff80208654 _ZN4core3ptr13drop_in_place17h3eb454a79fa9e11bE:
ffffffff80208654: 41 11                	addi	sp, sp, -16
ffffffff80208656: 2a e4                	sd	a0, 8(sp)
ffffffff80208658: 41 01                	addi	sp, sp, 16
ffffffff8020865a: 82 80                	ret

ffffffff8020865c _ZN4core3ptr13drop_in_place17hb083edd4bd62864bE:
ffffffff8020865c: 41 11                	addi	sp, sp, -16
ffffffff8020865e: 2a e4                	sd	a0, 8(sp)
ffffffff80208660: 41 01                	addi	sp, sp, 16
ffffffff80208662: 82 80                	ret

ffffffff80208664 _ZN4core3ptr13drop_in_place17hb3215e44bfff05ebE:
ffffffff80208664: 41 11                	addi	sp, sp, -16
ffffffff80208666: 2a e4                	sd	a0, 8(sp)
ffffffff80208668: 41 01                	addi	sp, sp, 16
ffffffff8020866a: 82 80                	ret

ffffffff8020866c _ZN42_$LT$$RF$T$u20$as$u20$core..fmt..Debug$GT$3fmt17h793791e274364da5E:
ffffffff8020866c: 01 11                	addi	sp, sp, -32
ffffffff8020866e: 06 ec                	sd	ra, 24(sp)
ffffffff80208670: 2a e4                	sd	a0, 8(sp)
ffffffff80208672: 2e e8                	sd	a1, 16(sp)
ffffffff80208674: 08 61                	ld	a0, 0(a0)
ffffffff80208676: 97 00 00 00          	auipc	ra, 0
ffffffff8020867a: e7 80 20 f6          	jalr	-158(ra)
ffffffff8020867e: 2a e0                	sd	a0, 0(sp)
ffffffff80208680: 09 a0                	j	2
ffffffff80208682: 02 65                	ld	a0, 0(sp)
ffffffff80208684: e2 60                	ld	ra, 24(sp)
ffffffff80208686: 05 61                	addi	sp, sp, 32
ffffffff80208688: 82 80                	ret

ffffffff8020868a _ZN70_$LT$riscv..register..sstatus..Sstatus$u20$as$u20$core..fmt..Debug$GT$3fmt17h3ec08e52b8a41724E:
ffffffff8020868a: 5d 71                	addi	sp, sp, -80
ffffffff8020868c: 86 e4                	sd	ra, 72(sp)
ffffffff8020868e: 2a f8                	sd	a0, 48(sp)
ffffffff80208690: 2e fc                	sd	a1, 56(sp)
ffffffff80208692: aa e0                	sd	a0, 64(sp)

ffffffff80208694 .LBB15_4:
ffffffff80208694: 17 56 00 00          	auipc	a2, 5
ffffffff80208698: 13 06 46 b8          	addi	a2, a2, -1148
ffffffff8020869c: 34 08                	addi	a3, sp, 24
ffffffff8020869e: 1d 47                	addi	a4, zero, 7
ffffffff802086a0: 2a e8                	sd	a0, 16(sp)
ffffffff802086a2: 36 85                	add	a0, zero, a3
ffffffff802086a4: ba 86                	add	a3, zero, a4
ffffffff802086a6: 97 10 00 00          	auipc	ra, 1
ffffffff802086aa: e7 80 60 19          	jalr	406(ra)
ffffffff802086ae: 09 a0                	j	2
ffffffff802086b0: 42 65                	ld	a0, 16(sp)
ffffffff802086b2: 2a f4                	sd	a0, 40(sp)

ffffffff802086b4 .LBB15_5:
ffffffff802086b4: 97 35 00 00          	auipc	a1, 3
ffffffff802086b8: 93 85 c5 9a          	addi	a1, a1, -1620

ffffffff802086bc .LBB15_6:
ffffffff802086bc: 17 57 00 00          	auipc	a4, 5
ffffffff802086c0: 13 07 47 b6          	addi	a4, a4, -1180
ffffffff802086c4: 28 08                	addi	a0, sp, 24
ffffffff802086c6: 11 46                	addi	a2, zero, 4
ffffffff802086c8: 34 10                	addi	a3, sp, 40
ffffffff802086ca: 97 00 00 00          	auipc	ra, 0
ffffffff802086ce: e7 80 e0 3e          	jalr	1006(ra)
ffffffff802086d2: 09 a0                	j	2
ffffffff802086d4: 28 08                	addi	a0, sp, 24
ffffffff802086d6: 97 00 00 00          	auipc	ra, 0
ffffffff802086da: e7 80 a0 53          	jalr	1338(ra)
ffffffff802086de: 2a e4                	sd	a0, 8(sp)
ffffffff802086e0: 09 a0                	j	2
ffffffff802086e2: 22 65                	ld	a0, 8(sp)
ffffffff802086e4: a6 60                	ld	ra, 72(sp)
ffffffff802086e6: 61 61                	addi	sp, sp, 80
ffffffff802086e8: 82 80                	ret

ffffffff802086ea _ZN4core3ptr9const_ptr33_$LT$impl$u20$$BP$const$u20$T$GT$12wrapping_add17hae2a24c1fab07596E:
ffffffff802086ea: 01 11                	addi	sp, sp, -32
ffffffff802086ec: 06 ec                	sd	ra, 24(sp)
ffffffff802086ee: 2a e4                	sd	a0, 8(sp)
ffffffff802086f0: 2e e8                	sd	a1, 16(sp)
ffffffff802086f2: 97 00 00 00          	auipc	ra, 0
ffffffff802086f6: e7 80 40 01          	jalr	20(ra)
ffffffff802086fa: 2a e0                	sd	a0, 0(sp)
ffffffff802086fc: 09 a0                	j	2
ffffffff802086fe: 02 65                	ld	a0, 0(sp)
ffffffff80208700: e2 60                	ld	ra, 24(sp)
ffffffff80208702: 05 61                	addi	sp, sp, 32
ffffffff80208704: 82 80                	ret

ffffffff80208706 _ZN4core3ptr9const_ptr33_$LT$impl$u20$$BP$const$u20$T$GT$15wrapping_offset17h0ba5ec6548bc507dE:
ffffffff80208706: 01 11                	addi	sp, sp, -32
ffffffff80208708: 2a e4                	sd	a0, 8(sp)
ffffffff8020870a: 2e e8                	sd	a1, 16(sp)
ffffffff8020870c: 2e 95                	add	a0, a0, a1
ffffffff8020870e: 2a ec                	sd	a0, 24(sp)
ffffffff80208710: 2a e0                	sd	a0, 0(sp)
ffffffff80208712: 09 a0                	j	2
ffffffff80208714: 02 65                	ld	a0, 0(sp)
ffffffff80208716: 05 61                	addi	sp, sp, 32
ffffffff80208718: 82 80                	ret

ffffffff8020871a _ZN5alloc5alloc18handle_alloc_error17h4c810f2f0bf4d02eE:
ffffffff8020871a: 41 11                	addi	sp, sp, -16
ffffffff8020871c: 06 e4                	sd	ra, 8(sp)
ffffffff8020871e: 97 80 ff ff          	auipc	ra, 1048568
ffffffff80208722: e7 80 c0 30          	jalr	780(ra)
ffffffff80208726: 00 00                	unimp	

ffffffff80208728 _ZN5alloc7raw_vec17capacity_overflow17h04e69de28881a0cfE:
ffffffff80208728: 41 11                	addi	sp, sp, -16
ffffffff8020872a: 06 e4                	sd	ra, 8(sp)

ffffffff8020872c .LBB20_1:
ffffffff8020872c: 17 55 00 00          	auipc	a0, 5
ffffffff80208730: 13 05 b5 b2          	addi	a0, a0, -1237

ffffffff80208734 .LBB20_2:
ffffffff80208734: 17 56 00 00          	auipc	a2, 5
ffffffff80208738: 13 06 46 b3          	addi	a2, a2, -1228
ffffffff8020873c: c5 45                	addi	a1, zero, 17
ffffffff8020873e: 97 00 00 00          	auipc	ra, 0
ffffffff80208742: e7 80 a0 12          	jalr	298(ra)
ffffffff80208746: 00 00                	unimp	

ffffffff80208748 _ZN4core3ops8function6FnOnce9call_once17h18f451d4e9740791E:
ffffffff80208748: 08 61                	ld	a0, 0(a0)
ffffffff8020874a: 01 a0                	j	0

ffffffff8020874c _ZN4core3ptr13drop_in_place17h00027e84e2978af7E:
ffffffff8020874c: 82 80                	ret

ffffffff8020874e _ZN71_$LT$core..ops..range..Range$LT$Idx$GT$$u20$as$u20$core..fmt..Debug$GT$3fmt17h5b56fd9706c86594E:
ffffffff8020874e: 5d 71                	addi	sp, sp, -80
ffffffff80208750: 86 e4                	sd	ra, 72(sp)
ffffffff80208752: a2 e0                	sd	s0, 64(sp)
ffffffff80208754: 26 fc                	sd	s1, 56(sp)
ffffffff80208756: 2e 84                	add	s0, zero, a1
ffffffff80208758: aa 84                	add	s1, zero, a0
ffffffff8020875a: 97 20 00 00          	auipc	ra, 2
ffffffff8020875e: e7 80 80 9f          	jalr	-1544(ra)
ffffffff80208762: 1d e5                	bnez	a0, 46
ffffffff80208764: 08 70                	ld	a0, 32(s0)
ffffffff80208766: 0c 74                	ld	a1, 40(s0)

ffffffff80208768 .LBB76_4:
ffffffff80208768: 17 56 00 00          	auipc	a2, 5
ffffffff8020876c: 13 06 06 b6          	addi	a2, a2, -1184
ffffffff80208770: 32 e4                	sd	a2, 8(sp)
ffffffff80208772: 05 46                	addi	a2, zero, 1
ffffffff80208774: 32 e8                	sd	a2, 16(sp)
ffffffff80208776: 02 ec                	sd	zero, 24(sp)

ffffffff80208778 .LBB76_5:
ffffffff80208778: 17 56 00 00          	auipc	a2, 5
ffffffff8020877c: 13 06 86 b4          	addi	a2, a2, -1208
ffffffff80208780: 32 f4                	sd	a2, 40(sp)
ffffffff80208782: 02 f8                	sd	zero, 48(sp)
ffffffff80208784: 30 00                	addi	a2, sp, 8
ffffffff80208786: 97 10 00 00          	auipc	ra, 1
ffffffff8020878a: e7 80 a0 9d          	jalr	-1574(ra)
ffffffff8020878e: 19 c5                	beqz	a0, 14
ffffffff80208790: 05 45                	addi	a0, zero, 1
ffffffff80208792: e2 74                	ld	s1, 56(sp)
ffffffff80208794: 06 64                	ld	s0, 64(sp)
ffffffff80208796: a6 60                	ld	ra, 72(sp)
ffffffff80208798: 61 61                	addi	sp, sp, 80
ffffffff8020879a: 82 80                	ret
ffffffff8020879c: 13 85 84 00          	addi	a0, s1, 8
ffffffff802087a0: a2 85                	add	a1, zero, s0
ffffffff802087a2: e2 74                	ld	s1, 56(sp)
ffffffff802087a4: 06 64                	ld	s0, 64(sp)
ffffffff802087a6: a6 60                	ld	ra, 72(sp)
ffffffff802087a8: 61 61                	addi	sp, sp, 80
ffffffff802087aa: 17 23 00 00          	auipc	t1, 2
ffffffff802087ae: 67 00 83 9a          	jr	-1624(t1)

ffffffff802087b2 _ZN36_$LT$T$u20$as$u20$core..any..Any$GT$7type_id17hc8534dacc0949383E:
ffffffff802087b2: 37 85 a7 fa          	lui	a0, 1026680
ffffffff802087b6: 1b 05 d5 32          	addiw	a0, a0, 813
ffffffff802087ba: 32 05                	slli	a0, a0, 12
ffffffff802087bc: 13 05 d5 5b          	addi	a0, a0, 1469
ffffffff802087c0: 32 05                	slli	a0, a0, 12
ffffffff802087c2: 13 05 b5 58          	addi	a0, a0, 1419
ffffffff802087c6: 32 05                	slli	a0, a0, 12
ffffffff802087c8: 13 05 b5 48          	addi	a0, a0, 1163
ffffffff802087cc: 82 80                	ret

ffffffff802087ce _ZN4core6option13expect_failed17h1e072b597c05d52eE:
ffffffff802087ce: 1d 71                	addi	sp, sp, -96
ffffffff802087d0: 86 ec                	sd	ra, 88(sp)
ffffffff802087d2: 2a e4                	sd	a0, 8(sp)
ffffffff802087d4: 2e e8                	sd	a1, 16(sp)
ffffffff802087d6: 28 00                	addi	a0, sp, 8
ffffffff802087d8: aa e4                	sd	a0, 72(sp)

ffffffff802087da .LBB116_1:
ffffffff802087da: 17 25 00 00          	auipc	a0, 2
ffffffff802087de: 13 05 c5 dd          	addi	a0, a0, -548
ffffffff802087e2: aa e8                	sd	a0, 80(sp)

ffffffff802087e4 .LBB116_2:
ffffffff802087e4: 17 55 00 00          	auipc	a0, 5
ffffffff802087e8: 13 05 45 b2          	addi	a0, a0, -1244
ffffffff802087ec: 2a ec                	sd	a0, 24(sp)
ffffffff802087ee: 05 45                	addi	a0, zero, 1
ffffffff802087f0: 2a f0                	sd	a0, 32(sp)
ffffffff802087f2: 02 f4                	sd	zero, 40(sp)
ffffffff802087f4: ac 00                	addi	a1, sp, 72
ffffffff802087f6: 2e fc                	sd	a1, 56(sp)
ffffffff802087f8: aa e0                	sd	a0, 64(sp)
ffffffff802087fa: 28 08                	addi	a0, sp, 24
ffffffff802087fc: b2 85                	add	a1, zero, a2
ffffffff802087fe: 97 00 00 00          	auipc	ra, 0
ffffffff80208802: e7 80 60 0d          	jalr	214(ra)
ffffffff80208806: 00 00                	unimp	

ffffffff80208808 _ZN4core6result13unwrap_failed17hfee963a945caf0a4E:
ffffffff80208808: 19 71                	addi	sp, sp, -128
ffffffff8020880a: 86 fc                	sd	ra, 120(sp)
ffffffff8020880c: 2a e4                	sd	a0, 8(sp)
ffffffff8020880e: 2e e8                	sd	a1, 16(sp)
ffffffff80208810: 32 ec                	sd	a2, 24(sp)
ffffffff80208812: 36 f0                	sd	a3, 32(sp)
ffffffff80208814: 28 00                	addi	a0, sp, 8
ffffffff80208816: aa ec                	sd	a0, 88(sp)

ffffffff80208818 .LBB117_1:
ffffffff80208818: 17 25 00 00          	auipc	a0, 2
ffffffff8020881c: 13 05 e5 d9          	addi	a0, a0, -610
ffffffff80208820: aa f0                	sd	a0, 96(sp)
ffffffff80208822: 28 08                	addi	a0, sp, 24
ffffffff80208824: aa f4                	sd	a0, 104(sp)

ffffffff80208826 .LBB117_2:
ffffffff80208826: 17 25 00 00          	auipc	a0, 2
ffffffff8020882a: 13 05 85 d8          	addi	a0, a0, -632
ffffffff8020882e: aa f8                	sd	a0, 112(sp)

ffffffff80208830 .LBB117_3:
ffffffff80208830: 17 55 00 00          	auipc	a0, 5
ffffffff80208834: 13 05 05 af          	addi	a0, a0, -1296
ffffffff80208838: 2a f4                	sd	a0, 40(sp)
ffffffff8020883a: 09 45                	addi	a0, zero, 2
ffffffff8020883c: 2a f8                	sd	a0, 48(sp)
ffffffff8020883e: 02 fc                	sd	zero, 56(sp)
ffffffff80208840: ac 08                	addi	a1, sp, 88
ffffffff80208842: ae e4                	sd	a1, 72(sp)
ffffffff80208844: aa e8                	sd	a0, 80(sp)
ffffffff80208846: 28 10                	addi	a0, sp, 40
ffffffff80208848: ba 85                	add	a1, zero, a4
ffffffff8020884a: 97 00 00 00          	auipc	ra, 0
ffffffff8020884e: e7 80 a0 08          	jalr	138(ra)
ffffffff80208852: 00 00                	unimp	

ffffffff80208854 _ZN4core5panic9PanicInfo7message17h784f4369f0e35bc0E:
ffffffff80208854: 08 69                	ld	a0, 16(a0)
ffffffff80208856: 82 80                	ret

ffffffff80208858 _ZN4core5panic9PanicInfo8location17h5276564d58213a23E:
ffffffff80208858: 08 6d                	ld	a0, 24(a0)
ffffffff8020885a: 82 80                	ret

ffffffff8020885c _ZN4core5panic8Location4file17h3a82b9a2ab5b9c63E:
ffffffff8020885c: 10 61                	ld	a2, 0(a0)
ffffffff8020885e: 0c 65                	ld	a1, 8(a0)
ffffffff80208860: 32 85                	add	a0, zero, a2
ffffffff80208862: 82 80                	ret

ffffffff80208864 _ZN4core5panic8Location4line17h5e5073e8fe2bb208E:
ffffffff80208864: 08 49                	lw	a0, 16(a0)
ffffffff80208866: 82 80                	ret

ffffffff80208868 _ZN4core9panicking5panic17hada9984cc1d6f2faE:
ffffffff80208868: 5d 71                	addi	sp, sp, -80
ffffffff8020886a: 86 e4                	sd	ra, 72(sp)
ffffffff8020886c: 2a fc                	sd	a0, 56(sp)
ffffffff8020886e: ae e0                	sd	a1, 64(sp)
ffffffff80208870: 28 18                	addi	a0, sp, 56
ffffffff80208872: 2a e4                	sd	a0, 8(sp)
ffffffff80208874: 05 45                	addi	a0, zero, 1
ffffffff80208876: 2a e8                	sd	a0, 16(sp)
ffffffff80208878: 02 ec                	sd	zero, 24(sp)

ffffffff8020887a .LBB128_1:
ffffffff8020887a: 17 55 00 00          	auipc	a0, 5
ffffffff8020887e: 13 05 65 a4          	addi	a0, a0, -1466
ffffffff80208882: 2a f4                	sd	a0, 40(sp)
ffffffff80208884: 02 f8                	sd	zero, 48(sp)
ffffffff80208886: 28 00                	addi	a0, sp, 8
ffffffff80208888: b2 85                	add	a1, zero, a2
ffffffff8020888a: 97 00 00 00          	auipc	ra, 0
ffffffff8020888e: e7 80 a0 04          	jalr	74(ra)
ffffffff80208892: 00 00                	unimp	

ffffffff80208894 _ZN4core9panicking18panic_bounds_check17hb127dc4cc37fde7aE:
ffffffff80208894: 59 71                	addi	sp, sp, -112
ffffffff80208896: 86 f4                	sd	ra, 104(sp)
ffffffff80208898: 2a e4                	sd	a0, 8(sp)
ffffffff8020889a: 2e e8                	sd	a1, 16(sp)
ffffffff8020889c: 08 08                	addi	a0, sp, 16
ffffffff8020889e: aa e4                	sd	a0, 72(sp)

ffffffff802088a0 .LBB129_1:
ffffffff802088a0: 17 25 00 00          	auipc	a0, 2
ffffffff802088a4: 13 05 85 cd          	addi	a0, a0, -808
ffffffff802088a8: aa e8                	sd	a0, 80(sp)
ffffffff802088aa: 2c 00                	addi	a1, sp, 8
ffffffff802088ac: ae ec                	sd	a1, 88(sp)
ffffffff802088ae: aa f0                	sd	a0, 96(sp)

ffffffff802088b0 .LBB129_2:
ffffffff802088b0: 17 55 00 00          	auipc	a0, 5
ffffffff802088b4: 13 05 85 ac          	addi	a0, a0, -1336
ffffffff802088b8: 2a ec                	sd	a0, 24(sp)
ffffffff802088ba: 09 45                	addi	a0, zero, 2
ffffffff802088bc: 2a f0                	sd	a0, 32(sp)
ffffffff802088be: 02 f4                	sd	zero, 40(sp)
ffffffff802088c0: ac 00                	addi	a1, sp, 72
ffffffff802088c2: 2e fc                	sd	a1, 56(sp)
ffffffff802088c4: aa e0                	sd	a0, 64(sp)
ffffffff802088c6: 28 08                	addi	a0, sp, 24
ffffffff802088c8: b2 85                	add	a1, zero, a2
ffffffff802088ca: 97 00 00 00          	auipc	ra, 0
ffffffff802088ce: e7 80 a0 00          	jalr	10(ra)
ffffffff802088d2: 00 00                	unimp	

ffffffff802088d4 _ZN4core9panicking9panic_fmt17h2f823c72a23f8e31E:
ffffffff802088d4: 79 71                	addi	sp, sp, -48
ffffffff802088d6: 06 f4                	sd	ra, 40(sp)

ffffffff802088d8 .LBB130_1:
ffffffff802088d8: 17 56 00 00          	auipc	a2, 5
ffffffff802088dc: 13 06 86 9e          	addi	a2, a2, -1560
ffffffff802088e0: 32 e4                	sd	a2, 8(sp)

ffffffff802088e2 .LBB130_2:
ffffffff802088e2: 17 56 00 00          	auipc	a2, 5
ffffffff802088e6: 13 06 e6 a5          	addi	a2, a2, -1442
ffffffff802088ea: 32 e8                	sd	a2, 16(sp)
ffffffff802088ec: 2a ec                	sd	a0, 24(sp)
ffffffff802088ee: 2e f0                	sd	a1, 32(sp)
ffffffff802088f0: 28 00                	addi	a0, sp, 8
ffffffff802088f2: 97 90 ff ff          	auipc	ra, 1048569
ffffffff802088f6: e7 80 20 c1          	jalr	-1006(ra)
ffffffff802088fa: 00 00                	unimp	

ffffffff802088fc _ZN68_$LT$core..fmt..builders..PadAdapter$u20$as$u20$core..fmt..Write$GT$9write_str17he3aedd4f3d080c40E:
ffffffff802088fc: 35 71                	addi	sp, sp, -160
ffffffff802088fe: 06 ed                	sd	ra, 152(sp)
ffffffff80208900: 22 e9                	sd	s0, 144(sp)
ffffffff80208902: 26 e5                	sd	s1, 136(sp)
ffffffff80208904: 4a e1                	sd	s2, 128(sp)
ffffffff80208906: ce fc                	sd	s3, 120(sp)
ffffffff80208908: d2 f8                	sd	s4, 112(sp)
ffffffff8020890a: d6 f4                	sd	s5, 104(sp)
ffffffff8020890c: da f0                	sd	s6, 96(sp)
ffffffff8020890e: de ec                	sd	s7, 88(sp)
ffffffff80208910: e2 e8                	sd	s8, 80(sp)
ffffffff80208912: e6 e4                	sd	s9, 72(sp)
ffffffff80208914: ea e0                	sd	s10, 64(sp)
ffffffff80208916: 6e fc                	sd	s11, 56(sp)
ffffffff80208918: 63 09 06 12          	beqz	a2, 306
ffffffff8020891c: b2 8d                	add	s11, zero, a2
ffffffff8020891e: ae 8a                	add	s5, zero, a1
ffffffff80208920: 2a 89                	add	s2, zero, a0
ffffffff80208922: 13 0b 81 00          	addi	s6, sp, 8
ffffffff80208926: 93 09 cb 02          	addi	s3, s6, 44
ffffffff8020892a: 95 4b                	addi	s7, zero, 5
ffffffff8020892c: 13 95 1b 02          	slli	a0, s7, 33
ffffffff80208930: 13 0c a5 00          	addi	s8, a0, 10
ffffffff80208934: 85 4c                	addi	s9, zero, 1

ffffffff80208936 .LBB132_31:
ffffffff80208936: 17 25 00 00          	auipc	a0, 2
ffffffff8020893a: 13 05 e5 71          	addi	a0, a0, 1822
ffffffff8020893e: 2a e0                	sd	a0, 0(sp)
ffffffff80208940: 31 a0                	j	12
ffffffff80208942: b3 8d 8d 40          	sub	s11, s11, s0
ffffffff80208946: ea 8a                	add	s5, zero, s10
ffffffff80208948: 63 81 0d 10          	beqz	s11, 258
ffffffff8020894c: 03 35 09 01          	ld	a0, 16(s2)
ffffffff80208950: 03 45 05 00          	lbu	a0, 0(a0)
ffffffff80208954: 11 c9                	beqz	a0, 20
ffffffff80208956: 83 35 89 00          	ld	a1, 8(s2)
ffffffff8020895a: 03 35 09 00          	ld	a0, 0(s2)
ffffffff8020895e: 94 6d                	ld	a3, 24(a1)
ffffffff80208960: 11 46                	addi	a2, zero, 4
ffffffff80208962: 82 65                	ld	a1, 0(sp)
ffffffff80208964: 82 96                	jalr	a3
ffffffff80208966: 65 e5                	bnez	a0, 232
ffffffff80208968: 56 e4                	sd	s5, 8(sp)
ffffffff8020896a: 6e e8                	sd	s11, 16(sp)
ffffffff8020896c: 02 ec                	sd	zero, 24(sp)
ffffffff8020896e: 6e f0                	sd	s11, 32(sp)
ffffffff80208970: 62 f8                	sd	s8, 48(sp)
ffffffff80208972: 66 f4                	sd	s9, 40(sp)
ffffffff80208974: 29 45                	addi	a0, zero, 10
ffffffff80208976: d6 85                	add	a1, zero, s5
ffffffff80208978: 6e 86                	add	a2, zero, s11
ffffffff8020897a: 97 10 00 00          	auipc	ra, 1
ffffffff8020897e: e7 80 e0 29          	jalr	670(ra)
ffffffff80208982: 63 10 95 07          	bne	a0, s9, 96
ffffffff80208986: 62 65                	ld	a0, 24(sp)
ffffffff80208988: 2e 95                	add	a0, a0, a1
ffffffff8020898a: 93 04 15 00          	addi	s1, a0, 1
ffffffff8020898e: 26 ec                	sd	s1, 24(sp)
ffffffff80208990: 22 74                	ld	s0, 40(sp)
ffffffff80208992: 63 f4 84 00          	bgeu	s1, s0, 8
ffffffff80208996: 42 6d                	ld	s10, 16(sp)
ffffffff80208998: 1d a0                	j	38
ffffffff8020899a: 42 6d                	ld	s10, 16(sp)
ffffffff8020899c: 63 61 9d 02          	bltu	s10, s1, 34
ffffffff802089a0: 63 77 74 0d          	bgeu	s0, s7, 206
ffffffff802089a4: 22 65                	ld	a0, 8(sp)
ffffffff802089a6: 33 8a 84 40          	sub	s4, s1, s0
ffffffff802089aa: 52 95                	add	a0, a0, s4
ffffffff802089ac: 63 08 35 09          	beq	a0, s3, 144
ffffffff802089b0: ce 85                	add	a1, zero, s3
ffffffff802089b2: 22 86                	add	a2, zero, s0
ffffffff802089b4: 97 20 00 00          	auipc	ra, 2
ffffffff802089b8: e7 80 20 e3          	jalr	-462(ra)
ffffffff802089bc: 41 c1                	beqz	a0, 128
ffffffff802089be: 02 76                	ld	a2, 32(sp)
ffffffff802089c0: 63 63 96 02          	bltu	a2, s1, 38
ffffffff802089c4: 63 61 cd 02          	bltu	s10, a2, 34
ffffffff802089c8: a2 65                	ld	a1, 8(sp)
ffffffff802089ca: 33 05 64 01          	add	a0, s0, s6
ffffffff802089ce: 03 05 b5 02          	lb	a0, 43(a0)
ffffffff802089d2: a6 95                	add	a1, a1, s1
ffffffff802089d4: 05 8e                	sub	a2, a2, s1
ffffffff802089d6: 97 10 00 00          	auipc	ra, 1
ffffffff802089da: e7 80 20 24          	jalr	578(ra)
ffffffff802089de: e3 04 95 fb          	beq	a0, s9, -88
ffffffff802089e2: 02 75                	ld	a0, 32(sp)
ffffffff802089e4: 2a ec                	sd	a0, 24(sp)
ffffffff802089e6: 03 35 09 01          	ld	a0, 16(s2)
ffffffff802089ea: 23 00 05 00          	sb	zero, 0(a0)
ffffffff802089ee: 6e 84                	add	s0, zero, s11
ffffffff802089f0: 03 35 09 00          	ld	a0, 0(s2)
ffffffff802089f4: 83 35 89 00          	ld	a1, 8(s2)
ffffffff802089f8: 13 36 14 00          	seqz	a2, s0
ffffffff802089fc: b3 c6 8d 00          	xor	a3, s11, s0
ffffffff80208a00: 93 b6 16 00          	seqz	a3, a3
ffffffff80208a04: b3 64 d6 00          	or	s1, a2, a3
ffffffff80208a08: 33 8d 8a 00          	add	s10, s5, s0
ffffffff80208a0c: 89 e8                	bnez	s1, 18
ffffffff80208a0e: 63 7b b4 07          	bgeu	s0, s11, 118
ffffffff80208a12: 03 06 0d 00          	lb	a2, 0(s10)
ffffffff80208a16: 93 06 f0 fb          	addi	a3, zero, -65
ffffffff80208a1a: 63 d5 c6 06          	bge	a3, a2, 106
ffffffff80208a1e: 94 6d                	ld	a3, 24(a1)
ffffffff80208a20: d6 85                	add	a1, zero, s5
ffffffff80208a22: 22 86                	add	a2, zero, s0
ffffffff80208a24: 82 96                	jalr	a3
ffffffff80208a26: 05 e5                	bnez	a0, 40
ffffffff80208a28: 89 fc                	bnez	s1, -230
ffffffff80208a2a: 63 7a b4 07          	bgeu	s0, s11, 116
ffffffff80208a2e: 03 05 0d 00          	lb	a0, 0(s10)
ffffffff80208a32: 93 05 f0 fb          	addi	a1, zero, -65
ffffffff80208a36: e3 c6 a5 f0          	blt	a1, a0, -244
ffffffff80208a3a: 95 a0                	j	100
ffffffff80208a3c: 03 35 09 01          	ld	a0, 16(s2)
ffffffff80208a40: 23 00 95 01          	sb	s9, 0(a0)
ffffffff80208a44: 13 04 1a 00          	addi	s0, s4, 1
ffffffff80208a48: 65 b7                	j	-88
ffffffff80208a4a: 01 45                	mv	a0, zero
ffffffff80208a4c: 11 a0                	j	4
ffffffff80208a4e: 05 45                	addi	a0, zero, 1
ffffffff80208a50: e2 7d                	ld	s11, 56(sp)
ffffffff80208a52: 06 6d                	ld	s10, 64(sp)
ffffffff80208a54: a6 6c                	ld	s9, 72(sp)
ffffffff80208a56: 46 6c                	ld	s8, 80(sp)
ffffffff80208a58: e6 6b                	ld	s7, 88(sp)
ffffffff80208a5a: 06 7b                	ld	s6, 96(sp)
ffffffff80208a5c: a6 7a                	ld	s5, 104(sp)
ffffffff80208a5e: 46 7a                	ld	s4, 112(sp)
ffffffff80208a60: e6 79                	ld	s3, 120(sp)
ffffffff80208a62: 0a 69                	ld	s2, 128(sp)
ffffffff80208a64: aa 64                	ld	s1, 136(sp)
ffffffff80208a66: 4a 64                	ld	s0, 144(sp)
ffffffff80208a68: ea 60                	ld	ra, 152(sp)
ffffffff80208a6a: 0d 61                	addi	sp, sp, 160
ffffffff80208a6c: 82 80                	ret

ffffffff80208a6e .LBB132_32:
ffffffff80208a6e: 17 56 00 00          	auipc	a2, 5
ffffffff80208a72: 13 06 26 bd          	addi	a2, a2, -1070
ffffffff80208a76: 91 45                	addi	a1, zero, 4
ffffffff80208a78: 22 85                	add	a0, zero, s0
ffffffff80208a7a: 97 10 00 00          	auipc	ra, 1
ffffffff80208a7e: e7 80 a0 2b          	jalr	698(ra)
ffffffff80208a82: 00 00                	unimp	

ffffffff80208a84 .LBB132_33:
ffffffff80208a84: 17 57 00 00          	auipc	a4, 5
ffffffff80208a88: 13 07 c7 be          	addi	a4, a4, -1044
ffffffff80208a8c: 56 85                	add	a0, zero, s5
ffffffff80208a8e: ee 85                	add	a1, zero, s11
ffffffff80208a90: 01 46                	mv	a2, zero
ffffffff80208a92: a2 86                	add	a3, zero, s0
ffffffff80208a94: 97 10 00 00          	auipc	ra, 1
ffffffff80208a98: e7 80 00 32          	jalr	800(ra)
ffffffff80208a9c: 00 00                	unimp	

ffffffff80208a9e .LBB132_34:
ffffffff80208a9e: 17 57 00 00          	auipc	a4, 5
ffffffff80208aa2: 13 07 a7 be          	addi	a4, a4, -1046
ffffffff80208aa6: 56 85                	add	a0, zero, s5
ffffffff80208aa8: ee 85                	add	a1, zero, s11
ffffffff80208aaa: 22 86                	add	a2, zero, s0
ffffffff80208aac: ee 86                	add	a3, zero, s11
ffffffff80208aae: 97 10 00 00          	auipc	ra, 1
ffffffff80208ab2: e7 80 60 30          	jalr	774(ra)
ffffffff80208ab6: 00 00                	unimp	

ffffffff80208ab8 _ZN4core3fmt8builders11DebugStruct5field17he0bb0cc499e35d52E:
ffffffff80208ab8: 35 71                	addi	sp, sp, -160
ffffffff80208aba: 06 ed                	sd	ra, 152(sp)
ffffffff80208abc: 22 e9                	sd	s0, 144(sp)
ffffffff80208abe: 26 e5                	sd	s1, 136(sp)
ffffffff80208ac0: 4a e1                	sd	s2, 128(sp)
ffffffff80208ac2: ce fc                	sd	s3, 120(sp)
ffffffff80208ac4: d2 f8                	sd	s4, 112(sp)
ffffffff80208ac6: d6 f4                	sd	s5, 104(sp)
ffffffff80208ac8: da f0                	sd	s6, 96(sp)
ffffffff80208aca: 2a 84                	add	s0, zero, a0
ffffffff80208acc: 03 45 85 00          	lbu	a0, 8(a0)
ffffffff80208ad0: 05 4b                	addi	s6, zero, 1
ffffffff80208ad2: 85 44                	addi	s1, zero, 1
ffffffff80208ad4: 05 c1                	beqz	a0, 32
ffffffff80208ad6: 23 04 94 00          	sb	s1, 8(s0)
ffffffff80208ada: a3 04 64 01          	sb	s6, 9(s0)
ffffffff80208ade: 22 85                	add	a0, zero, s0
ffffffff80208ae0: 06 7b                	ld	s6, 96(sp)
ffffffff80208ae2: a6 7a                	ld	s5, 104(sp)
ffffffff80208ae4: 46 7a                	ld	s4, 112(sp)
ffffffff80208ae6: e6 79                	ld	s3, 120(sp)
ffffffff80208ae8: 0a 69                	ld	s2, 128(sp)
ffffffff80208aea: aa 64                	ld	s1, 136(sp)
ffffffff80208aec: 4a 64                	ld	s0, 144(sp)
ffffffff80208aee: ea 60                	ld	ra, 152(sp)
ffffffff80208af0: 0d 61                	addi	sp, sp, 160
ffffffff80208af2: 82 80                	ret
ffffffff80208af4: ba 89                	add	s3, zero, a4
ffffffff80208af6: 36 89                	add	s2, zero, a3
ffffffff80208af8: 32 8a                	add	s4, zero, a2
ffffffff80208afa: ae 8a                	add	s5, zero, a1
ffffffff80208afc: 08 60                	ld	a0, 0(s0)
ffffffff80208afe: 83 65 05 03          	lwu	a1, 48(a0)
ffffffff80208b02: 03 46 94 00          	lbu	a2, 9(s0)
ffffffff80208b06: 93 f6 45 00          	andi	a3, a1, 4
ffffffff80208b0a: 81 ea                	bnez	a3, 16
ffffffff80208b0c: 4d ca                	beqz	a2, 178

ffffffff80208b0e .LBB133_18:
ffffffff80208b0e: 97 55 00 00          	auipc	a1, 5
ffffffff80208b12: 93 85 f5 8b          	addi	a1, a1, -1857
ffffffff80208b16: 09 46                	addi	a2, zero, 2
ffffffff80208b18: 45 a8                	j	176
ffffffff80208b1a: 19 ee                	bnez	a2, 30
ffffffff80208b1c: 0c 75                	ld	a1, 40(a0)
ffffffff80208b1e: 08 71                	ld	a0, 32(a0)
ffffffff80208b20: 94 6d                	ld	a3, 24(a1)

ffffffff80208b22 .LBB133_19:
ffffffff80208b22: 97 55 00 00          	auipc	a1, 5
ffffffff80208b26: 93 85 65 8a          	addi	a1, a1, -1882
ffffffff80208b2a: 0d 46                	addi	a2, zero, 3
ffffffff80208b2c: 82 96                	jalr	a3
ffffffff80208b2e: 85 44                	addi	s1, zero, 1
ffffffff80208b30: 5d f1                	bnez	a0, -90
ffffffff80208b32: 08 60                	ld	a0, 0(s0)
ffffffff80208b34: 83 65 05 03          	lwu	a1, 48(a0)
ffffffff80208b38: 85 44                	addi	s1, zero, 1
ffffffff80208b3a: a3 0f 91 00          	sb	s1, 31(sp)
ffffffff80208b3e: 10 71                	ld	a2, 32(a0)
ffffffff80208b40: 14 75                	ld	a3, 40(a0)
ffffffff80208b42: 32 e0                	sd	a2, 0(sp)
ffffffff80208b44: 36 e4                	sd	a3, 8(sp)
ffffffff80208b46: 13 06 f1 01          	addi	a2, sp, 31
ffffffff80208b4a: 32 e8                	sd	a2, 16(sp)
ffffffff80208b4c: 50 59                	lw	a2, 52(a0)
ffffffff80208b4e: 83 06 85 03          	lb	a3, 56(a0)
ffffffff80208b52: 18 61                	ld	a4, 0(a0)
ffffffff80208b54: 1c 65                	ld	a5, 8(a0)
ffffffff80208b56: 03 38 05 01          	ld	a6, 16(a0)
ffffffff80208b5a: 08 6d                	ld	a0, 24(a0)
ffffffff80208b5c: ae c8                	sw	a1, 80(sp)
ffffffff80208b5e: b2 ca                	sw	a2, 84(sp)
ffffffff80208b60: 23 0c d1 04          	sb	a3, 88(sp)
ffffffff80208b64: 3a f0                	sd	a4, 32(sp)
ffffffff80208b66: 3e f4                	sd	a5, 40(sp)
ffffffff80208b68: 42 f8                	sd	a6, 48(sp)
ffffffff80208b6a: 2a fc                	sd	a0, 56(sp)
ffffffff80208b6c: 0a 85                	add	a0, zero, sp
ffffffff80208b6e: aa e0                	sd	a0, 64(sp)

ffffffff80208b70 .LBB133_20:
ffffffff80208b70: 97 55 00 00          	auipc	a1, 5
ffffffff80208b74: 93 85 85 82          	addi	a1, a1, -2008
ffffffff80208b78: ae e4                	sd	a1, 72(sp)
ffffffff80208b7a: d6 85                	add	a1, zero, s5
ffffffff80208b7c: 52 86                	add	a2, zero, s4
ffffffff80208b7e: 97 00 00 00          	auipc	ra, 0
ffffffff80208b82: e7 80 e0 d7          	jalr	-642(ra)
ffffffff80208b86: 21 f9                	bnez	a0, -176

ffffffff80208b88 .LBB133_21:
ffffffff80208b88: 97 45 00 00          	auipc	a1, 4
ffffffff80208b8c: 93 85 05 79          	addi	a1, a1, 1936
ffffffff80208b90: 0a 85                	add	a0, zero, sp
ffffffff80208b92: 09 46                	addi	a2, zero, 2
ffffffff80208b94: 97 00 00 00          	auipc	ra, 0
ffffffff80208b98: e7 80 80 d6          	jalr	-664(ra)
ffffffff80208b9c: 0d fd                	bnez	a0, -198
ffffffff80208b9e: 03 b6 89 01          	ld	a2, 24(s3)
ffffffff80208ba2: 0c 10                	addi	a1, sp, 32
ffffffff80208ba4: 4a 85                	add	a0, zero, s2
ffffffff80208ba6: 02 96                	jalr	a2
ffffffff80208ba8: 1d f5                	bnez	a0, -210
ffffffff80208baa: a6 65                	ld	a1, 72(sp)
ffffffff80208bac: 06 65                	ld	a0, 64(sp)
ffffffff80208bae: 94 6d                	ld	a3, 24(a1)

ffffffff80208bb0 .LBB133_22:
ffffffff80208bb0: 97 55 00 00          	auipc	a1, 5
ffffffff80208bb4: 93 85 b5 81          	addi	a1, a1, -2021
ffffffff80208bb8: 09 46                	addi	a2, zero, 2
ffffffff80208bba: 82 96                	jalr	a3
ffffffff80208bbc: 81 a8                	j	80

ffffffff80208bbe .LBB133_23:
ffffffff80208bbe: 97 55 00 00          	auipc	a1, 5
ffffffff80208bc2: 93 85 15 81          	addi	a1, a1, -2031
ffffffff80208bc6: 0d 46                	addi	a2, zero, 3
ffffffff80208bc8: 14 75                	ld	a3, 40(a0)
ffffffff80208bca: 08 71                	ld	a0, 32(a0)
ffffffff80208bcc: 94 6e                	ld	a3, 24(a3)
ffffffff80208bce: 82 96                	jalr	a3
ffffffff80208bd0: 85 44                	addi	s1, zero, 1
ffffffff80208bd2: 11 f1                	bnez	a0, -252
ffffffff80208bd4: 08 60                	ld	a0, 0(s0)
ffffffff80208bd6: 0c 75                	ld	a1, 40(a0)
ffffffff80208bd8: 08 71                	ld	a0, 32(a0)
ffffffff80208bda: 94 6d                	ld	a3, 24(a1)
ffffffff80208bdc: d6 85                	add	a1, zero, s5
ffffffff80208bde: 52 86                	add	a2, zero, s4
ffffffff80208be0: 82 96                	jalr	a3
ffffffff80208be2: 85 44                	addi	s1, zero, 1
ffffffff80208be4: e3 19 05 ee          	bnez	a0, -270
ffffffff80208be8: 08 60                	ld	a0, 0(s0)
ffffffff80208bea: 0c 75                	ld	a1, 40(a0)
ffffffff80208bec: 08 71                	ld	a0, 32(a0)
ffffffff80208bee: 94 6d                	ld	a3, 24(a1)

ffffffff80208bf0 .LBB133_24:
ffffffff80208bf0: 97 45 00 00          	auipc	a1, 4
ffffffff80208bf4: 93 85 85 72          	addi	a1, a1, 1832
ffffffff80208bf8: 09 46                	addi	a2, zero, 2
ffffffff80208bfa: 82 96                	jalr	a3
ffffffff80208bfc: 85 44                	addi	s1, zero, 1
ffffffff80208bfe: e3 1c 05 ec          	bnez	a0, -296
ffffffff80208c02: 0c 60                	ld	a1, 0(s0)
ffffffff80208c04: 03 b6 89 01          	ld	a2, 24(s3)
ffffffff80208c08: 4a 85                	add	a0, zero, s2
ffffffff80208c0a: 02 96                	jalr	a2
ffffffff80208c0c: aa 84                	add	s1, zero, a0
ffffffff80208c0e: e1 b5                	j	-312

ffffffff80208c10 _ZN4core3fmt8builders11DebugStruct6finish17h0ae4d84d7099b51cE:
ffffffff80208c10: 41 11                	addi	sp, sp, -16
ffffffff80208c12: 06 e4                	sd	ra, 8(sp)
ffffffff80208c14: 22 e0                	sd	s0, 0(sp)
ffffffff80208c16: 2a 84                	add	s0, zero, a0
ffffffff80208c18: 03 45 95 00          	lbu	a0, 9(a0)
ffffffff80208c1c: 83 45 84 00          	lbu	a1, 8(s0)
ffffffff80208c20: 1d c9                	beqz	a0, 54
ffffffff80208c22: 05 45                	addi	a0, zero, 1
ffffffff80208c24: 95 e5                	bnez	a1, 44
ffffffff80208c26: 08 60                	ld	a0, 0(s0)
ffffffff80208c28: 0c 75                	ld	a1, 40(a0)
ffffffff80208c2a: 03 46 05 03          	lbu	a2, 48(a0)
ffffffff80208c2e: 08 71                	ld	a0, 32(a0)
ffffffff80208c30: 94 6d                	ld	a3, 24(a1)
ffffffff80208c32: 93 75 46 00          	andi	a1, a2, 4
ffffffff80208c36: 99 e5                	bnez	a1, 14

ffffffff80208c38 .LBB135_8:
ffffffff80208c38: 97 45 00 00          	auipc	a1, 4
ffffffff80208c3c: 93 85 b5 79          	addi	a1, a1, 1947
ffffffff80208c40: 09 46                	addi	a2, zero, 2
ffffffff80208c42: 31 a0                	j	12

ffffffff80208c44 .LBB135_9:
ffffffff80208c44: 97 45 00 00          	auipc	a1, 4
ffffffff80208c48: 93 85 e5 78          	addi	a1, a1, 1934
ffffffff80208c4c: 05 46                	addi	a2, zero, 1
ffffffff80208c4e: 82 96                	jalr	a3
ffffffff80208c50: 23 04 a4 00          	sb	a0, 8(s0)
ffffffff80208c54: aa 85                	add	a1, zero, a0
ffffffff80208c56: 33 35 b0 00          	snez	a0, a1
ffffffff80208c5a: 02 64                	ld	s0, 0(sp)
ffffffff80208c5c: a2 60                	ld	ra, 8(sp)
ffffffff80208c5e: 41 01                	addi	sp, sp, 16
ffffffff80208c60: 82 80                	ret

ffffffff80208c62 _ZN4core3fmt8builders10DebugTuple5field17h10609664a1c96872E:
ffffffff80208c62: 75 71                	addi	sp, sp, -144
ffffffff80208c64: 06 e5                	sd	ra, 136(sp)
ffffffff80208c66: 22 e1                	sd	s0, 128(sp)
ffffffff80208c68: a6 fc                	sd	s1, 120(sp)
ffffffff80208c6a: ca f8                	sd	s2, 112(sp)
ffffffff80208c6c: ce f4                	sd	s3, 104(sp)
ffffffff80208c6e: 2a 84                	add	s0, zero, a0
ffffffff80208c70: 03 45 05 01          	lbu	a0, 16(a0)
ffffffff80208c74: 85 44                	addi	s1, zero, 1
ffffffff80208c76: 69 e1                	bnez	a0, 194
ffffffff80208c78: b2 89                	add	s3, zero, a2
ffffffff80208c7a: 2e 89                	add	s2, zero, a1
ffffffff80208c7c: 08 60                	ld	a0, 0(s0)
ffffffff80208c7e: 83 65 05 03          	lwu	a1, 48(a0)
ffffffff80208c82: 10 64                	ld	a2, 8(s0)
ffffffff80208c84: 93 f6 45 00          	andi	a3, a1, 4
ffffffff80208c88: 89 ea                	bnez	a3, 18
ffffffff80208c8a: 85 44                	addi	s1, zero, 1
ffffffff80208c8c: 51 c6                	beqz	a2, 140

ffffffff80208c8e .LBB136_14:
ffffffff80208c8e: 97 45 00 00          	auipc	a1, 4
ffffffff80208c92: 93 85 f5 73          	addi	a1, a1, 1855
ffffffff80208c96: 09 46                	addi	a2, zero, 2
ffffffff80208c98: 69 a0                	j	138
ffffffff80208c9a: 11 ee                	bnez	a2, 28
ffffffff80208c9c: 0c 75                	ld	a1, 40(a0)
ffffffff80208c9e: 08 71                	ld	a0, 32(a0)
ffffffff80208ca0: 94 6d                	ld	a3, 24(a1)

ffffffff80208ca2 .LBB136_15:
ffffffff80208ca2: 97 45 00 00          	auipc	a1, 4
ffffffff80208ca6: 93 85 35 73          	addi	a1, a1, 1843
ffffffff80208caa: 09 46                	addi	a2, zero, 2
ffffffff80208cac: 82 96                	jalr	a3
ffffffff80208cae: 49 e5                	bnez	a0, 138
ffffffff80208cb0: 08 60                	ld	a0, 0(s0)
ffffffff80208cb2: 83 65 05 03          	lwu	a1, 48(a0)
ffffffff80208cb6: 85 44                	addi	s1, zero, 1
ffffffff80208cb8: a3 03 91 02          	sb	s1, 39(sp)
ffffffff80208cbc: 10 71                	ld	a2, 32(a0)
ffffffff80208cbe: 14 75                	ld	a3, 40(a0)
ffffffff80208cc0: 32 e4                	sd	a2, 8(sp)
ffffffff80208cc2: 36 e8                	sd	a3, 16(sp)
ffffffff80208cc4: 13 06 71 02          	addi	a2, sp, 39
ffffffff80208cc8: 32 ec                	sd	a2, 24(sp)
ffffffff80208cca: 50 59                	lw	a2, 52(a0)
ffffffff80208ccc: 83 06 85 03          	lb	a3, 56(a0)
ffffffff80208cd0: 18 61                	ld	a4, 0(a0)
ffffffff80208cd2: 1c 65                	ld	a5, 8(a0)
ffffffff80208cd4: 03 38 05 01          	ld	a6, 16(a0)
ffffffff80208cd8: 08 6d                	ld	a0, 24(a0)
ffffffff80208cda: ae cc                	sw	a1, 88(sp)
ffffffff80208cdc: b2 ce                	sw	a2, 92(sp)
ffffffff80208cde: 23 00 d1 06          	sb	a3, 96(sp)
ffffffff80208ce2: 3a f4                	sd	a4, 40(sp)
ffffffff80208ce4: 3e f8                	sd	a5, 48(sp)
ffffffff80208ce6: 42 fc                	sd	a6, 56(sp)
ffffffff80208ce8: aa e0                	sd	a0, 64(sp)
ffffffff80208cea: 28 00                	addi	a0, sp, 8
ffffffff80208cec: 03 b6 89 01          	ld	a2, 24(s3)
ffffffff80208cf0: aa e4                	sd	a0, 72(sp)

ffffffff80208cf2 .LBB136_16:
ffffffff80208cf2: 17 45 00 00          	auipc	a0, 4
ffffffff80208cf6: 13 05 65 6a          	addi	a0, a0, 1702
ffffffff80208cfa: aa e8                	sd	a0, 80(sp)
ffffffff80208cfc: 2c 10                	addi	a1, sp, 40
ffffffff80208cfe: 4a 85                	add	a0, zero, s2
ffffffff80208d00: 02 96                	jalr	a2
ffffffff80208d02: 1d e9                	bnez	a0, 54
ffffffff80208d04: c6 65                	ld	a1, 80(sp)
ffffffff80208d06: 26 65                	ld	a0, 72(sp)
ffffffff80208d08: 94 6d                	ld	a3, 24(a1)

ffffffff80208d0a .LBB136_17:
ffffffff80208d0a: 97 45 00 00          	auipc	a1, 4
ffffffff80208d0e: 93 85 15 6c          	addi	a1, a1, 1729
ffffffff80208d12: 09 46                	addi	a2, zero, 2
ffffffff80208d14: 82 96                	jalr	a3
ffffffff80208d16: 05 a0                	j	32

ffffffff80208d18 .LBB136_18:
ffffffff80208d18: 97 45 00 00          	auipc	a1, 4
ffffffff80208d1c: 93 85 f5 6b          	addi	a1, a1, 1727
ffffffff80208d20: 05 46                	addi	a2, zero, 1
ffffffff80208d22: 14 75                	ld	a3, 40(a0)
ffffffff80208d24: 08 71                	ld	a0, 32(a0)
ffffffff80208d26: 94 6e                	ld	a3, 24(a3)
ffffffff80208d28: 82 96                	jalr	a3
ffffffff80208d2a: 19 e5                	bnez	a0, 14
ffffffff80208d2c: 0c 60                	ld	a1, 0(s0)
ffffffff80208d2e: 03 b6 89 01          	ld	a2, 24(s3)
ffffffff80208d32: 4a 85                	add	a0, zero, s2
ffffffff80208d34: 02 96                	jalr	a2
ffffffff80208d36: aa 84                	add	s1, zero, a0
ffffffff80208d38: 08 64                	ld	a0, 8(s0)
ffffffff80208d3a: 23 08 94 00          	sb	s1, 16(s0)
ffffffff80208d3e: 05 05                	addi	a0, a0, 1
ffffffff80208d40: 08 e4                	sd	a0, 8(s0)
ffffffff80208d42: 22 85                	add	a0, zero, s0
ffffffff80208d44: a6 79                	ld	s3, 104(sp)
ffffffff80208d46: 46 79                	ld	s2, 112(sp)
ffffffff80208d48: e6 74                	ld	s1, 120(sp)
ffffffff80208d4a: 0a 64                	ld	s0, 128(sp)
ffffffff80208d4c: aa 60                	ld	ra, 136(sp)
ffffffff80208d4e: 49 61                	addi	sp, sp, 144
ffffffff80208d50: 82 80                	ret

ffffffff80208d52 _ZN4core3fmt8builders10DebugTuple6finish17h00fad7daa6b35633E:
ffffffff80208d52: 01 11                	addi	sp, sp, -32
ffffffff80208d54: 06 ec                	sd	ra, 24(sp)
ffffffff80208d56: 22 e8                	sd	s0, 16(sp)
ffffffff80208d58: 26 e4                	sd	s1, 8(sp)
ffffffff80208d5a: 2a 84                	add	s0, zero, a0
ffffffff80208d5c: 0c 65                	ld	a1, 8(a0)
ffffffff80208d5e: 03 45 05 01          	lbu	a0, 16(a0)
ffffffff80208d62: b9 c5                	beqz	a1, 78
ffffffff80208d64: 85 44                	addi	s1, zero, 1
ffffffff80208d66: 31 e1                	bnez	a0, 68
ffffffff80208d68: 05 45                	addi	a0, zero, 1
ffffffff80208d6a: 63 95 a5 02          	bne	a1, a0, 42
ffffffff80208d6e: 03 45 14 01          	lbu	a0, 17(s0)
ffffffff80208d72: 0d c1                	beqz	a0, 34
ffffffff80208d74: 08 60                	ld	a0, 0(s0)
ffffffff80208d76: 83 45 05 03          	lbu	a1, 48(a0)
ffffffff80208d7a: 91 89                	andi	a1, a1, 4
ffffffff80208d7c: 81 ed                	bnez	a1, 24
ffffffff80208d7e: 0c 75                	ld	a1, 40(a0)
ffffffff80208d80: 08 71                	ld	a0, 32(a0)
ffffffff80208d82: 94 6d                	ld	a3, 24(a1)

ffffffff80208d84 .LBB137_9:
ffffffff80208d84: 97 45 00 00          	auipc	a1, 4
ffffffff80208d88: 93 85 45 65          	addi	a1, a1, 1620
ffffffff80208d8c: 05 46                	addi	a2, zero, 1
ffffffff80208d8e: 85 44                	addi	s1, zero, 1
ffffffff80208d90: 82 96                	jalr	a3
ffffffff80208d92: 01 ed                	bnez	a0, 24
ffffffff80208d94: 08 60                	ld	a0, 0(s0)
ffffffff80208d96: 0c 75                	ld	a1, 40(a0)
ffffffff80208d98: 08 71                	ld	a0, 32(a0)
ffffffff80208d9a: 94 6d                	ld	a3, 24(a1)

ffffffff80208d9c .LBB137_10:
ffffffff80208d9c: 97 45 00 00          	auipc	a1, 4
ffffffff80208da0: 93 85 d5 63          	addi	a1, a1, 1597
ffffffff80208da4: 05 46                	addi	a2, zero, 1
ffffffff80208da6: 82 96                	jalr	a3
ffffffff80208da8: aa 84                	add	s1, zero, a0
ffffffff80208daa: 23 08 94 00          	sb	s1, 16(s0)
ffffffff80208dae: 26 85                	add	a0, zero, s1
ffffffff80208db0: 33 35 a0 00          	snez	a0, a0
ffffffff80208db4: a2 64                	ld	s1, 8(sp)
ffffffff80208db6: 42 64                	ld	s0, 16(sp)
ffffffff80208db8: e2 60                	ld	ra, 24(sp)
ffffffff80208dba: 05 61                	addi	sp, sp, 32
ffffffff80208dbc: 82 80                	ret

ffffffff80208dbe _ZN4core3fmt8builders10DebugInner5entry17h077f88d5f8afc4fcE:
ffffffff80208dbe: 75 71                	addi	sp, sp, -144
ffffffff80208dc0: 06 e5                	sd	ra, 136(sp)
ffffffff80208dc2: 22 e1                	sd	s0, 128(sp)
ffffffff80208dc4: a6 fc                	sd	s1, 120(sp)
ffffffff80208dc6: ca f8                	sd	s2, 112(sp)
ffffffff80208dc8: ce f4                	sd	s3, 104(sp)
ffffffff80208dca: d2 f0                	sd	s4, 96(sp)
ffffffff80208dcc: 2a 84                	add	s0, zero, a0
ffffffff80208dce: 03 45 85 00          	lbu	a0, 8(a0)
ffffffff80208dd2: 05 4a                	addi	s4, zero, 1
ffffffff80208dd4: 85 44                	addi	s1, zero, 1
ffffffff80208dd6: 4d ed                	bnez	a0, 186
ffffffff80208dd8: b2 89                	add	s3, zero, a2
ffffffff80208dda: 2e 89                	add	s2, zero, a1
ffffffff80208ddc: 0c 60                	ld	a1, 0(s0)
ffffffff80208dde: 03 e5 05 03          	lwu	a0, 48(a1)
ffffffff80208de2: 03 46 94 00          	lbu	a2, 9(s0)
ffffffff80208de6: 93 76 45 00          	andi	a3, a0, 4
ffffffff80208dea: 9d e2                	bnez	a3, 38
ffffffff80208dec: 09 ce                	beqz	a2, 26
ffffffff80208dee: 90 75                	ld	a2, 40(a1)
ffffffff80208df0: 88 71                	ld	a0, 32(a1)
ffffffff80208df2: 14 6e                	ld	a3, 24(a2)

ffffffff80208df4 .LBB138_13:
ffffffff80208df4: 97 45 00 00          	auipc	a1, 4
ffffffff80208df8: 93 85 95 5d          	addi	a1, a1, 1497
ffffffff80208dfc: 09 46                	addi	a2, zero, 2
ffffffff80208dfe: 82 96                	jalr	a3
ffffffff80208e00: 85 44                	addi	s1, zero, 1
ffffffff80208e02: 59 e5                	bnez	a0, 142
ffffffff80208e04: 0c 60                	ld	a1, 0(s0)
ffffffff80208e06: 03 b6 89 01          	ld	a2, 24(s3)
ffffffff80208e0a: 4a 85                	add	a0, zero, s2
ffffffff80208e0c: 02 96                	jalr	a2
ffffffff80208e0e: 41 a0                	j	128
ffffffff80208e10: 19 ee                	bnez	a2, 30
ffffffff80208e12: 90 75                	ld	a2, 40(a1)
ffffffff80208e14: 88 71                	ld	a0, 32(a1)
ffffffff80208e16: 14 6e                	ld	a3, 24(a2)

ffffffff80208e18 .LBB138_14:
ffffffff80208e18: 97 45 00 00          	auipc	a1, 4
ffffffff80208e1c: 93 85 25 5c          	addi	a1, a1, 1474
ffffffff80208e20: 05 46                	addi	a2, zero, 1
ffffffff80208e22: 85 44                	addi	s1, zero, 1
ffffffff80208e24: 82 96                	jalr	a3
ffffffff80208e26: 2d e5                	bnez	a0, 106
ffffffff80208e28: 0c 60                	ld	a1, 0(s0)
ffffffff80208e2a: 03 e5 05 03          	lwu	a0, 48(a1)
ffffffff80208e2e: 85 44                	addi	s1, zero, 1
ffffffff80208e30: a3 0f 91 00          	sb	s1, 31(sp)
ffffffff80208e34: 90 71                	ld	a2, 32(a1)
ffffffff80208e36: 94 75                	ld	a3, 40(a1)
ffffffff80208e38: 32 e0                	sd	a2, 0(sp)
ffffffff80208e3a: 36 e4                	sd	a3, 8(sp)
ffffffff80208e3c: 13 06 f1 01          	addi	a2, sp, 31
ffffffff80208e40: 32 e8                	sd	a2, 16(sp)
ffffffff80208e42: d0 59                	lw	a2, 52(a1)
ffffffff80208e44: 83 86 85 03          	lb	a3, 56(a1)
ffffffff80208e48: 98 61                	ld	a4, 0(a1)
ffffffff80208e4a: 9c 65                	ld	a5, 8(a1)
ffffffff80208e4c: 03 b8 05 01          	ld	a6, 16(a1)
ffffffff80208e50: 8c 6d                	ld	a1, 24(a1)
ffffffff80208e52: aa c8                	sw	a0, 80(sp)
ffffffff80208e54: b2 ca                	sw	a2, 84(sp)
ffffffff80208e56: 23 0c d1 04          	sb	a3, 88(sp)
ffffffff80208e5a: 3a f0                	sd	a4, 32(sp)
ffffffff80208e5c: 3e f4                	sd	a5, 40(sp)
ffffffff80208e5e: 42 f8                	sd	a6, 48(sp)
ffffffff80208e60: 2e fc                	sd	a1, 56(sp)
ffffffff80208e62: 0a 85                	add	a0, zero, sp
ffffffff80208e64: 03 b6 89 01          	ld	a2, 24(s3)
ffffffff80208e68: aa e0                	sd	a0, 64(sp)

ffffffff80208e6a .LBB138_15:
ffffffff80208e6a: 17 45 00 00          	auipc	a0, 4
ffffffff80208e6e: 13 05 e5 52          	addi	a0, a0, 1326
ffffffff80208e72: aa e4                	sd	a0, 72(sp)
ffffffff80208e74: 0c 10                	addi	a1, sp, 32
ffffffff80208e76: 4a 85                	add	a0, zero, s2
ffffffff80208e78: 02 96                	jalr	a2
ffffffff80208e7a: 19 e9                	bnez	a0, 22
ffffffff80208e7c: a6 65                	ld	a1, 72(sp)
ffffffff80208e7e: 06 65                	ld	a0, 64(sp)
ffffffff80208e80: 94 6d                	ld	a3, 24(a1)

ffffffff80208e82 .LBB138_16:
ffffffff80208e82: 97 45 00 00          	auipc	a1, 4
ffffffff80208e86: 93 85 95 54          	addi	a1, a1, 1353
ffffffff80208e8a: 09 46                	addi	a2, zero, 2
ffffffff80208e8c: 82 96                	jalr	a3
ffffffff80208e8e: aa 84                	add	s1, zero, a0
ffffffff80208e90: 23 04 94 00          	sb	s1, 8(s0)
ffffffff80208e94: a3 04 44 01          	sb	s4, 9(s0)
ffffffff80208e98: 06 7a                	ld	s4, 96(sp)
ffffffff80208e9a: a6 79                	ld	s3, 104(sp)
ffffffff80208e9c: 46 79                	ld	s2, 112(sp)
ffffffff80208e9e: e6 74                	ld	s1, 120(sp)
ffffffff80208ea0: 0a 64                	ld	s0, 128(sp)
ffffffff80208ea2: aa 60                	ld	ra, 136(sp)
ffffffff80208ea4: 49 61                	addi	sp, sp, 144
ffffffff80208ea6: 82 80                	ret

ffffffff80208ea8 _ZN4core3fmt8builders9DebugList5entry17h2d7f6a925ee1ea89E:
ffffffff80208ea8: 41 11                	addi	sp, sp, -16
ffffffff80208eaa: 06 e4                	sd	ra, 8(sp)
ffffffff80208eac: 22 e0                	sd	s0, 0(sp)
ffffffff80208eae: 2a 84                	add	s0, zero, a0
ffffffff80208eb0: 97 00 00 00          	auipc	ra, 0
ffffffff80208eb4: e7 80 e0 f0          	jalr	-242(ra)
ffffffff80208eb8: 22 85                	add	a0, zero, s0
ffffffff80208eba: 02 64                	ld	s0, 0(sp)
ffffffff80208ebc: a2 60                	ld	ra, 8(sp)
ffffffff80208ebe: 41 01                	addi	sp, sp, 16
ffffffff80208ec0: 82 80                	ret

ffffffff80208ec2 _ZN4core3fmt8builders9DebugList6finish17h2f821bfd5190c778E:
ffffffff80208ec2: 41 11                	addi	sp, sp, -16
ffffffff80208ec4: 06 e4                	sd	ra, 8(sp)
ffffffff80208ec6: aa 85                	add	a1, zero, a0
ffffffff80208ec8: 03 46 85 00          	lbu	a2, 8(a0)
ffffffff80208ecc: 05 45                	addi	a0, zero, 1
ffffffff80208ece: 01 c6                	beqz	a2, 8
ffffffff80208ed0: a2 60                	ld	ra, 8(sp)
ffffffff80208ed2: 41 01                	addi	sp, sp, 16
ffffffff80208ed4: 82 80                	ret
ffffffff80208ed6: 88 61                	ld	a0, 0(a1)
ffffffff80208ed8: 0c 75                	ld	a1, 40(a0)
ffffffff80208eda: 08 71                	ld	a0, 32(a0)
ffffffff80208edc: 94 6d                	ld	a3, 24(a1)

ffffffff80208ede .LBB141_3:
ffffffff80208ede: 97 45 00 00          	auipc	a1, 4
ffffffff80208ee2: 93 85 e5 4f          	addi	a1, a1, 1278
ffffffff80208ee6: 05 46                	addi	a2, zero, 1
ffffffff80208ee8: 82 96                	jalr	a3
ffffffff80208eea: a2 60                	ld	ra, 8(sp)
ffffffff80208eec: 41 01                	addi	sp, sp, 16
ffffffff80208eee: 82 80                	ret

ffffffff80208ef0 _ZN4core3fmt5Write10write_char17h88d98e20541d2fccE:
ffffffff80208ef0: 41 11                	addi	sp, sp, -16
ffffffff80208ef2: 06 e4                	sd	ra, 8(sp)
ffffffff80208ef4: 2e 86                	add	a2, zero, a1
ffffffff80208ef6: 81 25                	sext.w	a1, a1
ffffffff80208ef8: 93 06 00 08          	addi	a3, zero, 128
ffffffff80208efc: 02 c2                	sw	zero, 4(sp)
ffffffff80208efe: 63 fd d5 00          	bgeu	a1, a3, 26
ffffffff80208f02: 4c 00                	addi	a1, sp, 4
ffffffff80208f04: 23 02 c1 00          	sb	a2, 4(sp)
ffffffff80208f08: 05 46                	addi	a2, zero, 1
ffffffff80208f0a: 97 00 00 00          	auipc	ra, 0
ffffffff80208f0e: e7 80 20 9f          	jalr	-1550(ra)
ffffffff80208f12: a2 60                	ld	ra, 8(sp)
ffffffff80208f14: 41 01                	addi	sp, sp, 16
ffffffff80208f16: 82 80                	ret
ffffffff80208f18: 9b 55 b6 00          	srliw	a1, a2, 11
ffffffff80208f1c: 95 e5                	bnez	a1, 44
ffffffff80208f1e: 4c 00                	addi	a1, sp, 4
ffffffff80208f20: 93 56 66 00          	srli	a3, a2, 6
ffffffff80208f24: 93 e6 06 0c          	ori	a3, a3, 192
ffffffff80208f28: 23 02 d1 00          	sb	a3, 4(sp)
ffffffff80208f2c: 13 76 f6 03          	andi	a2, a2, 63
ffffffff80208f30: 13 66 06 08          	ori	a2, a2, 128
ffffffff80208f34: a3 02 c1 00          	sb	a2, 5(sp)
ffffffff80208f38: 09 46                	addi	a2, zero, 2
ffffffff80208f3a: 97 00 00 00          	auipc	ra, 0
ffffffff80208f3e: e7 80 20 9c          	jalr	-1598(ra)
ffffffff80208f42: a2 60                	ld	ra, 8(sp)
ffffffff80208f44: 41 01                	addi	sp, sp, 16
ffffffff80208f46: 82 80                	ret
ffffffff80208f48: 9b 56 06 01          	srliw	a3, a2, 16
ffffffff80208f4c: 4c 00                	addi	a1, sp, 4
ffffffff80208f4e: 8d ee                	bnez	a3, 58
ffffffff80208f50: 9b 56 c6 00          	srliw	a3, a2, 12
ffffffff80208f54: 93 e6 06 0e          	ori	a3, a3, 224
ffffffff80208f58: 23 02 d1 00          	sb	a3, 4(sp)
ffffffff80208f5c: 9b 56 66 00          	srliw	a3, a2, 6
ffffffff80208f60: 93 f6 f6 03          	andi	a3, a3, 63
ffffffff80208f64: 93 e6 06 08          	ori	a3, a3, 128
ffffffff80208f68: a3 02 d1 00          	sb	a3, 5(sp)
ffffffff80208f6c: 13 76 f6 03          	andi	a2, a2, 63
ffffffff80208f70: 13 66 06 08          	ori	a2, a2, 128
ffffffff80208f74: 23 03 c1 00          	sb	a2, 6(sp)
ffffffff80208f78: 0d 46                	addi	a2, zero, 3
ffffffff80208f7a: 97 00 00 00          	auipc	ra, 0
ffffffff80208f7e: e7 80 20 98          	jalr	-1662(ra)
ffffffff80208f82: a2 60                	ld	ra, 8(sp)
ffffffff80208f84: 41 01                	addi	sp, sp, 16
ffffffff80208f86: 82 80                	ret
ffffffff80208f88: 9b 56 26 01          	srliw	a3, a2, 18
ffffffff80208f8c: 93 e6 06 0f          	ori	a3, a3, 240
ffffffff80208f90: 23 02 d1 00          	sb	a3, 4(sp)
ffffffff80208f94: 9b 56 c6 00          	srliw	a3, a2, 12
ffffffff80208f98: 93 f6 f6 03          	andi	a3, a3, 63
ffffffff80208f9c: 93 e6 06 08          	ori	a3, a3, 128
ffffffff80208fa0: a3 02 d1 00          	sb	a3, 5(sp)
ffffffff80208fa4: 9b 56 66 00          	srliw	a3, a2, 6
ffffffff80208fa8: 93 f6 f6 03          	andi	a3, a3, 63
ffffffff80208fac: 93 e6 06 08          	ori	a3, a3, 128
ffffffff80208fb0: 23 03 d1 00          	sb	a3, 6(sp)
ffffffff80208fb4: 13 76 f6 03          	andi	a2, a2, 63
ffffffff80208fb8: 13 66 06 08          	ori	a2, a2, 128
ffffffff80208fbc: a3 03 c1 00          	sb	a2, 7(sp)
ffffffff80208fc0: 11 46                	addi	a2, zero, 4
ffffffff80208fc2: 97 00 00 00          	auipc	ra, 0
ffffffff80208fc6: e7 80 a0 93          	jalr	-1734(ra)
ffffffff80208fca: a2 60                	ld	ra, 8(sp)
ffffffff80208fcc: 41 01                	addi	sp, sp, 16
ffffffff80208fce: 82 80                	ret

ffffffff80208fd0 _ZN4core3fmt5Write9write_fmt17h89d269e5e8b0f57eE:
ffffffff80208fd0: 39 71                	addi	sp, sp, -64
ffffffff80208fd2: 06 fc                	sd	ra, 56(sp)
ffffffff80208fd4: 90 75                	ld	a2, 40(a1)
ffffffff80208fd6: 94 71                	ld	a3, 32(a1)
ffffffff80208fd8: 2a e0                	sd	a0, 0(sp)
ffffffff80208fda: 32 f8                	sd	a2, 48(sp)
ffffffff80208fdc: 36 f4                	sd	a3, 40(sp)
ffffffff80208fde: 88 6d                	ld	a0, 24(a1)
ffffffff80208fe0: 90 69                	ld	a2, 16(a1)
ffffffff80208fe2: 94 65                	ld	a3, 8(a1)
ffffffff80208fe4: 8c 61                	ld	a1, 0(a1)
ffffffff80208fe6: 2a f0                	sd	a0, 32(sp)
ffffffff80208fe8: 32 ec                	sd	a2, 24(sp)
ffffffff80208fea: 36 e8                	sd	a3, 16(sp)
ffffffff80208fec: 2e e4                	sd	a1, 8(sp)

ffffffff80208fee .LBB155_1:
ffffffff80208fee: 97 45 00 00          	auipc	a1, 4
ffffffff80208ff2: 93 85 25 4f          	addi	a1, a1, 1266
ffffffff80208ff6: 0a 85                	add	a0, zero, sp
ffffffff80208ff8: 30 00                	addi	a2, sp, 8
ffffffff80208ffa: 97 00 00 00          	auipc	ra, 0
ffffffff80208ffe: e7 80 60 16          	jalr	358(ra)
ffffffff80209002: e2 70                	ld	ra, 56(sp)
ffffffff80209004: 21 61                	addi	sp, sp, 64
ffffffff80209006: 82 80                	ret

ffffffff80209008 _ZN50_$LT$$RF$mut$u20$W$u20$as$u20$core..fmt..Write$GT$9write_str17hb5709b01b7c41321E:
ffffffff80209008: 08 61                	ld	a0, 0(a0)
ffffffff8020900a: 17 03 00 00          	auipc	t1, 0
ffffffff8020900e: 67 00 23 8f          	jr	-1806(t1)

ffffffff80209012 _ZN50_$LT$$RF$mut$u20$W$u20$as$u20$core..fmt..Write$GT$10write_char17h20ad077d9942d13eE:
ffffffff80209012: 41 11                	addi	sp, sp, -16
ffffffff80209014: 06 e4                	sd	ra, 8(sp)
ffffffff80209016: 2e 86                	add	a2, zero, a1
ffffffff80209018: 08 61                	ld	a0, 0(a0)
ffffffff8020901a: 81 25                	sext.w	a1, a1
ffffffff8020901c: 93 06 00 08          	addi	a3, zero, 128
ffffffff80209020: 02 c2                	sw	zero, 4(sp)
ffffffff80209022: 63 fd d5 00          	bgeu	a1, a3, 26
ffffffff80209026: 4c 00                	addi	a1, sp, 4
ffffffff80209028: 23 02 c1 00          	sb	a2, 4(sp)
ffffffff8020902c: 05 46                	addi	a2, zero, 1
ffffffff8020902e: 97 00 00 00          	auipc	ra, 0
ffffffff80209032: e7 80 e0 8c          	jalr	-1842(ra)
ffffffff80209036: a2 60                	ld	ra, 8(sp)
ffffffff80209038: 41 01                	addi	sp, sp, 16
ffffffff8020903a: 82 80                	ret
ffffffff8020903c: 9b 55 b6 00          	srliw	a1, a2, 11
ffffffff80209040: 95 e5                	bnez	a1, 44
ffffffff80209042: 4c 00                	addi	a1, sp, 4
ffffffff80209044: 93 56 66 00          	srli	a3, a2, 6
ffffffff80209048: 93 e6 06 0c          	ori	a3, a3, 192
ffffffff8020904c: 23 02 d1 00          	sb	a3, 4(sp)
ffffffff80209050: 13 76 f6 03          	andi	a2, a2, 63
ffffffff80209054: 13 66 06 08          	ori	a2, a2, 128
ffffffff80209058: a3 02 c1 00          	sb	a2, 5(sp)
ffffffff8020905c: 09 46                	addi	a2, zero, 2
ffffffff8020905e: 97 00 00 00          	auipc	ra, 0
ffffffff80209062: e7 80 e0 89          	jalr	-1890(ra)
ffffffff80209066: a2 60                	ld	ra, 8(sp)
ffffffff80209068: 41 01                	addi	sp, sp, 16
ffffffff8020906a: 82 80                	ret
ffffffff8020906c: 9b 56 06 01          	srliw	a3, a2, 16
ffffffff80209070: 4c 00                	addi	a1, sp, 4
ffffffff80209072: 8d ee                	bnez	a3, 58
ffffffff80209074: 9b 56 c6 00          	srliw	a3, a2, 12
ffffffff80209078: 93 e6 06 0e          	ori	a3, a3, 224
ffffffff8020907c: 23 02 d1 00          	sb	a3, 4(sp)
ffffffff80209080: 9b 56 66 00          	srliw	a3, a2, 6
ffffffff80209084: 93 f6 f6 03          	andi	a3, a3, 63
ffffffff80209088: 93 e6 06 08          	ori	a3, a3, 128
ffffffff8020908c: a3 02 d1 00          	sb	a3, 5(sp)
ffffffff80209090: 13 76 f6 03          	andi	a2, a2, 63
ffffffff80209094: 13 66 06 08          	ori	a2, a2, 128
ffffffff80209098: 23 03 c1 00          	sb	a2, 6(sp)
ffffffff8020909c: 0d 46                	addi	a2, zero, 3
ffffffff8020909e: 97 00 00 00          	auipc	ra, 0
ffffffff802090a2: e7 80 e0 85          	jalr	-1954(ra)
ffffffff802090a6: a2 60                	ld	ra, 8(sp)
ffffffff802090a8: 41 01                	addi	sp, sp, 16
ffffffff802090aa: 82 80                	ret
ffffffff802090ac: 9b 56 26 01          	srliw	a3, a2, 18
ffffffff802090b0: 93 e6 06 0f          	ori	a3, a3, 240
ffffffff802090b4: 23 02 d1 00          	sb	a3, 4(sp)
ffffffff802090b8: 9b 56 c6 00          	srliw	a3, a2, 12
ffffffff802090bc: 93 f6 f6 03          	andi	a3, a3, 63
ffffffff802090c0: 93 e6 06 08          	ori	a3, a3, 128
ffffffff802090c4: a3 02 d1 00          	sb	a3, 5(sp)
ffffffff802090c8: 9b 56 66 00          	srliw	a3, a2, 6
ffffffff802090cc: 93 f6 f6 03          	andi	a3, a3, 63
ffffffff802090d0: 93 e6 06 08          	ori	a3, a3, 128
ffffffff802090d4: 23 03 d1 00          	sb	a3, 6(sp)
ffffffff802090d8: 13 76 f6 03          	andi	a2, a2, 63
ffffffff802090dc: 13 66 06 08          	ori	a2, a2, 128
ffffffff802090e0: a3 03 c1 00          	sb	a2, 7(sp)
ffffffff802090e4: 11 46                	addi	a2, zero, 4
ffffffff802090e6: 97 00 00 00          	auipc	ra, 0
ffffffff802090ea: e7 80 60 81          	jalr	-2026(ra)
ffffffff802090ee: a2 60                	ld	ra, 8(sp)
ffffffff802090f0: 41 01                	addi	sp, sp, 16
ffffffff802090f2: 82 80                	ret

ffffffff802090f4 _ZN50_$LT$$RF$mut$u20$W$u20$as$u20$core..fmt..Write$GT$9write_fmt17h99d0fa3a9ff66bb1E:
ffffffff802090f4: 39 71                	addi	sp, sp, -64
ffffffff802090f6: 06 fc                	sd	ra, 56(sp)
ffffffff802090f8: 08 61                	ld	a0, 0(a0)
ffffffff802090fa: 90 75                	ld	a2, 40(a1)
ffffffff802090fc: 94 71                	ld	a3, 32(a1)
ffffffff802090fe: 2a e0                	sd	a0, 0(sp)
ffffffff80209100: 32 f8                	sd	a2, 48(sp)
ffffffff80209102: 36 f4                	sd	a3, 40(sp)
ffffffff80209104: 88 6d                	ld	a0, 24(a1)
ffffffff80209106: 90 69                	ld	a2, 16(a1)
ffffffff80209108: 94 65                	ld	a3, 8(a1)
ffffffff8020910a: 8c 61                	ld	a1, 0(a1)
ffffffff8020910c: 2a f0                	sd	a0, 32(sp)
ffffffff8020910e: 32 ec                	sd	a2, 24(sp)
ffffffff80209110: 36 e8                	sd	a3, 16(sp)
ffffffff80209112: 2e e4                	sd	a1, 8(sp)

ffffffff80209114 .LBB158_1:
ffffffff80209114: 97 45 00 00          	auipc	a1, 4
ffffffff80209118: 93 85 c5 3c          	addi	a1, a1, 972
ffffffff8020911c: 0a 85                	add	a0, zero, sp
ffffffff8020911e: 30 00                	addi	a2, sp, 8
ffffffff80209120: 97 00 00 00          	auipc	ra, 0
ffffffff80209124: e7 80 00 04          	jalr	64(ra)
ffffffff80209128: e2 70                	ld	ra, 56(sp)
ffffffff8020912a: 21 61                	addi	sp, sp, 64
ffffffff8020912c: 82 80                	ret

ffffffff8020912e _ZN59_$LT$core..fmt..Arguments$u20$as$u20$core..fmt..Display$GT$3fmt17ha5d29d1af7bdcf5aE:
ffffffff8020912e: 39 71                	addi	sp, sp, -64
ffffffff80209130: 06 fc                	sd	ra, 56(sp)
ffffffff80209132: 10 75                	ld	a2, 40(a0)
ffffffff80209134: 18 71                	ld	a4, 32(a0)
ffffffff80209136: 94 71                	ld	a3, 32(a1)
ffffffff80209138: 8c 75                	ld	a1, 40(a1)
ffffffff8020913a: 32 f8                	sd	a2, 48(sp)
ffffffff8020913c: 3a f4                	sd	a4, 40(sp)
ffffffff8020913e: 10 6d                	ld	a2, 24(a0)
ffffffff80209140: 18 69                	ld	a4, 16(a0)
ffffffff80209142: 1c 65                	ld	a5, 8(a0)
ffffffff80209144: 08 61                	ld	a0, 0(a0)
ffffffff80209146: 32 f0                	sd	a2, 32(sp)
ffffffff80209148: 3a ec                	sd	a4, 24(sp)
ffffffff8020914a: 3e e8                	sd	a5, 16(sp)
ffffffff8020914c: 2a e4                	sd	a0, 8(sp)
ffffffff8020914e: 30 00                	addi	a2, sp, 8
ffffffff80209150: 36 85                	add	a0, zero, a3
ffffffff80209152: 97 00 00 00          	auipc	ra, 0
ffffffff80209156: e7 80 e0 00          	jalr	14(ra)
ffffffff8020915a: e2 70                	ld	ra, 56(sp)
ffffffff8020915c: 21 61                	addi	sp, sp, 64
ffffffff8020915e: 82 80                	ret

ffffffff80209160 _ZN4core3fmt5write17hab57c96bb669b93aE:
ffffffff80209160: 35 71                	addi	sp, sp, -160
ffffffff80209162: 06 ed                	sd	ra, 152(sp)
ffffffff80209164: 22 e9                	sd	s0, 144(sp)
ffffffff80209166: 26 e5                	sd	s1, 136(sp)
ffffffff80209168: 4a e1                	sd	s2, 128(sp)
ffffffff8020916a: ce fc                	sd	s3, 120(sp)
ffffffff8020916c: d2 f8                	sd	s4, 112(sp)
ffffffff8020916e: d6 f4                	sd	s5, 104(sp)
ffffffff80209170: da f0                	sd	s6, 96(sp)
ffffffff80209172: de ec                	sd	s7, 88(sp)
ffffffff80209174: e2 e8                	sd	s8, 80(sp)
ffffffff80209176: e6 e4                	sd	s9, 72(sp)
ffffffff80209178: ea e0                	sd	s10, 64(sp)
ffffffff8020917a: 85 46                	addi	a3, zero, 1
ffffffff8020917c: 96 16                	slli	a3, a3, 37
ffffffff8020917e: 36 f8                	sd	a3, 48(sp)
ffffffff80209180: 8d 46                	addi	a3, zero, 3
ffffffff80209182: 23 0c d1 02          	sb	a3, 56(sp)
ffffffff80209186: 04 6a                	ld	s1, 16(a2)
ffffffff80209188: 02 e0                	sd	zero, 0(sp)
ffffffff8020918a: 02 e8                	sd	zero, 16(sp)
ffffffff8020918c: 2a f0                	sd	a0, 32(sp)
ffffffff8020918e: 2e f4                	sd	a1, 40(sp)
ffffffff80209190: 63 81 04 10          	beqz	s1, 258
ffffffff80209194: 14 6e                	ld	a3, 24(a2)
ffffffff80209196: 03 3a 86 00          	ld	s4, 8(a2)
ffffffff8020919a: 83 39 06 00          	ld	s3, 0(a2)
ffffffff8020919e: d2 8b                	add	s7, zero, s4
ffffffff802091a0: 63 63 da 00          	bltu	s4, a3, 6
ffffffff802091a4: b6 8b                	add	s7, zero, a3
ffffffff802091a6: 63 84 0b 14          	beqz	s7, 328
ffffffff802091aa: 03 3b 06 02          	ld	s6, 32(a2)
ffffffff802091ae: 83 3a 86 02          	ld	s5, 40(a2)
ffffffff802091b2: 83 b6 09 00          	ld	a3, 0(s3)
ffffffff802091b6: 03 b6 89 00          	ld	a2, 8(s3)
ffffffff802091ba: 98 6d                	ld	a4, 24(a1)
ffffffff802091bc: b6 85                	add	a1, zero, a3
ffffffff802091be: 02 97                	jalr	a4
ffffffff802091c0: 63 15 05 14          	bnez	a0, 330
ffffffff802091c4: 01 44                	mv	s0, zero
ffffffff802091c6: 93 84 04 03          	addi	s1, s1, 48
ffffffff802091ca: 13 8d 89 01          	addi	s10, s3, 24
ffffffff802091ce: 0a 89                	add	s2, zero, sp
ffffffff802091d0: 09 4c                	addi	s8, zero, 2

ffffffff802091d2 .LBB162_41:
ffffffff802091d2: 97 fc ff ff          	auipc	s9, 1048575
ffffffff802091d6: 93 8c 6c 57          	addi	s9, s9, 1398
ffffffff802091da: 03 a5 84 ff          	lw	a0, -8(s1)
ffffffff802091de: 2a da                	sw	a0, 52(sp)
ffffffff802091e0: 03 85 04 00          	lb	a0, 0(s1)
ffffffff802091e4: 23 0c a1 02          	sb	a0, 56(sp)
ffffffff802091e8: 03 a5 c4 ff          	lw	a0, -4(s1)
ffffffff802091ec: 2a d8                	sw	a0, 48(sp)
ffffffff802091ee: 03 b6 84 fe          	ld	a2, -24(s1)
ffffffff802091f2: 03 b5 04 ff          	ld	a0, -16(s1)
ffffffff802091f6: 09 ce                	beqz	a2, 26
ffffffff802091f8: 81 45                	mv	a1, zero
ffffffff802091fa: 63 0e 86 01          	beq	a2, s8, 28
ffffffff802091fe: 63 77 55 13          	bgeu	a0, s5, 302
ffffffff80209202: 12 05                	slli	a0, a0, 4
ffffffff80209204: 5a 95                	add	a0, a0, s6
ffffffff80209206: 0c 65                	ld	a1, 8(a0)
ffffffff80209208: 63 96 95 01          	bne	a1, s9, 12
ffffffff8020920c: 08 61                	ld	a0, 0(a0)
ffffffff8020920e: 08 61                	ld	a0, 0(a0)
ffffffff80209210: 85 45                	addi	a1, zero, 1
ffffffff80209212: 11 a0                	j	4
ffffffff80209214: 81 45                	mv	a1, zero
ffffffff80209216: 2e e0                	sd	a1, 0(sp)
ffffffff80209218: 2a e4                	sd	a0, 8(sp)
ffffffff8020921a: 03 b6 84 fd          	ld	a2, -40(s1)
ffffffff8020921e: 03 b5 04 fe          	ld	a0, -32(s1)
ffffffff80209222: 09 ce                	beqz	a2, 26
ffffffff80209224: 81 45                	mv	a1, zero
ffffffff80209226: 63 0c 86 01          	beq	a2, s8, 24
ffffffff8020922a: 63 71 55 11          	bgeu	a0, s5, 258
ffffffff8020922e: 12 05                	slli	a0, a0, 4
ffffffff80209230: 5a 95                	add	a0, a0, s6
ffffffff80209232: 0c 65                	ld	a1, 8(a0)
ffffffff80209234: 63 93 95 05          	bne	a1, s9, 70
ffffffff80209238: 08 61                	ld	a0, 0(a0)
ffffffff8020923a: 08 61                	ld	a0, 0(a0)
ffffffff8020923c: 85 45                	addi	a1, zero, 1
ffffffff8020923e: 2e e8                	sd	a1, 16(sp)
ffffffff80209240: 2a ec                	sd	a0, 24(sp)
ffffffff80209242: 03 b5 04 fd          	ld	a0, -48(s1)
ffffffff80209246: 63 71 55 05          	bgeu	a0, s5, 66
ffffffff8020924a: 12 05                	slli	a0, a0, 4
ffffffff8020924c: b3 05 ab 00          	add	a1, s6, a0
ffffffff80209250: 88 61                	ld	a0, 0(a1)
ffffffff80209252: 90 65                	ld	a2, 8(a1)
ffffffff80209254: ca 85                	add	a1, zero, s2
ffffffff80209256: 02 96                	jalr	a2
ffffffff80209258: 4d e9                	bnez	a0, 178
ffffffff8020925a: 05 04                	addi	s0, s0, 1
ffffffff8020925c: 63 7a 74 09          	bgeu	s0, s7, 148
ffffffff80209260: a2 76                	ld	a3, 40(sp)
ffffffff80209262: 02 75                	ld	a0, 32(sp)
ffffffff80209264: 83 35 8d ff          	ld	a1, -8(s10)
ffffffff80209268: 03 36 0d 00          	ld	a2, 0(s10)
ffffffff8020926c: 94 6e                	ld	a3, 24(a3)
ffffffff8020926e: 93 84 84 03          	addi	s1, s1, 56
ffffffff80209272: 41 0d                	addi	s10, s10, 16
ffffffff80209274: 82 96                	jalr	a3
ffffffff80209276: 35 d1                	beqz	a0, -156
ffffffff80209278: 49 a8                	j	146
ffffffff8020927a: 81 45                	mv	a1, zero
ffffffff8020927c: 2e e8                	sd	a1, 16(sp)
ffffffff8020927e: 2a ec                	sd	a0, 24(sp)
ffffffff80209280: 03 b5 04 fd          	ld	a0, -48(s1)
ffffffff80209284: e3 63 55 fd          	bltu	a0, s5, -58

ffffffff80209288 .LBB162_42:
ffffffff80209288: 17 46 00 00          	auipc	a2, 4
ffffffff8020928c: 13 06 06 2a          	addi	a2, a2, 672
ffffffff80209290: 55 a0                	j	164
ffffffff80209292: 00 72                	ld	s0, 32(a2)
ffffffff80209294: 14 76                	ld	a3, 40(a2)
ffffffff80209296: 03 3a 86 00          	ld	s4, 8(a2)
ffffffff8020929a: 83 39 06 00          	ld	s3, 0(a2)
ffffffff8020929e: d2 8b                	add	s7, zero, s4
ffffffff802092a0: 63 63 da 00          	bltu	s4, a3, 6
ffffffff802092a4: b6 8b                	add	s7, zero, a3
ffffffff802092a6: 63 84 0b 04          	beqz	s7, 72
ffffffff802092aa: 83 b6 09 00          	ld	a3, 0(s3)
ffffffff802092ae: 03 b6 89 00          	ld	a2, 8(s3)
ffffffff802092b2: 98 6d                	ld	a4, 24(a1)
ffffffff802092b4: b6 85                	add	a1, zero, a3
ffffffff802092b6: 02 97                	jalr	a4
ffffffff802092b8: 29 e9                	bnez	a0, 82
ffffffff802092ba: 81 44                	mv	s1, zero
ffffffff802092bc: 21 04                	addi	s0, s0, 8
ffffffff802092be: 93 8a 89 01          	addi	s5, s3, 24
ffffffff802092c2: 0a 89                	add	s2, zero, sp
ffffffff802092c4: 10 60                	ld	a2, 0(s0)
ffffffff802092c6: 03 35 84 ff          	ld	a0, -8(s0)
ffffffff802092ca: ca 85                	add	a1, zero, s2
ffffffff802092cc: 02 96                	jalr	a2
ffffffff802092ce: 15 ed                	bnez	a0, 60
ffffffff802092d0: 85 04                	addi	s1, s1, 1
ffffffff802092d2: 63 ff 74 01          	bgeu	s1, s7, 30
ffffffff802092d6: a2 76                	ld	a3, 40(sp)
ffffffff802092d8: 02 75                	ld	a0, 32(sp)
ffffffff802092da: 83 b5 8a ff          	ld	a1, -8(s5)
ffffffff802092de: 03 b6 0a 00          	ld	a2, 0(s5)
ffffffff802092e2: 94 6e                	ld	a3, 24(a3)
ffffffff802092e4: 41 04                	addi	s0, s0, 16
ffffffff802092e6: c1 0a                	addi	s5, s5, 16
ffffffff802092e8: 82 96                	jalr	a3
ffffffff802092ea: 69 dd                	beqz	a0, -38
ffffffff802092ec: 39 a8                	j	30
ffffffff802092ee: 81 4b                	mv	s7, zero
ffffffff802092f0: 63 ff 4b 01          	bgeu	s7, s4, 30
ffffffff802092f4: 02 75                	ld	a0, 32(sp)
ffffffff802092f6: a2 76                	ld	a3, 40(sp)
ffffffff802092f8: 93 95 4b 00          	slli	a1, s7, 4
ffffffff802092fc: 33 86 b9 00          	add	a2, s3, a1
ffffffff80209300: 0c 62                	ld	a1, 0(a2)
ffffffff80209302: 10 66                	ld	a2, 8(a2)
ffffffff80209304: 94 6e                	ld	a3, 24(a3)
ffffffff80209306: 82 96                	jalr	a3
ffffffff80209308: 19 c1                	beqz	a0, 6
ffffffff8020930a: 05 45                	addi	a0, zero, 1
ffffffff8020930c: 11 a0                	j	4
ffffffff8020930e: 01 45                	mv	a0, zero
ffffffff80209310: 06 6d                	ld	s10, 64(sp)
ffffffff80209312: a6 6c                	ld	s9, 72(sp)
ffffffff80209314: 46 6c                	ld	s8, 80(sp)
ffffffff80209316: e6 6b                	ld	s7, 88(sp)
ffffffff80209318: 06 7b                	ld	s6, 96(sp)
ffffffff8020931a: a6 7a                	ld	s5, 104(sp)
ffffffff8020931c: 46 7a                	ld	s4, 112(sp)
ffffffff8020931e: e6 79                	ld	s3, 120(sp)
ffffffff80209320: 0a 69                	ld	s2, 128(sp)
ffffffff80209322: aa 64                	ld	s1, 136(sp)
ffffffff80209324: 4a 64                	ld	s0, 144(sp)
ffffffff80209326: ea 60                	ld	ra, 152(sp)
ffffffff80209328: 0d 61                	addi	sp, sp, 160
ffffffff8020932a: 82 80                	ret

ffffffff8020932c .LBB162_43:
ffffffff8020932c: 17 46 00 00          	auipc	a2, 4
ffffffff80209330: 13 06 46 21          	addi	a2, a2, 532
ffffffff80209334: d6 85                	add	a1, zero, s5
ffffffff80209336: 97 f0 ff ff          	auipc	ra, 1048575
ffffffff8020933a: e7 80 e0 55          	jalr	1374(ra)
ffffffff8020933e: 00 00                	unimp	

ffffffff80209340 _ZN4core3fmt9Formatter12pad_integral17hd6c3049cc532f3cdE:
ffffffff80209340: 59 71                	addi	sp, sp, -112
ffffffff80209342: 86 f4                	sd	ra, 104(sp)
ffffffff80209344: a2 f0                	sd	s0, 96(sp)
ffffffff80209346: a6 ec                	sd	s1, 88(sp)
ffffffff80209348: ca e8                	sd	s2, 80(sp)
ffffffff8020934a: ce e4                	sd	s3, 72(sp)
ffffffff8020934c: d2 e0                	sd	s4, 64(sp)
ffffffff8020934e: 56 fc                	sd	s5, 56(sp)
ffffffff80209350: 5a f8                	sd	s6, 48(sp)
ffffffff80209352: 5e f4                	sd	s7, 40(sp)
ffffffff80209354: 62 f0                	sd	s8, 32(sp)
ffffffff80209356: 66 ec                	sd	s9, 24(sp)
ffffffff80209358: 6a e8                	sd	s10, 16(sp)
ffffffff8020935a: 6e e4                	sd	s11, 8(sp)
ffffffff8020935c: be 89                	add	s3, zero, a5
ffffffff8020935e: 3a 89                	add	s2, zero, a4
ffffffff80209360: b6 8a                	add	s5, zero, a3
ffffffff80209362: 2a 84                	add	s0, zero, a0
ffffffff80209364: b1 c9                	beqz	a1, 84
ffffffff80209366: 03 65 04 03          	lwu	a0, 48(s0)
ffffffff8020936a: 93 75 15 00          	andi	a1, a0, 1
ffffffff8020936e: 37 0a 11 00          	lui	s4, 272
ffffffff80209372: 99 c1                	beqz	a1, 6
ffffffff80209374: 13 0a b0 02          	addi	s4, zero, 43
ffffffff80209378: b3 8c 35 01          	add	s9, a1, s3
ffffffff8020937c: 93 75 45 00          	andi	a1, a0, 4
ffffffff80209380: a9 c5                	beqz	a1, 74
ffffffff80209382: 81 45                	mv	a1, zero
ffffffff80209384: 63 80 0a 02          	beqz	s5, 32
ffffffff80209388: d6 86                	add	a3, zero, s5
ffffffff8020938a: 32 87                	add	a4, zero, a2
ffffffff8020938c: 83 47 07 00          	lbu	a5, 0(a4)
ffffffff80209390: 05 07                	addi	a4, a4, 1
ffffffff80209392: 93 f7 07 0c          	andi	a5, a5, 192
ffffffff80209396: 93 c7 07 08          	xori	a5, a5, 128
ffffffff8020939a: 93 b7 17 00          	seqz	a5, a5
ffffffff8020939e: fd 16                	addi	a3, a3, -1
ffffffff802093a0: be 95                	add	a1, a1, a5
ffffffff802093a2: ed f6                	bnez	a3, -22
ffffffff802093a4: b3 86 5c 01          	add	a3, s9, s5
ffffffff802093a8: b3 8c b6 40          	sub	s9, a3, a1
ffffffff802093ac: 32 8b                	add	s6, zero, a2
ffffffff802093ae: 0c 60                	ld	a1, 0(s0)
ffffffff802093b0: 85 4d                	addi	s11, zero, 1
ffffffff802093b2: 63 81 b5 03          	beq	a1, s11, 34
ffffffff802093b6: a9 a0                	j	74
ffffffff802093b8: 03 65 04 03          	lwu	a0, 48(s0)
ffffffff802093bc: 93 8c 19 00          	addi	s9, s3, 1
ffffffff802093c0: 13 0a d0 02          	addi	s4, zero, 45
ffffffff802093c4: 93 75 45 00          	andi	a1, a0, 4
ffffffff802093c8: cd fd                	bnez	a1, -70
ffffffff802093ca: 01 4b                	mv	s6, zero
ffffffff802093cc: 0c 60                	ld	a1, 0(s0)
ffffffff802093ce: 85 4d                	addi	s11, zero, 1
ffffffff802093d0: 63 98 b5 03          	bne	a1, s11, 48
ffffffff802093d4: 03 3d 84 00          	ld	s10, 8(s0)
ffffffff802093d8: 63 f4 ac 03          	bgeu	s9, s10, 40
ffffffff802093dc: 21 89                	andi	a0, a0, 8
ffffffff802093de: 2d e1                	bnez	a0, 98
ffffffff802093e0: 03 45 84 03          	lbu	a0, 56(s0)
ffffffff802093e4: 05 46                	addi	a2, zero, 1
ffffffff802093e6: 8d 46                	addi	a3, zero, 3
ffffffff802093e8: 85 45                	addi	a1, zero, 1
ffffffff802093ea: 63 03 d5 00          	beq	a0, a3, 6
ffffffff802093ee: aa 85                	add	a1, zero, a0
ffffffff802093f0: 33 05 9d 41          	sub	a0, s10, s9
ffffffff802093f4: 63 49 b6 08          	blt	a2, a1, 146
ffffffff802093f8: d1 e9                	bnez	a1, 148
ffffffff802093fa: 2a 8c                	add	s8, zero, a0
ffffffff802093fc: 01 45                	mv	a0, zero
ffffffff802093fe: 5d a0                	j	166
ffffffff80209400: 22 85                	add	a0, zero, s0
ffffffff80209402: d2 85                	add	a1, zero, s4
ffffffff80209404: 5a 86                	add	a2, zero, s6
ffffffff80209406: d6 86                	add	a3, zero, s5
ffffffff80209408: 97 00 00 00          	auipc	ra, 0
ffffffff8020940c: e7 80 80 15          	jalr	344(ra)
ffffffff80209410: 01 e9                	bnez	a0, 16
ffffffff80209412: 0c 74                	ld	a1, 40(s0)
ffffffff80209414: 08 70                	ld	a0, 32(s0)
ffffffff80209416: 94 6d                	ld	a3, 24(a1)
ffffffff80209418: ca 85                	add	a1, zero, s2
ffffffff8020941a: 4e 86                	add	a2, zero, s3
ffffffff8020941c: 82 96                	jalr	a3
ffffffff8020941e: aa 8d                	add	s11, zero, a0
ffffffff80209420: 6e 85                	add	a0, zero, s11
ffffffff80209422: a2 6d                	ld	s11, 8(sp)
ffffffff80209424: 42 6d                	ld	s10, 16(sp)
ffffffff80209426: e2 6c                	ld	s9, 24(sp)
ffffffff80209428: 02 7c                	ld	s8, 32(sp)
ffffffff8020942a: a2 7b                	ld	s7, 40(sp)
ffffffff8020942c: 42 7b                	ld	s6, 48(sp)
ffffffff8020942e: e2 7a                	ld	s5, 56(sp)
ffffffff80209430: 06 6a                	ld	s4, 64(sp)
ffffffff80209432: a6 69                	ld	s3, 72(sp)
ffffffff80209434: 46 69                	ld	s2, 80(sp)
ffffffff80209436: e6 64                	ld	s1, 88(sp)
ffffffff80209438: 06 74                	ld	s0, 96(sp)
ffffffff8020943a: a6 70                	ld	ra, 104(sp)
ffffffff8020943c: 65 61                	addi	sp, sp, 112
ffffffff8020943e: 82 80                	ret
ffffffff80209440: 83 6b 44 03          	lwu	s7, 52(s0)
ffffffff80209444: 13 05 00 03          	addi	a0, zero, 48
ffffffff80209448: 03 4c 84 03          	lbu	s8, 56(s0)
ffffffff8020944c: 48 d8                	sw	a0, 52(s0)
ffffffff8020944e: 85 4d                	addi	s11, zero, 1
ffffffff80209450: 23 0c b4 03          	sb	s11, 56(s0)
ffffffff80209454: 22 85                	add	a0, zero, s0
ffffffff80209456: d2 85                	add	a1, zero, s4
ffffffff80209458: 5a 86                	add	a2, zero, s6
ffffffff8020945a: d6 86                	add	a3, zero, s5
ffffffff8020945c: 97 00 00 00          	auipc	ra, 0
ffffffff80209460: e7 80 40 10          	jalr	260(ra)
ffffffff80209464: 55 fd                	bnez	a0, -68
ffffffff80209466: 03 45 84 03          	lbu	a0, 56(s0)
ffffffff8020946a: 05 46                	addi	a2, zero, 1
ffffffff8020946c: 8d 46                	addi	a3, zero, 3
ffffffff8020946e: 85 45                	addi	a1, zero, 1
ffffffff80209470: 63 03 d5 00          	beq	a0, a3, 6
ffffffff80209474: aa 85                	add	a1, zero, a0
ffffffff80209476: 33 05 9d 41          	sub	a0, s10, s9
ffffffff8020947a: 63 4b b6 00          	blt	a2, a1, 22
ffffffff8020947e: 81 ed                	bnez	a1, 24
ffffffff80209480: aa 8a                	add	s5, zero, a0
ffffffff80209482: 01 45                	mv	a0, zero
ffffffff80209484: 41 a0                	j	128
ffffffff80209486: 0d 46                	addi	a2, zero, 3
ffffffff80209488: 63 99 c5 00          	bne	a1, a2, 18
ffffffff8020948c: 01 4c                	mv	s8, zero
ffffffff8020948e: 19 a8                	j	22
ffffffff80209490: 0d 46                	addi	a2, zero, 3
ffffffff80209492: 63 94 c5 06          	bne	a1, a2, 104
ffffffff80209496: 81 4a                	mv	s5, zero
ffffffff80209498: b5 a0                	j	108
ffffffff8020949a: 93 05 15 00          	addi	a1, a0, 1
ffffffff8020949e: 05 81                	srli	a0, a0, 1
ffffffff802094a0: 13 dc 15 00          	srli	s8, a1, 1
ffffffff802094a4: 93 04 15 00          	addi	s1, a0, 1
ffffffff802094a8: fd 14                	addi	s1, s1, -1
ffffffff802094aa: 81 c8                	beqz	s1, 16
ffffffff802094ac: 0c 74                	ld	a1, 40(s0)
ffffffff802094ae: 08 70                	ld	a0, 32(s0)
ffffffff802094b0: 90 71                	ld	a2, 32(a1)
ffffffff802094b2: 4c 58                	lw	a1, 52(s0)
ffffffff802094b4: 02 96                	jalr	a2
ffffffff802094b6: 6d d9                	beqz	a0, -14
ffffffff802094b8: 85 a0                	j	96
ffffffff802094ba: 83 6b 44 03          	lwu	s7, 52(s0)
ffffffff802094be: 22 85                	add	a0, zero, s0
ffffffff802094c0: d2 85                	add	a1, zero, s4
ffffffff802094c2: 5a 86                	add	a2, zero, s6
ffffffff802094c4: d6 86                	add	a3, zero, s5
ffffffff802094c6: 97 00 00 00          	auipc	ra, 0
ffffffff802094ca: e7 80 a0 09          	jalr	154(ra)
ffffffff802094ce: 85 4d                	addi	s11, zero, 1
ffffffff802094d0: 21 f9                	bnez	a0, -176
ffffffff802094d2: 0c 74                	ld	a1, 40(s0)
ffffffff802094d4: 08 70                	ld	a0, 32(s0)
ffffffff802094d6: 94 6d                	ld	a3, 24(a1)
ffffffff802094d8: ca 85                	add	a1, zero, s2
ffffffff802094da: 4e 86                	add	a2, zero, s3
ffffffff802094dc: 82 96                	jalr	a3
ffffffff802094de: 29 f1                	bnez	a0, -190
ffffffff802094e0: 03 39 04 02          	ld	s2, 32(s0)
ffffffff802094e4: 00 74                	ld	s0, 40(s0)
ffffffff802094e6: 93 04 1c 00          	addi	s1, s8, 1
ffffffff802094ea: fd 14                	addi	s1, s1, -1
ffffffff802094ec: b5 c0                	beqz	s1, 100
ffffffff802094ee: 10 70                	ld	a2, 32(s0)
ffffffff802094f0: 4a 85                	add	a0, zero, s2
ffffffff802094f2: de 85                	add	a1, zero, s7
ffffffff802094f4: 02 96                	jalr	a2
ffffffff802094f6: 75 d9                	beqz	a0, -12
ffffffff802094f8: 25 b7                	j	-216
ffffffff802094fa: 93 05 15 00          	addi	a1, a0, 1
ffffffff802094fe: 05 81                	srli	a0, a0, 1
ffffffff80209500: 93 da 15 00          	srli	s5, a1, 1
ffffffff80209504: 93 04 15 00          	addi	s1, a0, 1
ffffffff80209508: fd 14                	addi	s1, s1, -1
ffffffff8020950a: 89 c8                	beqz	s1, 18
ffffffff8020950c: 0c 74                	ld	a1, 40(s0)
ffffffff8020950e: 08 70                	ld	a0, 32(s0)
ffffffff80209510: 90 71                	ld	a2, 32(a1)
ffffffff80209512: 4c 58                	lw	a1, 52(s0)
ffffffff80209514: 02 96                	jalr	a2
ffffffff80209516: 6d d9                	beqz	a0, -14
ffffffff80209518: 85 4d                	addi	s11, zero, 1
ffffffff8020951a: 19 b7                	j	-250
ffffffff8020951c: 0c 74                	ld	a1, 40(s0)
ffffffff8020951e: 03 6a 44 03          	lwu	s4, 52(s0)
ffffffff80209522: 08 70                	ld	a0, 32(s0)
ffffffff80209524: 94 6d                	ld	a3, 24(a1)
ffffffff80209526: ca 85                	add	a1, zero, s2
ffffffff80209528: 4e 86                	add	a2, zero, s3
ffffffff8020952a: 82 96                	jalr	a3
ffffffff8020952c: 85 4d                	addi	s11, zero, 1
ffffffff8020952e: e3 19 05 ee          	bnez	a0, -270
ffffffff80209532: 03 39 04 02          	ld	s2, 32(s0)
ffffffff80209536: 83 39 84 02          	ld	s3, 40(s0)
ffffffff8020953a: 93 84 1a 00          	addi	s1, s5, 1
ffffffff8020953e: fd 14                	addi	s1, s1, -1
ffffffff80209540: 91 c8                	beqz	s1, 20
ffffffff80209542: 03 b6 09 02          	ld	a2, 32(s3)
ffffffff80209546: 4a 85                	add	a0, zero, s2
ffffffff80209548: d2 85                	add	a1, zero, s4
ffffffff8020954a: 02 96                	jalr	a2
ffffffff8020954c: 6d d9                	beqz	a0, -14
ffffffff8020954e: c9 bd                	j	-302
ffffffff80209550: 81 4d                	mv	s11, zero
ffffffff80209552: f9 b5                	j	-306
ffffffff80209554: 81 4d                	mv	s11, zero
ffffffff80209556: 23 2a 74 03          	sw	s7, 52(s0)
ffffffff8020955a: 23 0c 84 03          	sb	s8, 56(s0)
ffffffff8020955e: c9 b5                	j	-318

ffffffff80209560 _ZN4core3fmt9Formatter12pad_integral12write_prefix17hf78ea515610d6c2eE:
ffffffff80209560: 01 11                	addi	sp, sp, -32
ffffffff80209562: 06 ec                	sd	ra, 24(sp)
ffffffff80209564: 22 e8                	sd	s0, 16(sp)
ffffffff80209566: 26 e4                	sd	s1, 8(sp)
ffffffff80209568: 4a e0                	sd	s2, 0(sp)
ffffffff8020956a: 13 97 05 02          	slli	a4, a1, 32
ffffffff8020956e: 01 93                	srli	a4, a4, 32
ffffffff80209570: b7 07 11 00          	lui	a5, 272
ffffffff80209574: 36 89                	add	s2, zero, a3
ffffffff80209576: b2 84                	add	s1, zero, a2
ffffffff80209578: 2a 84                	add	s0, zero, a0
ffffffff8020957a: 63 09 f7 00          	beq	a4, a5, 18
ffffffff8020957e: 10 74                	ld	a2, 40(s0)
ffffffff80209580: 08 70                	ld	a0, 32(s0)
ffffffff80209582: 10 72                	ld	a2, 32(a2)
ffffffff80209584: 02 96                	jalr	a2
ffffffff80209586: aa 85                	add	a1, zero, a0
ffffffff80209588: 05 45                	addi	a0, zero, 1
ffffffff8020958a: 91 e9                	bnez	a1, 20
ffffffff8020958c: 81 c8                	beqz	s1, 16
ffffffff8020958e: 0c 74                	ld	a1, 40(s0)
ffffffff80209590: 08 70                	ld	a0, 32(s0)
ffffffff80209592: 94 6d                	ld	a3, 24(a1)
ffffffff80209594: a6 85                	add	a1, zero, s1
ffffffff80209596: 4a 86                	add	a2, zero, s2
ffffffff80209598: 82 96                	jalr	a3
ffffffff8020959a: 11 a0                	j	4
ffffffff8020959c: 01 45                	mv	a0, zero
ffffffff8020959e: 02 69                	ld	s2, 0(sp)
ffffffff802095a0: a2 64                	ld	s1, 8(sp)
ffffffff802095a2: 42 64                	ld	s0, 16(sp)
ffffffff802095a4: e2 60                	ld	ra, 24(sp)
ffffffff802095a6: 05 61                	addi	sp, sp, 32
ffffffff802095a8: 82 80                	ret

ffffffff802095aa _ZN4core3fmt9Formatter3pad17h017f758b28b77478E:
ffffffff802095aa: 39 71                	addi	sp, sp, -64
ffffffff802095ac: 06 fc                	sd	ra, 56(sp)
ffffffff802095ae: 22 f8                	sd	s0, 48(sp)
ffffffff802095b0: 26 f4                	sd	s1, 40(sp)
ffffffff802095b2: 4a f0                	sd	s2, 32(sp)
ffffffff802095b4: 4e ec                	sd	s3, 24(sp)
ffffffff802095b6: 52 e8                	sd	s4, 16(sp)
ffffffff802095b8: 56 e4                	sd	s5, 8(sp)
ffffffff802095ba: 5a e0                	sd	s6, 0(sp)
ffffffff802095bc: 2a 8b                	add	s6, zero, a0
ffffffff802095be: 83 33 05 00          	ld	t2, 0(a0)
ffffffff802095c2: 08 69                	ld	a0, 16(a0)
ffffffff802095c4: 85 46                	addi	a3, zero, 1
ffffffff802095c6: 32 8a                	add	s4, zero, a2
ffffffff802095c8: 2e 89                	add	s2, zero, a1
ffffffff802095ca: 63 95 d3 00          	bne	t2, a3, 10
ffffffff802095ce: 63 05 d5 00          	beq	a0, a3, 10
ffffffff802095d2: 09 aa                	j	274
ffffffff802095d4: 63 11 d5 18          	bne	a0, a3, 386
ffffffff802095d8: 63 0c 0a 0c          	beqz	s4, 216
ffffffff802095dc: 03 35 8b 01          	ld	a0, 24(s6)
ffffffff802095e0: 81 45                	mv	a1, zero
ffffffff802095e2: 33 07 49 01          	add	a4, s2, s4
ffffffff802095e6: 93 06 15 00          	addi	a3, a0, 1
ffffffff802095ea: 7d 5e                	addi	t3, zero, -1
ffffffff802095ec: 13 03 f0 0d          	addi	t1, zero, 223
ffffffff802095f0: 13 08 00 0f          	addi	a6, zero, 240
ffffffff802095f4: b7 08 1c 00          	lui	a7, 448
ffffffff802095f8: b7 02 11 00          	lui	t0, 272
ffffffff802095fc: ca 87                	add	a5, zero, s2
ffffffff802095fe: 4a 85                	add	a0, zero, s2
ffffffff80209600: 03 84 07 00          	lb	s0, 0(a5)
ffffffff80209604: 13 86 17 00          	addi	a2, a5, 1
ffffffff80209608: 93 74 f4 0f          	andi	s1, s0, 255
ffffffff8020960c: 63 54 8e 00          	bge	t3, s0, 8
ffffffff80209610: b2 87                	add	a5, zero, a2
ffffffff80209612: 69 a0                	j	138
ffffffff80209614: 63 03 e6 04          	beq	a2, a4, 70
ffffffff80209618: 03 c4 17 00          	lbu	s0, 1(a5)
ffffffff8020961c: 13 86 27 00          	addi	a2, a5, 2
ffffffff80209620: 13 74 f4 03          	andi	s0, s0, 63
ffffffff80209624: b2 87                	add	a5, zero, a2
ffffffff80209626: 93 fe f4 01          	andi	t4, s1, 31
ffffffff8020962a: 63 7f 93 02          	bgeu	t1, s1, 62
ffffffff8020962e: 63 02 e6 04          	beq	a2, a4, 68
ffffffff80209632: 03 4f 06 00          	lbu	t5, 0(a2)
ffffffff80209636: 93 07 16 00          	addi	a5, a2, 1
ffffffff8020963a: 13 76 ff 03          	andi	a2, t5, 63
ffffffff8020963e: 3e 8f                	add	t5, zero, a5
ffffffff80209640: 1a 04                	slli	s0, s0, 6
ffffffff80209642: 51 8c                	or	s0, s0, a2
ffffffff80209644: 63 ed 04 03          	bltu	s1, a6, 58
ffffffff80209648: 63 00 ef 04          	beq	t5, a4, 64
ffffffff8020964c: 03 46 0f 00          	lbu	a2, 0(t5)
ffffffff80209650: 93 07 1f 00          	addi	a5, t5, 1
ffffffff80209654: 13 76 f6 03          	andi	a2, a2, 63
ffffffff80209658: 0d a8                	j	50
ffffffff8020965a: 01 44                	mv	s0, zero
ffffffff8020965c: b2 87                	add	a5, zero, a2
ffffffff8020965e: 3a 86                	add	a2, zero, a4
ffffffff80209660: 93 fe f4 01          	andi	t4, s1, 31
ffffffff80209664: e3 65 93 fc          	bltu	t1, s1, -54
ffffffff80209668: 13 96 6e 00          	slli	a2, t4, 6
ffffffff8020966c: b3 64 c4 00          	or	s1, s0, a2
ffffffff80209670: 35 a0                	j	44
ffffffff80209672: 01 46                	mv	a2, zero
ffffffff80209674: 3a 8f                	add	t5, zero, a4
ffffffff80209676: 1a 04                	slli	s0, s0, 6
ffffffff80209678: 51 8c                	or	s0, s0, a2
ffffffff8020967a: e3 f7 04 fd          	bgeu	s1, a6, -50
ffffffff8020967e: 13 96 ce 00          	slli	a2, t4, 12
ffffffff80209682: b3 64 c4 00          	or	s1, s0, a2
ffffffff80209686: 19 a8                	j	22
ffffffff80209688: 01 46                	mv	a2, zero
ffffffff8020968a: 93 94 2e 01          	slli	s1, t4, 18
ffffffff8020968e: b3 f4 14 01          	and	s1, s1, a7
ffffffff80209692: 1a 04                	slli	s0, s0, 6
ffffffff80209694: c1 8c                	or	s1, s1, s0
ffffffff80209696: d1 8c                	or	s1, s1, a2
ffffffff80209698: 63 83 54 04          	beq	s1, t0, 70
ffffffff8020969c: fd 16                	addi	a3, a3, -1
ffffffff8020969e: 99 ca                	beqz	a3, 22
ffffffff802096a0: 33 85 a5 40          	sub	a0, a1, a0
ffffffff802096a4: b3 05 f5 00          	add	a1, a0, a5
ffffffff802096a8: 3e 85                	add	a0, zero, a5
ffffffff802096aa: e3 1b f7 f4          	bne	a4, a5, -170
ffffffff802096ae: 05 a8                	j	48
ffffffff802096b0: 01 4a                	mv	s4, zero
ffffffff802096b2: 35 a0                	j	44
ffffffff802096b4: 37 05 11 00          	lui	a0, 272
ffffffff802096b8: 63 83 a4 02          	beq	s1, a0, 38
ffffffff802096bc: 89 cd                	beqz	a1, 26
ffffffff802096be: 63 8c 45 01          	beq	a1, s4, 24
ffffffff802096c2: 63 f4 45 13          	bgeu	a1, s4, 296
ffffffff802096c6: 33 05 b9 00          	add	a0, s2, a1
ffffffff802096ca: 03 05 05 00          	lb	a0, 0(a0)
ffffffff802096ce: 13 06 00 fc          	addi	a2, zero, -64
ffffffff802096d2: 63 4c c5 10          	blt	a0, a2, 280
ffffffff802096d6: 4a 85                	add	a0, zero, s2
ffffffff802096d8: 19 c1                	beqz	a0, 6
ffffffff802096da: 2a 89                	add	s2, zero, a0
ffffffff802096dc: 2e 8a                	add	s4, zero, a1
ffffffff802096de: 05 45                	addi	a0, zero, 1
ffffffff802096e0: 63 9b a3 06          	bne	t2, a0, 118
ffffffff802096e4: 81 45                	mv	a1, zero
ffffffff802096e6: 63 00 0a 02          	beqz	s4, 32
ffffffff802096ea: 52 85                	add	a0, zero, s4
ffffffff802096ec: 4a 86                	add	a2, zero, s2
ffffffff802096ee: 83 46 06 00          	lbu	a3, 0(a2)
ffffffff802096f2: 05 06                	addi	a2, a2, 1
ffffffff802096f4: 93 f6 06 0c          	andi	a3, a3, 192
ffffffff802096f8: 93 c6 06 08          	xori	a3, a3, 128
ffffffff802096fc: 93 b6 16 00          	seqz	a3, a3
ffffffff80209700: 7d 15                	addi	a0, a0, -1
ffffffff80209702: b6 95                	add	a1, a1, a3
ffffffff80209704: 6d f5                	bnez	a0, -22
ffffffff80209706: 03 35 8b 00          	ld	a0, 8(s6)
ffffffff8020970a: b3 05 ba 40          	sub	a1, s4, a1
ffffffff8020970e: 63 f4 a5 04          	bgeu	a1, a0, 72
ffffffff80209712: 81 45                	mv	a1, zero
ffffffff80209714: 63 00 0a 02          	beqz	s4, 32
ffffffff80209718: 52 86                	add	a2, zero, s4
ffffffff8020971a: ca 86                	add	a3, zero, s2
ffffffff8020971c: 03 c7 06 00          	lbu	a4, 0(a3)
ffffffff80209720: 85 06                	addi	a3, a3, 1
ffffffff80209722: 13 77 07 0c          	andi	a4, a4, 192
ffffffff80209726: 13 47 07 08          	xori	a4, a4, 128
ffffffff8020972a: 13 37 17 00          	seqz	a4, a4
ffffffff8020972e: 7d 16                	addi	a2, a2, -1
ffffffff80209730: ba 95                	add	a1, a1, a4
ffffffff80209732: 6d f6                	bnez	a2, -22
ffffffff80209734: 83 46 8b 03          	lbu	a3, 56(s6)
ffffffff80209738: 01 46                	mv	a2, zero
ffffffff8020973a: 0d 47                	addi	a4, zero, 3
ffffffff8020973c: b3 85 45 41          	sub	a1, a1, s4
ffffffff80209740: 63 83 e6 00          	beq	a3, a4, 6
ffffffff80209744: 36 86                	add	a2, zero, a3
ffffffff80209746: 85 46                	addi	a3, zero, 1
ffffffff80209748: 2e 95                	add	a0, a0, a1
ffffffff8020974a: 63 ca c6 02          	blt	a3, a2, 52
ffffffff8020974e: 1d ea                	bnez	a2, 54
ffffffff80209750: aa 8a                	add	s5, zero, a0
ffffffff80209752: 01 45                	mv	a0, zero
ffffffff80209754: 3d a8                	j	62
ffffffff80209756: 83 35 8b 02          	ld	a1, 40(s6)
ffffffff8020975a: 03 35 0b 02          	ld	a0, 32(s6)
ffffffff8020975e: 94 6d                	ld	a3, 24(a1)
ffffffff80209760: ca 85                	add	a1, zero, s2
ffffffff80209762: 52 86                	add	a2, zero, s4
ffffffff80209764: 82 96                	jalr	a3
ffffffff80209766: aa 84                	add	s1, zero, a0
ffffffff80209768: 26 85                	add	a0, zero, s1
ffffffff8020976a: 02 6b                	ld	s6, 0(sp)
ffffffff8020976c: a2 6a                	ld	s5, 8(sp)
ffffffff8020976e: 42 6a                	ld	s4, 16(sp)
ffffffff80209770: e2 69                	ld	s3, 24(sp)
ffffffff80209772: 02 79                	ld	s2, 32(sp)
ffffffff80209774: a2 74                	ld	s1, 40(sp)
ffffffff80209776: 42 74                	ld	s0, 48(sp)
ffffffff80209778: e2 70                	ld	ra, 56(sp)
ffffffff8020977a: 21 61                	addi	sp, sp, 64
ffffffff8020977c: 82 80                	ret
ffffffff8020977e: 8d 45                	addi	a1, zero, 3
ffffffff80209780: 63 14 b6 00          	bne	a2, a1, 8
ffffffff80209784: 81 4a                	mv	s5, zero
ffffffff80209786: 31 a0                	j	12
ffffffff80209788: 93 05 15 00          	addi	a1, a0, 1
ffffffff8020978c: 05 81                	srli	a0, a0, 1
ffffffff8020978e: 93 da 15 00          	srli	s5, a1, 1
ffffffff80209792: 13 04 15 00          	addi	s0, a0, 1
ffffffff80209796: 7d 14                	addi	s0, s0, -1
ffffffff80209798: 01 cc                	beqz	s0, 24
ffffffff8020979a: 83 35 8b 02          	ld	a1, 40(s6)
ffffffff8020979e: 03 35 0b 02          	ld	a0, 32(s6)
ffffffff802097a2: 90 71                	ld	a2, 32(a1)
ffffffff802097a4: 83 25 4b 03          	lw	a1, 52(s6)
ffffffff802097a8: 02 96                	jalr	a2
ffffffff802097aa: 75 d5                	beqz	a0, -20
ffffffff802097ac: 85 44                	addi	s1, zero, 1
ffffffff802097ae: 6d bf                	j	-70
ffffffff802097b0: 83 35 8b 02          	ld	a1, 40(s6)
ffffffff802097b4: 83 69 4b 03          	lwu	s3, 52(s6)
ffffffff802097b8: 03 35 0b 02          	ld	a0, 32(s6)
ffffffff802097bc: 94 6d                	ld	a3, 24(a1)
ffffffff802097be: ca 85                	add	a1, zero, s2
ffffffff802097c0: 52 86                	add	a2, zero, s4
ffffffff802097c2: 82 96                	jalr	a3
ffffffff802097c4: 85 44                	addi	s1, zero, 1
ffffffff802097c6: 4d f1                	bnez	a0, -94
ffffffff802097c8: 03 39 0b 02          	ld	s2, 32(s6)
ffffffff802097cc: 03 3a 8b 02          	ld	s4, 40(s6)
ffffffff802097d0: 13 84 1a 00          	addi	s0, s5, 1
ffffffff802097d4: 7d 14                	addi	s0, s0, -1
ffffffff802097d6: 01 c8                	beqz	s0, 16
ffffffff802097d8: 03 36 0a 02          	ld	a2, 32(s4)
ffffffff802097dc: 4a 85                	add	a0, zero, s2
ffffffff802097de: ce 85                	add	a1, zero, s3
ffffffff802097e0: 02 96                	jalr	a2
ffffffff802097e2: 6d d9                	beqz	a0, -14
ffffffff802097e4: 51 b7                	j	-124
ffffffff802097e6: 81 44                	mv	s1, zero
ffffffff802097e8: 41 b7                	j	-128
ffffffff802097ea: 01 45                	mv	a0, zero
ffffffff802097ec: e3 09 05 ee          	beqz	a0, -270
ffffffff802097f0: ed b5                	j	-278

ffffffff802097f2 _ZN57_$LT$core..fmt..Formatter$u20$as$u20$core..fmt..Write$GT$9write_fmt17he08225d798b5c395E:
ffffffff802097f2: 39 71                	addi	sp, sp, -64
ffffffff802097f4: 06 fc                	sd	ra, 56(sp)
ffffffff802097f6: 90 75                	ld	a2, 40(a1)
ffffffff802097f8: 9c 71                	ld	a5, 32(a1)
ffffffff802097fa: 18 71                	ld	a4, 32(a0)
ffffffff802097fc: 14 75                	ld	a3, 40(a0)
ffffffff802097fe: 32 f8                	sd	a2, 48(sp)
ffffffff80209800: 3e f4                	sd	a5, 40(sp)
ffffffff80209802: 88 6d                	ld	a0, 24(a1)
ffffffff80209804: 90 69                	ld	a2, 16(a1)
ffffffff80209806: 9c 65                	ld	a5, 8(a1)
ffffffff80209808: 8c 61                	ld	a1, 0(a1)
ffffffff8020980a: 2a f0                	sd	a0, 32(sp)
ffffffff8020980c: 32 ec                	sd	a2, 24(sp)
ffffffff8020980e: 3e e8                	sd	a5, 16(sp)
ffffffff80209810: 2e e4                	sd	a1, 8(sp)
ffffffff80209812: 30 00                	addi	a2, sp, 8
ffffffff80209814: 3a 85                	add	a0, zero, a4
ffffffff80209816: b6 85                	add	a1, zero, a3
ffffffff80209818: 97 00 00 00          	auipc	ra, 0
ffffffff8020981c: e7 80 80 94          	jalr	-1720(ra)
ffffffff80209820: e2 70                	ld	ra, 56(sp)
ffffffff80209822: 21 61                	addi	sp, sp, 64
ffffffff80209824: 82 80                	ret

ffffffff80209826 _ZN4core3fmt9Formatter15debug_lower_hex17h58b529c6b82c61dfE:
ffffffff80209826: 03 45 05 03          	lbu	a0, 48(a0)
ffffffff8020982a: 41 89                	andi	a0, a0, 16
ffffffff8020982c: 11 81                	srli	a0, a0, 4
ffffffff8020982e: 82 80                	ret

ffffffff80209830 _ZN4core3fmt9Formatter15debug_upper_hex17hbfe6fe7aaa09bf33E:
ffffffff80209830: 03 45 05 03          	lbu	a0, 48(a0)
ffffffff80209834: 13 75 05 02          	andi	a0, a0, 32
ffffffff80209838: 15 81                	srli	a0, a0, 5
ffffffff8020983a: 82 80                	ret

ffffffff8020983c _ZN4core3fmt9Formatter12debug_struct17h6ce77db37abc6f74E:
ffffffff8020983c: 01 11                	addi	sp, sp, -32
ffffffff8020983e: 06 ec                	sd	ra, 24(sp)
ffffffff80209840: 22 e8                	sd	s0, 16(sp)
ffffffff80209842: 26 e4                	sd	s1, 8(sp)
ffffffff80209844: 2e 84                	add	s0, zero, a1
ffffffff80209846: 98 75                	ld	a4, 40(a1)
ffffffff80209848: 8c 71                	ld	a1, 32(a1)
ffffffff8020984a: 18 6f                	ld	a4, 24(a4)
ffffffff8020984c: aa 84                	add	s1, zero, a0
ffffffff8020984e: 2e 85                	add	a0, zero, a1
ffffffff80209850: b2 85                	add	a1, zero, a2
ffffffff80209852: 36 86                	add	a2, zero, a3
ffffffff80209854: 02 97                	jalr	a4
ffffffff80209856: 80 e0                	sd	s0, 0(s1)
ffffffff80209858: 23 84 a4 00          	sb	a0, 8(s1)
ffffffff8020985c: a3 84 04 00          	sb	zero, 9(s1)
ffffffff80209860: a2 64                	ld	s1, 8(sp)
ffffffff80209862: 42 64                	ld	s0, 16(sp)
ffffffff80209864: e2 60                	ld	ra, 24(sp)
ffffffff80209866: 05 61                	addi	sp, sp, 32
ffffffff80209868: 82 80                	ret

ffffffff8020986a _ZN4core3fmt9Formatter11debug_tuple17h3e7836b24f51e394E:
ffffffff8020986a: 01 11                	addi	sp, sp, -32
ffffffff8020986c: 06 ec                	sd	ra, 24(sp)
ffffffff8020986e: 22 e8                	sd	s0, 16(sp)
ffffffff80209870: 26 e4                	sd	s1, 8(sp)
ffffffff80209872: 4a e0                	sd	s2, 0(sp)
ffffffff80209874: 2e 84                	add	s0, zero, a1
ffffffff80209876: 98 75                	ld	a4, 40(a1)
ffffffff80209878: 8c 71                	ld	a1, 32(a1)
ffffffff8020987a: 18 6f                	ld	a4, 24(a4)
ffffffff8020987c: 36 89                	add	s2, zero, a3
ffffffff8020987e: aa 84                	add	s1, zero, a0
ffffffff80209880: 2e 85                	add	a0, zero, a1
ffffffff80209882: b2 85                	add	a1, zero, a2
ffffffff80209884: 36 86                	add	a2, zero, a3
ffffffff80209886: 02 97                	jalr	a4
ffffffff80209888: 93 35 19 00          	seqz	a1, s2
ffffffff8020988c: 80 e0                	sd	s0, 0(s1)
ffffffff8020988e: 23 88 a4 00          	sb	a0, 16(s1)
ffffffff80209892: 23 b4 04 00          	sd	zero, 8(s1)
ffffffff80209896: a3 88 b4 00          	sb	a1, 17(s1)
ffffffff8020989a: 02 69                	ld	s2, 0(sp)
ffffffff8020989c: a2 64                	ld	s1, 8(sp)
ffffffff8020989e: 42 64                	ld	s0, 16(sp)
ffffffff802098a0: e2 60                	ld	ra, 24(sp)
ffffffff802098a2: 05 61                	addi	sp, sp, 32
ffffffff802098a4: 82 80                	ret

ffffffff802098a6 _ZN4core3fmt9Formatter10debug_list17h686a8f4ac8fa2970E:
ffffffff802098a6: 01 11                	addi	sp, sp, -32
ffffffff802098a8: 06 ec                	sd	ra, 24(sp)
ffffffff802098aa: 22 e8                	sd	s0, 16(sp)
ffffffff802098ac: 26 e4                	sd	s1, 8(sp)
ffffffff802098ae: 2e 84                	add	s0, zero, a1
ffffffff802098b0: 8c 75                	ld	a1, 40(a1)
ffffffff802098b2: 14 70                	ld	a3, 32(s0)
ffffffff802098b4: 98 6d                	ld	a4, 24(a1)
ffffffff802098b6: aa 84                	add	s1, zero, a0

ffffffff802098b8 .LBB183_1:
ffffffff802098b8: 97 45 00 00          	auipc	a1, 4
ffffffff802098bc: 93 85 35 b2          	addi	a1, a1, -1245
ffffffff802098c0: 05 46                	addi	a2, zero, 1
ffffffff802098c2: 36 85                	add	a0, zero, a3
ffffffff802098c4: 02 97                	jalr	a4
ffffffff802098c6: 80 e0                	sd	s0, 0(s1)
ffffffff802098c8: 23 84 a4 00          	sb	a0, 8(s1)
ffffffff802098cc: a3 84 04 00          	sb	zero, 9(s1)
ffffffff802098d0: a2 64                	ld	s1, 8(sp)
ffffffff802098d2: 42 64                	ld	s0, 16(sp)
ffffffff802098d4: e2 60                	ld	ra, 24(sp)
ffffffff802098d6: 05 61                	addi	sp, sp, 32
ffffffff802098d8: 82 80                	ret

ffffffff802098da _ZN42_$LT$str$u20$as$u20$core..fmt..Display$GT$3fmt17hbc3d99ec4c26518bE:
ffffffff802098da: ae 86                	add	a3, zero, a1
ffffffff802098dc: aa 85                	add	a1, zero, a0
ffffffff802098de: 32 85                	add	a0, zero, a2
ffffffff802098e0: 36 86                	add	a2, zero, a3
ffffffff802098e2: 17 03 00 00          	auipc	t1, 0
ffffffff802098e6: 67 00 83 cc          	jr	-824(t1)

ffffffff802098ea _ZN41_$LT$char$u20$as$u20$core..fmt..Debug$GT$3fmt17hd80063bf4fae91a8E:
ffffffff802098ea: 59 71                	addi	sp, sp, -112
ffffffff802098ec: 86 f4                	sd	ra, 104(sp)
ffffffff802098ee: a2 f0                	sd	s0, 96(sp)
ffffffff802098f0: a6 ec                	sd	s1, 88(sp)
ffffffff802098f2: ca e8                	sd	s2, 80(sp)
ffffffff802098f4: ce e4                	sd	s3, 72(sp)
ffffffff802098f6: d2 e0                	sd	s4, 64(sp)
ffffffff802098f8: 56 fc                	sd	s5, 56(sp)
ffffffff802098fa: 5a f8                	sd	s6, 48(sp)
ffffffff802098fc: 5e f4                	sd	s7, 40(sp)
ffffffff802098fe: 62 f0                	sd	s8, 32(sp)
ffffffff80209900: 66 ec                	sd	s9, 24(sp)
ffffffff80209902: 6a e8                	sd	s10, 16(sp)
ffffffff80209904: 6e e4                	sd	s11, 8(sp)
ffffffff80209906: 2e 84                	add	s0, zero, a1
ffffffff80209908: 8c 75                	ld	a1, 40(a1)
ffffffff8020990a: 10 70                	ld	a2, 32(s0)
ffffffff8020990c: 94 71                	ld	a3, 32(a1)
ffffffff8020990e: aa 84                	add	s1, zero, a0
ffffffff80209910: 93 05 70 02          	addi	a1, zero, 39
ffffffff80209914: 32 85                	add	a0, zero, a2
ffffffff80209916: 82 96                	jalr	a3
ffffffff80209918: aa 85                	add	a1, zero, a0
ffffffff8020991a: 05 45                	addi	a0, zero, 1
ffffffff8020991c: 63 97 05 22          	bnez	a1, 558
ffffffff80209920: 03 e9 04 00          	lwu	s2, 0(s1)
ffffffff80209924: 13 05 10 02          	addi	a0, zero, 33
ffffffff80209928: 89 44                	addi	s1, zero, 2
ffffffff8020992a: 63 4e 25 01          	blt	a0, s2, 28
ffffffff8020992e: 25 45                	addi	a0, zero, 9
ffffffff80209930: 63 09 a9 02          	beq	s2, a0, 50
ffffffff80209934: 29 45                	addi	a0, zero, 10
ffffffff80209936: 63 09 a9 02          	beq	s2, a0, 50
ffffffff8020993a: 35 45                	addi	a0, zero, 13
ffffffff8020993c: 63 19 a9 02          	bne	s2, a0, 50
ffffffff80209940: 93 09 20 07          	addi	s3, zero, 114
ffffffff80209944: a1 aa                	j	344
ffffffff80209946: 13 05 20 02          	addi	a0, zero, 34
ffffffff8020994a: 63 0a a9 00          	beq	s2, a0, 20
ffffffff8020994e: 13 05 70 02          	addi	a0, zero, 39
ffffffff80209952: 63 06 a9 00          	beq	s2, a0, 12
ffffffff80209956: 13 05 c0 05          	addi	a0, zero, 92
ffffffff8020995a: 63 1a a9 00          	bne	s2, a0, 20
ffffffff8020995e: ca 89                	add	s3, zero, s2
ffffffff80209960: 35 aa                	j	316
ffffffff80209962: 93 09 40 07          	addi	s3, zero, 116
ffffffff80209966: 1d aa                	j	310
ffffffff80209968: 93 09 e0 06          	addi	s3, zero, 110
ffffffff8020996c: 05 aa                	j	304
ffffffff8020996e: 4a 85                	add	a0, zero, s2
ffffffff80209970: 97 10 00 00          	auipc	ra, 1
ffffffff80209974: e7 80 60 c5          	jalr	-938(ra)
ffffffff80209978: 25 e5                	bnez	a0, 104
ffffffff8020997a: 13 55 09 01          	srli	a0, s2, 16
ffffffff8020997e: 05 e5                	bnez	a0, 40

ffffffff80209980 .LBB193_53:
ffffffff80209980: 97 45 00 00          	auipc	a1, 4
ffffffff80209984: 93 85 85 e7          	addi	a1, a1, -392

ffffffff80209988 .LBB193_54:
ffffffff80209988: 97 46 00 00          	auipc	a3, 4
ffffffff8020998c: 93 86 26 ec          	addi	a3, a3, -318

ffffffff80209990 .LBB193_55:
ffffffff80209990: 97 47 00 00          	auipc	a5, 4
ffffffff80209994: 93 87 c7 fd          	addi	a5, a5, -36
ffffffff80209998: 13 06 90 02          	addi	a2, zero, 41
ffffffff8020999c: 13 07 20 12          	addi	a4, zero, 290
ffffffff802099a0: 13 08 50 13          	addi	a6, zero, 309
ffffffff802099a4: 3d a0                	j	46
ffffffff802099a6: 13 55 19 01          	srli	a0, s2, 17
ffffffff802099aa: 63 11 05 1c          	bnez	a0, 450

ffffffff802099ae .LBB193_56:
ffffffff802099ae: 97 45 00 00          	auipc	a1, 4
ffffffff802099b2: 93 85 35 0f          	addi	a1, a1, 243

ffffffff802099b6 .LBB193_57:
ffffffff802099b6: 97 46 00 00          	auipc	a3, 4
ffffffff802099ba: 93 86 76 13          	addi	a3, a3, 311

ffffffff802099be .LBB193_58:
ffffffff802099be: 97 47 00 00          	auipc	a5, 4
ffffffff802099c2: 93 87 e7 1d          	addi	a5, a5, 478
ffffffff802099c6: 13 06 60 02          	addi	a2, zero, 38
ffffffff802099ca: 13 07 f0 0a          	addi	a4, zero, 175
ffffffff802099ce: 13 08 30 1a          	addi	a6, zero, 419
ffffffff802099d2: 4a 85                	add	a0, zero, s2
ffffffff802099d4: 97 00 00 00          	auipc	ra, 0
ffffffff802099d8: e7 80 80 67          	jalr	1656(ra)
ffffffff802099dc: 63 1c 05 22          	bnez	a0, 568
ffffffff802099e0: 13 65 19 00          	ori	a0, s2, 1
ffffffff802099e4: 93 55 15 00          	srli	a1, a0, 1
ffffffff802099e8: 4d 8d                	or	a0, a0, a1
ffffffff802099ea: 93 55 25 00          	srli	a1, a0, 2
ffffffff802099ee: 4d 8d                	or	a0, a0, a1
ffffffff802099f0: 93 55 45 00          	srli	a1, a0, 4
ffffffff802099f4: 4d 8d                	or	a0, a0, a1
ffffffff802099f6: 93 55 85 00          	srli	a1, a0, 8
ffffffff802099fa: 4d 8d                	or	a0, a0, a1
ffffffff802099fc: 93 55 05 01          	srli	a1, a0, 16
ffffffff80209a00: 4d 8d                	or	a0, a0, a1
ffffffff80209a02: 93 55 05 02          	srli	a1, a0, 32
ffffffff80209a06: 4d 8d                	or	a0, a0, a1
ffffffff80209a08: 13 45 f5 ff          	not	a0, a0
ffffffff80209a0c: 93 55 15 00          	srli	a1, a0, 1
ffffffff80209a10: 37 56 55 05          	lui	a2, 21845
ffffffff80209a14: 1b 06 56 55          	addiw	a2, a2, 1365
ffffffff80209a18: 32 06                	slli	a2, a2, 12
ffffffff80209a1a: 13 06 56 55          	addi	a2, a2, 1365
ffffffff80209a1e: 32 06                	slli	a2, a2, 12
ffffffff80209a20: 13 06 56 55          	addi	a2, a2, 1365
ffffffff80209a24: 32 06                	slli	a2, a2, 12
ffffffff80209a26: 13 06 56 55          	addi	a2, a2, 1365
ffffffff80209a2a: f1 8d                	and	a1, a1, a2
ffffffff80209a2c: 0d 8d                	sub	a0, a0, a1
ffffffff80209a2e: b7 35 33 03          	lui	a1, 13107
ffffffff80209a32: 9b 85 35 33          	addiw	a1, a1, 819
ffffffff80209a36: b2 05                	slli	a1, a1, 12
ffffffff80209a38: 93 85 35 33          	addi	a1, a1, 819
ffffffff80209a3c: b2 05                	slli	a1, a1, 12
ffffffff80209a3e: 93 85 35 33          	addi	a1, a1, 819
ffffffff80209a42: b2 05                	slli	a1, a1, 12
ffffffff80209a44: 93 85 35 33          	addi	a1, a1, 819
ffffffff80209a48: 33 76 b5 00          	and	a2, a0, a1
ffffffff80209a4c: 09 81                	srli	a0, a0, 2
ffffffff80209a4e: 6d 8d                	and	a0, a0, a1
ffffffff80209a50: 32 95                	add	a0, a0, a2
ffffffff80209a52: 93 55 45 00          	srli	a1, a0, 4
ffffffff80209a56: 2e 95                	add	a0, a0, a1
ffffffff80209a58: b7 f5 f0 00          	lui	a1, 3855
ffffffff80209a5c: 9b 85 15 0f          	addiw	a1, a1, 241
ffffffff80209a60: b2 05                	slli	a1, a1, 12
ffffffff80209a62: 93 85 f5 f0          	addi	a1, a1, -241
ffffffff80209a66: b2 05                	slli	a1, a1, 12
ffffffff80209a68: 93 85 15 0f          	addi	a1, a1, 241
ffffffff80209a6c: b2 05                	slli	a1, a1, 12
ffffffff80209a6e: 93 85 f5 f0          	addi	a1, a1, -241
ffffffff80209a72: 6d 8d                	and	a0, a0, a1
ffffffff80209a74: b7 05 01 01          	lui	a1, 4112
ffffffff80209a78: 9b 85 15 10          	addiw	a1, a1, 257
ffffffff80209a7c: c2 05                	slli	a1, a1, 16
ffffffff80209a7e: 93 85 15 10          	addi	a1, a1, 257
ffffffff80209a82: c2 05                	slli	a1, a1, 16
ffffffff80209a84: 93 85 15 10          	addi	a1, a1, 257
ffffffff80209a88: 33 05 b5 02          	<unknown>
ffffffff80209a8c: 61 91                	srli	a0, a0, 56
ffffffff80209a8e: 01 15                	addi	a0, a0, -32
ffffffff80209a90: 1b 55 25 00          	srliw	a0, a0, 2
ffffffff80209a94: 13 45 75 00          	xori	a0, a0, 7
ffffffff80209a98: 2a e0                	sd	a0, 0(sp)
ffffffff80209a9a: 8d 44                	addi	s1, zero, 3
ffffffff80209a9c: 15 4a                	addi	s4, zero, 5
ffffffff80209a9e: 13 95 09 02          	slli	a0, s3, 32
ffffffff80209aa2: 93 5a 05 02          	srli	s5, a0, 32
ffffffff80209aa6: 37 0b 11 00          	lui	s6, 272
ffffffff80209aaa: 89 4b                	addi	s7, zero, 2
ffffffff80209aac: 05 4c                	addi	s8, zero, 1
ffffffff80209aae: a9 4c                	addi	s9, zero, 10
ffffffff80209ab0: 0d 4d                	addi	s10, zero, 3
ffffffff80209ab2: 91 4d                	addi	s11, zero, 4
ffffffff80209ab4: 39 a0                	j	14
ffffffff80209ab6: 85 44                	addi	s1, zero, 1
ffffffff80209ab8: 10 74                	ld	a2, 40(s0)
ffffffff80209aba: 08 70                	ld	a0, 32(s0)
ffffffff80209abc: 10 72                	ld	a2, 32(a2)
ffffffff80209abe: 02 96                	jalr	a2
ffffffff80209ac0: 45 e5                	bnez	a0, 168
ffffffff80209ac2: 13 95 04 02          	slli	a0, s1, 32
ffffffff80209ac6: 01 91                	srli	a0, a0, 32
ffffffff80209ac8: 63 48 ac 00          	blt	s8, a0, 16
ffffffff80209acc: 2d c9                	beqz	a0, 114
ffffffff80209ace: 63 88 6a 07          	beq	s5, s6, 112
ffffffff80209ad2: 81 44                	mv	s1, zero
ffffffff80209ad4: ce 85                	add	a1, zero, s3
ffffffff80209ad6: cd b7                	j	-30
ffffffff80209ad8: 93 05 c0 05          	addi	a1, zero, 92
ffffffff80209adc: e3 0d 75 fd          	beq	a0, s7, -38
ffffffff80209ae0: 13 75 fa 0f          	andi	a0, s4, 255
ffffffff80209ae4: 8d 44                	addi	s1, zero, 3
ffffffff80209ae6: 63 c9 ab 00          	blt	s7, a0, 18
ffffffff80209aea: 31 c9                	beqz	a0, 84
ffffffff80209aec: 63 10 85 03          	bne	a0, s8, 32
ffffffff80209af0: 01 4a                	mv	s4, zero
ffffffff80209af2: 93 05 d0 07          	addi	a1, zero, 125
ffffffff80209af6: c9 b7                	j	-62
ffffffff80209af8: 63 05 a5 03          	beq	a0, s10, 42
ffffffff80209afc: 11 4a                	addi	s4, zero, 4
ffffffff80209afe: e3 1d b5 fb          	bne	a0, s11, -70
ffffffff80209b02: 0d 4a                	addi	s4, zero, 3
ffffffff80209b04: 93 05 50 07          	addi	a1, zero, 117
ffffffff80209b08: 8d 44                	addi	s1, zero, 3
ffffffff80209b0a: 7d b7                	j	-82
ffffffff80209b0c: 02 66                	ld	a2, 0(sp)
ffffffff80209b0e: 13 15 26 00          	slli	a0, a2, 2
ffffffff80209b12: 3b 55 a9 00          	srlw	a0, s2, a0
ffffffff80209b16: 3d 89                	andi	a0, a0, 15
ffffffff80209b18: 63 69 95 01          	bltu	a0, s9, 18
ffffffff80209b1c: 93 05 75 05          	addi	a1, a0, 87
ffffffff80209b20: 39 a0                	j	14
ffffffff80209b22: 09 4a                	addi	s4, zero, 2
ffffffff80209b24: 93 05 b0 07          	addi	a1, zero, 123
ffffffff80209b28: 41 bf                	j	-112
ffffffff80209b2a: 93 65 05 03          	ori	a1, a0, 48
ffffffff80209b2e: 01 45                	mv	a0, zero
ffffffff80209b30: 05 4a                	addi	s4, zero, 1
ffffffff80209b32: 01 c6                	beqz	a2, 8
ffffffff80209b34: 13 05 f6 ff          	addi	a0, a2, -1
ffffffff80209b38: 09 4a                	addi	s4, zero, 2
ffffffff80209b3a: 2a e0                	sd	a0, 0(sp)
ffffffff80209b3c: b5 bf                	j	-132
ffffffff80209b3e: 0c 74                	ld	a1, 40(s0)
ffffffff80209b40: 08 70                	ld	a0, 32(s0)
ffffffff80209b42: 90 71                	ld	a2, 32(a1)
ffffffff80209b44: 93 05 70 02          	addi	a1, zero, 39
ffffffff80209b48: 02 96                	jalr	a2
ffffffff80209b4a: a2 6d                	ld	s11, 8(sp)
ffffffff80209b4c: 42 6d                	ld	s10, 16(sp)
ffffffff80209b4e: e2 6c                	ld	s9, 24(sp)
ffffffff80209b50: 02 7c                	ld	s8, 32(sp)
ffffffff80209b52: a2 7b                	ld	s7, 40(sp)
ffffffff80209b54: 42 7b                	ld	s6, 48(sp)
ffffffff80209b56: e2 7a                	ld	s5, 56(sp)
ffffffff80209b58: 06 6a                	ld	s4, 64(sp)
ffffffff80209b5a: a6 69                	ld	s3, 72(sp)
ffffffff80209b5c: 46 69                	ld	s2, 80(sp)
ffffffff80209b5e: e6 64                	ld	s1, 88(sp)
ffffffff80209b60: 06 74                	ld	s0, 96(sp)
ffffffff80209b62: a6 70                	ld	ra, 104(sp)
ffffffff80209b64: 65 61                	addi	sp, sp, 112
ffffffff80209b66: 82 80                	ret
ffffffff80209b68: 05 45                	addi	a0, zero, 1
ffffffff80209b6a: c5 b7                	j	-32
ffffffff80209b6c: 37 05 f2 ff          	lui	a0, 1048352
ffffffff80209b70: 1b 05 05 e1          	addiw	a0, a0, -496
ffffffff80209b74: 3b 05 a9 00          	addw	a0, s2, a0
ffffffff80209b78: b7 05 03 00          	lui	a1, 48
ffffffff80209b7c: 9b 85 05 e1          	addiw	a1, a1, -496
ffffffff80209b80: e3 60 b5 e6          	bltu	a0, a1, -416
ffffffff80209b84: 37 f5 fc ff          	lui	a0, 1048527
ffffffff80209b88: 1b 05 55 cb          	addiw	a0, a0, -843
ffffffff80209b8c: 4a 95                	add	a0, a0, s2
ffffffff80209b8e: 01 25                	sext.w	a0, a0
ffffffff80209b90: b7 f5 0a 00          	lui	a1, 175
ffffffff80209b94: 9b 85 55 db          	addiw	a1, a1, -587
ffffffff80209b98: e3 64 b5 e4          	bltu	a0, a1, -440
ffffffff80209b9c: 37 05 fd ff          	lui	a0, 1048528
ffffffff80209ba0: 1b 05 25 5e          	addiw	a0, a0, 1506
ffffffff80209ba4: 4a 95                	add	a0, a0, s2
ffffffff80209ba6: 01 25                	sext.w	a0, a0
ffffffff80209ba8: 93 05 20 5e          	addi	a1, zero, 1506
ffffffff80209bac: e3 6a b5 e2          	bltu	a0, a1, -460
ffffffff80209bb0: 37 15 fd ff          	lui	a0, 1048529
ffffffff80209bb4: 1b 05 f5 41          	addiw	a0, a0, 1055
ffffffff80209bb8: 4a 95                	add	a0, a0, s2
ffffffff80209bba: 01 25                	sext.w	a0, a0
ffffffff80209bbc: 85 65                	lui	a1, 1
ffffffff80209bbe: 9b 85 f5 c1          	addiw	a1, a1, -993
ffffffff80209bc2: e3 6f b5 e0          	bltu	a0, a1, -482
ffffffff80209bc6: 37 35 fd ff          	lui	a0, 1048531
ffffffff80209bca: 1b 05 e5 15          	addiw	a0, a0, 350
ffffffff80209bce: 4a 95                	add	a0, a0, s2
ffffffff80209bd0: 01 25                	sext.w	a0, a0
ffffffff80209bd2: b9 45                	addi	a1, zero, 14
ffffffff80209bd4: e3 66 b5 e0          	bltu	a0, a1, -500
ffffffff80209bd8: 37 05 20 00          	lui	a0, 512
ffffffff80209bdc: 79 35                	addiw	a0, a0, -2
ffffffff80209bde: 33 75 a9 00          	and	a0, s2, a0
ffffffff80209be2: b7 c5 02 00          	lui	a1, 44
ffffffff80209be6: 9b 85 e5 81          	addiw	a1, a1, -2018
ffffffff80209bea: e3 0b b5 de          	beq	a0, a1, -522
ffffffff80209bee: 37 65 fd ff          	lui	a0, 1048534
ffffffff80209bf2: 1b 05 25 92          	addiw	a0, a0, -1758
ffffffff80209bf6: 4a 95                	add	a0, a0, s2
ffffffff80209bf8: 01 25                	sext.w	a0, a0
ffffffff80209bfa: 93 05 20 02          	addi	a1, zero, 34
ffffffff80209bfe: e3 61 b5 de          	bltu	a0, a1, -542
ffffffff80209c02: 37 55 fd ff          	lui	a0, 1048533
ffffffff80209c06: 1b 05 b5 8c          	addiw	a0, a0, -1845
ffffffff80209c0a: 4a 95                	add	a0, a0, s2
ffffffff80209c0c: 01 25                	sext.w	a0, a0
ffffffff80209c0e: a9 45                	addi	a1, zero, 10
ffffffff80209c10: e3 f8 a5 dc          	bgeu	a1, a0, -560
ffffffff80209c14: 85 44                	addi	s1, zero, 1
ffffffff80209c16: a1 b3                	j	-696

ffffffff80209c18 _ZN4core5slice6memchr6memchr17hc5c23a081ffd9f1fE:
ffffffff80209c18: 41 11                	addi	sp, sp, -16
ffffffff80209c1a: 06 e4                	sd	ra, 8(sp)
ffffffff80209c1c: aa 86                	add	a3, zero, a0
ffffffff80209c1e: 01 45                	mv	a0, zero
ffffffff80209c20: 13 f7 75 00          	andi	a4, a1, 7
ffffffff80209c24: 93 f8 f6 0f          	andi	a7, a3, 255
ffffffff80209c28: 1d c3                	beqz	a4, 38
ffffffff80209c2a: a1 46                	addi	a3, zero, 8
ffffffff80209c2c: 99 8e                	sub	a3, a3, a4
ffffffff80209c2e: 85 c2                	beqz	a3, 32
ffffffff80209c30: 32 85                	add	a0, zero, a2
ffffffff80209c32: 63 63 d6 00          	bltu	a2, a3, 6
ffffffff80209c36: 36 85                	add	a0, zero, a3
ffffffff80209c38: 55 c9                	beqz	a0, 180
ffffffff80209c3a: 81 46                	mv	a3, zero
ffffffff80209c3c: 33 87 d5 00          	add	a4, a1, a3
ffffffff80209c40: 03 47 07 00          	lbu	a4, 0(a4)
ffffffff80209c44: 63 02 17 0f          	beq	a4, a7, 228
ffffffff80209c48: 85 06                	addi	a3, a3, 1
ffffffff80209c4a: e3 19 d5 fe          	bne	a0, a3, -14
ffffffff80209c4e: c1 46                	addi	a3, zero, 16
ffffffff80209c50: 63 62 d6 0a          	bltu	a2, a3, 164
ffffffff80209c54: 13 08 06 ff          	addi	a6, a2, -16
ffffffff80209c58: 63 6e a8 08          	bltu	a6, a0, 156
ffffffff80209c5c: b7 06 01 01          	lui	a3, 4112
ffffffff80209c60: 9b 86 16 10          	addiw	a3, a3, 257
ffffffff80209c64: c2 06                	slli	a3, a3, 16
ffffffff80209c66: 93 86 16 10          	addi	a3, a3, 257
ffffffff80209c6a: c2 06                	slli	a3, a3, 16
ffffffff80209c6c: 93 86 16 10          	addi	a3, a3, 257
ffffffff80209c70: b3 82 d8 02          	<unknown>
ffffffff80209c74: b7 06 ff fe          	lui	a3, 1044464
ffffffff80209c78: 9b 86 f6 ef          	addiw	a3, a3, -257
ffffffff80209c7c: c2 06                	slli	a3, a3, 16
ffffffff80209c7e: 93 86 f6 ef          	addi	a3, a3, -257
ffffffff80209c82: c2 06                	slli	a3, a3, 16
ffffffff80209c84: 13 83 f6 ef          	addi	t1, a3, -257
ffffffff80209c88: 41 77                	lui	a4, 1048560
ffffffff80209c8a: 1b 07 17 10          	addiw	a4, a4, 257
ffffffff80209c8e: 42 07                	slli	a4, a4, 16
ffffffff80209c90: 13 07 17 10          	addi	a4, a4, 257
ffffffff80209c94: 42 07                	slli	a4, a4, 16
ffffffff80209c96: 13 07 17 10          	addi	a4, a4, 257
ffffffff80209c9a: 3e 07                	slli	a4, a4, 15
ffffffff80209c9c: 93 03 07 08          	addi	t2, a4, 128
ffffffff80209ca0: b3 87 a5 00          	add	a5, a1, a0
ffffffff80209ca4: 94 63                	ld	a3, 0(a5)
ffffffff80209ca6: 9c 67                	ld	a5, 8(a5)
ffffffff80209ca8: b3 c6 56 00          	xor	a3, a3, t0
ffffffff80209cac: 13 c7 f6 ff          	not	a4, a3
ffffffff80209cb0: 9a 96                	add	a3, a3, t1
ffffffff80209cb2: 33 77 77 00          	and	a4, a4, t2
ffffffff80209cb6: f9 8e                	and	a3, a3, a4
ffffffff80209cb8: 33 c7 57 00          	xor	a4, a5, t0
ffffffff80209cbc: 93 47 f7 ff          	not	a5, a4
ffffffff80209cc0: 1a 97                	add	a4, a4, t1
ffffffff80209cc2: b3 f7 77 00          	and	a5, a5, t2
ffffffff80209cc6: 7d 8f                	and	a4, a4, a5
ffffffff80209cc8: d9 8e                	or	a3, a3, a4
ffffffff80209cca: 81 e6                	bnez	a3, 8
ffffffff80209ccc: 41 05                	addi	a0, a0, 16
ffffffff80209cce: e3 79 a8 fc          	bgeu	a6, a0, -46
ffffffff80209cd2: 63 71 a6 02          	bgeu	a2, a0, 34

ffffffff80209cd6 .LBB198_25:
ffffffff80209cd6: 97 46 00 00          	auipc	a3, 4
ffffffff80209cda: 93 86 26 8a          	addi	a3, a3, -1886
ffffffff80209cde: b2 85                	add	a1, zero, a2
ffffffff80209ce0: 36 86                	add	a2, zero, a3
ffffffff80209ce2: 97 00 00 00          	auipc	ra, 0
ffffffff80209ce6: e7 80 20 09          	jalr	146(ra)
ffffffff80209cea: 00 00                	unimp	
ffffffff80209cec: 01 45                	mv	a0, zero
ffffffff80209cee: c1 46                	addi	a3, zero, 16
ffffffff80209cf0: e3 72 d6 f6          	bgeu	a2, a3, -156
ffffffff80209cf4: 63 16 c5 00          	bne	a0, a2, 12
ffffffff80209cf8: 01 46                	mv	a2, zero
ffffffff80209cfa: 81 45                	mv	a1, zero
ffffffff80209cfc: aa 86                	add	a3, zero, a0
ffffffff80209cfe: 35 a0                	j	44
ffffffff80209d00: 81 46                	mv	a3, zero
ffffffff80209d02: 09 8e                	sub	a2, a2, a0
ffffffff80209d04: aa 95                	add	a1, a1, a0
ffffffff80209d06: 33 87 d5 00          	add	a4, a1, a3
ffffffff80209d0a: 03 47 07 00          	lbu	a4, 0(a4)
ffffffff80209d0e: 63 09 17 01          	beq	a4, a7, 18
ffffffff80209d12: 85 06                	addi	a3, a3, 1
ffffffff80209d14: e3 19 d6 fe          	bne	a2, a3, -14
ffffffff80209d18: 81 45                	mv	a1, zero
ffffffff80209d1a: b3 06 a6 00          	add	a3, a2, a0
ffffffff80209d1e: 31 a0                	j	12
ffffffff80209d20: 85 45                	addi	a1, zero, 1
ffffffff80209d22: 36 86                	add	a2, zero, a3
ffffffff80209d24: aa 96                	add	a3, a3, a0
ffffffff80209d26: 11 a0                	j	4
ffffffff80209d28: 85 45                	addi	a1, zero, 1
ffffffff80209d2a: 2e 85                	add	a0, zero, a1
ffffffff80209d2c: b6 85                	add	a1, zero, a3
ffffffff80209d2e: a2 60                	ld	ra, 8(sp)
ffffffff80209d30: 41 01                	addi	sp, sp, 16
ffffffff80209d32: 82 80                	ret

ffffffff80209d34 _ZN4core5slice20slice_index_len_fail17h674859de081ebee9E:
ffffffff80209d34: 59 71                	addi	sp, sp, -112
ffffffff80209d36: 86 f4                	sd	ra, 104(sp)
ffffffff80209d38: 2a e4                	sd	a0, 8(sp)
ffffffff80209d3a: 2e e8                	sd	a1, 16(sp)
ffffffff80209d3c: 28 00                	addi	a0, sp, 8
ffffffff80209d3e: aa e4                	sd	a0, 72(sp)

ffffffff80209d40 .LBB200_1:
ffffffff80209d40: 17 15 00 00          	auipc	a0, 1
ffffffff80209d44: 13 05 85 83          	addi	a0, a0, -1992
ffffffff80209d48: aa e8                	sd	a0, 80(sp)
ffffffff80209d4a: 0c 08                	addi	a1, sp, 16
ffffffff80209d4c: ae ec                	sd	a1, 88(sp)
ffffffff80209d4e: aa f0                	sd	a0, 96(sp)

ffffffff80209d50 .LBB200_2:
ffffffff80209d50: 17 45 00 00          	auipc	a0, 4
ffffffff80209d54: 13 05 85 86          	addi	a0, a0, -1944
ffffffff80209d58: 2a ec                	sd	a0, 24(sp)
ffffffff80209d5a: 09 45                	addi	a0, zero, 2
ffffffff80209d5c: 2a f0                	sd	a0, 32(sp)
ffffffff80209d5e: 02 f4                	sd	zero, 40(sp)
ffffffff80209d60: ac 00                	addi	a1, sp, 72
ffffffff80209d62: 2e fc                	sd	a1, 56(sp)
ffffffff80209d64: aa e0                	sd	a0, 64(sp)
ffffffff80209d66: 28 08                	addi	a0, sp, 24
ffffffff80209d68: b2 85                	add	a1, zero, a2
ffffffff80209d6a: 97 f0 ff ff          	auipc	ra, 1048575
ffffffff80209d6e: e7 80 a0 b6          	jalr	-1174(ra)
ffffffff80209d72: 00 00                	unimp	

ffffffff80209d74 _ZN4core5slice22slice_index_order_fail17h448310845a3aec23E:
ffffffff80209d74: 59 71                	addi	sp, sp, -112
ffffffff80209d76: 86 f4                	sd	ra, 104(sp)
ffffffff80209d78: 2a e4                	sd	a0, 8(sp)
ffffffff80209d7a: 2e e8                	sd	a1, 16(sp)
ffffffff80209d7c: 28 00                	addi	a0, sp, 8
ffffffff80209d7e: aa e4                	sd	a0, 72(sp)

ffffffff80209d80 .LBB201_1:
ffffffff80209d80: 17 05 00 00          	auipc	a0, 0
ffffffff80209d84: 13 05 85 7f          	addi	a0, a0, 2040
ffffffff80209d88: aa e8                	sd	a0, 80(sp)
ffffffff80209d8a: 0c 08                	addi	a1, sp, 16
ffffffff80209d8c: ae ec                	sd	a1, 88(sp)
ffffffff80209d8e: aa f0                	sd	a0, 96(sp)

ffffffff80209d90 .LBB201_2:
ffffffff80209d90: 17 45 00 00          	auipc	a0, 4
ffffffff80209d94: 13 05 05 87          	addi	a0, a0, -1936
ffffffff80209d98: 2a ec                	sd	a0, 24(sp)
ffffffff80209d9a: 09 45                	addi	a0, zero, 2
ffffffff80209d9c: 2a f0                	sd	a0, 32(sp)
ffffffff80209d9e: 02 f4                	sd	zero, 40(sp)
ffffffff80209da0: ac 00                	addi	a1, sp, 72
ffffffff80209da2: 2e fc                	sd	a1, 56(sp)
ffffffff80209da4: aa e0                	sd	a0, 64(sp)
ffffffff80209da6: 28 08                	addi	a0, sp, 24
ffffffff80209da8: b2 85                	add	a1, zero, a2
ffffffff80209daa: 97 f0 ff ff          	auipc	ra, 1048575
ffffffff80209dae: e7 80 a0 b2          	jalr	-1238(ra)
ffffffff80209db2: 00 00                	unimp	

ffffffff80209db4 _ZN4core3str16slice_error_fail17h6e4abdbba00369c0E:
ffffffff80209db4: 15 71                	addi	sp, sp, -224
ffffffff80209db6: 86 ed                	sd	ra, 216(sp)
ffffffff80209db8: 32 e4                	sd	a2, 8(sp)
ffffffff80209dba: 36 e8                	sd	a3, 16(sp)
ffffffff80209dbc: 13 08 10 10          	addi	a6, zero, 257
ffffffff80209dc0: 85 47                	addi	a5, zero, 1
ffffffff80209dc2: ae 83                	add	t2, zero, a1
ffffffff80209dc4: 63 ef 05 03          	bltu	a1, a6, 62
ffffffff80209dc8: 81 43                	mv	t2, zero
ffffffff80209dca: 13 88 15 f0          	addi	a6, a1, -255
ffffffff80209dce: 93 08 05 10          	addi	a7, a0, 256
ffffffff80209dd2: 93 02 f0 fb          	addi	t0, zero, -65
ffffffff80209dd6: 13 03 10 f0          	addi	t1, zero, -255
ffffffff80209dda: 1e 8e                	add	t3, zero, t2
ffffffff80209ddc: 93 83 03 10          	addi	t2, t2, 256
ffffffff80209de0: 63 f8 b3 00          	bgeu	t2, a1, 16
ffffffff80209de4: b3 87 c8 01          	add	a5, a7, t3
ffffffff80209de8: 83 87 07 00          	lb	a5, 0(a5)
ffffffff80209dec: 63 c8 f2 02          	blt	t0, a5, 48
ffffffff80209df0: 93 03 fe ff          	addi	t2, t3, -1
ffffffff80209df4: 63 04 6e 00          	beq	t3, t1, 8
ffffffff80209df8: e3 11 c8 ff          	bne	a6, t3, -30
ffffffff80209dfc: 81 47                	mv	a5, zero
ffffffff80209dfe: 93 83 03 10          	addi	t2, t2, 256
ffffffff80209e02: 2a ec                	sd	a0, 24(sp)
ffffffff80209e04: 1e f0                	sd	t2, 32(sp)
ffffffff80209e06: 99 ef                	bnez	a5, 30

ffffffff80209e08 .LBB224_53:
ffffffff80209e08: 97 47 00 00          	auipc	a5, 4
ffffffff80209e0c: 93 87 87 89          	addi	a5, a5, -1896
ffffffff80209e10: 15 48                	addi	a6, zero, 5
ffffffff80209e12: 3e f4                	sd	a5, 40(sp)
ffffffff80209e14: 42 f8                	sd	a6, 48(sp)
ffffffff80209e16: 63 f0 c5 02          	bgeu	a1, a2, 32
ffffffff80209e1a: a9 a8                	j	90
ffffffff80209e1c: 81 47                	mv	a5, zero
ffffffff80209e1e: 2a ec                	sd	a0, 24(sp)
ffffffff80209e20: 1e f0                	sd	t2, 32(sp)
ffffffff80209e22: fd d3                	beqz	a5, -26
ffffffff80209e24: 01 48                	mv	a6, zero

ffffffff80209e26 .LBB224_54:
ffffffff80209e26: 97 37 00 00          	auipc	a5, 3
ffffffff80209e2a: 93 87 a7 49          	addi	a5, a5, 1178
ffffffff80209e2e: 3e f4                	sd	a5, 40(sp)
ffffffff80209e30: 42 f8                	sd	a6, 48(sp)
ffffffff80209e32: 63 e1 c5 04          	bltu	a1, a2, 66
ffffffff80209e36: 63 ef d5 02          	bltu	a1, a3, 62
ffffffff80209e3a: 63 f4 c6 08          	bgeu	a3, a2, 136
ffffffff80209e3e: 28 00                	addi	a0, sp, 8
ffffffff80209e40: 2a e5                	sd	a0, 136(sp)

ffffffff80209e42 .LBB224_55:
ffffffff80209e42: 17 05 00 00          	auipc	a0, 0
ffffffff80209e46: 13 05 65 73          	addi	a0, a0, 1846
ffffffff80209e4a: 2a e9                	sd	a0, 144(sp)
ffffffff80209e4c: 0c 08                	addi	a1, sp, 16
ffffffff80209e4e: 2e ed                	sd	a1, 152(sp)
ffffffff80209e50: 2a f1                	sd	a0, 160(sp)
ffffffff80209e52: 28 08                	addi	a0, sp, 24
ffffffff80209e54: 2a f5                	sd	a0, 168(sp)

ffffffff80209e56 .LBB224_56:
ffffffff80209e56: 17 05 00 00          	auipc	a0, 0
ffffffff80209e5a: 13 05 05 76          	addi	a0, a0, 1888
ffffffff80209e5e: 2a f9                	sd	a0, 176(sp)
ffffffff80209e60: 2c 10                	addi	a1, sp, 40
ffffffff80209e62: 2e fd                	sd	a1, 184(sp)
ffffffff80209e64: aa e1                	sd	a0, 192(sp)

ffffffff80209e66 .LBB224_57:
ffffffff80209e66: 17 45 00 00          	auipc	a0, 4
ffffffff80209e6a: 13 05 25 8a          	addi	a0, a0, -1886
ffffffff80209e6e: aa ec                	sd	a0, 88(sp)
ffffffff80209e70: 11 45                	addi	a0, zero, 4
ffffffff80209e72: 25 a8                	j	56
ffffffff80209e74: 63 e3 c5 00          	bltu	a1, a2, 6
ffffffff80209e78: 36 86                	add	a2, zero, a3
ffffffff80209e7a: b2 e4                	sd	a2, 72(sp)
ffffffff80209e7c: a8 00                	addi	a0, sp, 72
ffffffff80209e7e: 2a e5                	sd	a0, 136(sp)

ffffffff80209e80 .LBB224_58:
ffffffff80209e80: 17 05 00 00          	auipc	a0, 0
ffffffff80209e84: 13 05 85 6f          	addi	a0, a0, 1784
ffffffff80209e88: 2a e9                	sd	a0, 144(sp)
ffffffff80209e8a: 28 08                	addi	a0, sp, 24
ffffffff80209e8c: 2a ed                	sd	a0, 152(sp)

ffffffff80209e8e .LBB224_59:
ffffffff80209e8e: 17 05 00 00          	auipc	a0, 0
ffffffff80209e92: 13 05 85 72          	addi	a0, a0, 1832
ffffffff80209e96: 2a f1                	sd	a0, 160(sp)
ffffffff80209e98: 2c 10                	addi	a1, sp, 40
ffffffff80209e9a: 2e f5                	sd	a1, 168(sp)
ffffffff80209e9c: 2a f9                	sd	a0, 176(sp)

ffffffff80209e9e .LBB224_60:
ffffffff80209e9e: 17 45 00 00          	auipc	a0, 4
ffffffff80209ea2: 13 05 a5 82          	addi	a0, a0, -2006
ffffffff80209ea6: aa ec                	sd	a0, 88(sp)
ffffffff80209ea8: 0d 45                	addi	a0, zero, 3
ffffffff80209eaa: aa f0                	sd	a0, 96(sp)
ffffffff80209eac: 82 f4                	sd	zero, 104(sp)
ffffffff80209eae: 2c 01                	addi	a1, sp, 136
ffffffff80209eb0: ae fc                	sd	a1, 120(sp)
ffffffff80209eb2: 2a e1                	sd	a0, 128(sp)
ffffffff80209eb4: a8 08                	addi	a0, sp, 88
ffffffff80209eb6: ba 85                	add	a1, zero, a4
ffffffff80209eb8: 97 f0 ff ff          	auipc	ra, 1048575
ffffffff80209ebc: e7 80 c0 a1          	jalr	-1508(ra)
ffffffff80209ec0: 00 00                	unimp	
ffffffff80209ec2: 09 ce                	beqz	a2, 26
ffffffff80209ec4: 63 8c c5 00          	beq	a1, a2, 24
ffffffff80209ec8: 63 7b b6 00          	bgeu	a2, a1, 22
ffffffff80209ecc: b3 07 c5 00          	add	a5, a0, a2
ffffffff80209ed0: 03 88 07 00          	lb	a6, 0(a5)
ffffffff80209ed4: 93 07 00 fc          	addi	a5, zero, -64
ffffffff80209ed8: 63 43 f8 00          	blt	a6, a5, 6
ffffffff80209edc: 36 86                	add	a2, zero, a3
ffffffff80209ede: 32 fc                	sd	a2, 56(sp)
ffffffff80209ee0: 1d c6                	beqz	a2, 46
ffffffff80209ee2: 63 06 b6 02          	beq	a2, a1, 44
ffffffff80209ee6: 93 87 15 00          	addi	a5, a1, 1
ffffffff80209eea: 13 08 00 fc          	addi	a6, zero, -64
ffffffff80209eee: 85 48                	addi	a7, zero, 1
ffffffff80209ef0: b2 86                	add	a3, zero, a2
ffffffff80209ef2: 63 78 b6 00          	bgeu	a2, a1, 16
ffffffff80209ef6: 33 06 d5 00          	add	a2, a0, a3
ffffffff80209efa: 03 06 06 00          	lb	a2, 0(a2)
ffffffff80209efe: 63 59 06 01          	bge	a2, a6, 18
ffffffff80209f02: 13 86 f6 ff          	addi	a2, a3, -1
ffffffff80209f06: 63 84 16 01          	beq	a3, a7, 8
ffffffff80209f0a: e3 93 d7 fe          	bne	a5, a3, -26
ffffffff80209f0e: b2 86                	add	a3, zero, a2
ffffffff80209f10: 63 9e b6 00          	bne	a3, a1, 28

ffffffff80209f14 .LBB224_61:
ffffffff80209f14: 17 35 00 00          	auipc	a0, 3
ffffffff80209f18: 13 05 45 3c          	addi	a0, a0, 964
ffffffff80209f1c: 93 05 b0 02          	addi	a1, zero, 43
ffffffff80209f20: 3a 86                	add	a2, zero, a4
ffffffff80209f22: 97 f0 ff ff          	auipc	ra, 1048575
ffffffff80209f26: e7 80 60 94          	jalr	-1722(ra)
ffffffff80209f2a: 00 00                	unimp	
ffffffff80209f2c: b3 07 d5 00          	add	a5, a0, a3
ffffffff80209f30: 03 86 07 00          	lb	a2, 0(a5)
ffffffff80209f34: 7d 58                	addi	a6, zero, -1
ffffffff80209f36: 93 72 f6 0f          	andi	t0, a2, 255
ffffffff80209f3a: 63 56 c8 00          	bge	a6, a2, 12
ffffffff80209f3e: 96 c2                	sw	t0, 68(sp)
ffffffff80209f40: a8 00                	addi	a0, sp, 72
ffffffff80209f42: 85 45                	addi	a1, zero, 1
ffffffff80209f44: 65 a8                	j	184
ffffffff80209f46: 2e 95                	add	a0, a0, a1
ffffffff80209f48: 93 85 17 00          	addi	a1, a5, 1
ffffffff80209f4c: 63 9f a5 00          	bne	a1, a0, 30
ffffffff80209f50: 81 47                	mv	a5, zero
ffffffff80209f52: aa 85                	add	a1, zero, a0
ffffffff80209f54: 13 06 f0 0d          	addi	a2, zero, 223
ffffffff80209f58: 13 f8 f2 01          	andi	a6, t0, 31
ffffffff80209f5c: 63 63 56 02          	bltu	a2, t0, 38
ffffffff80209f60: 13 15 68 00          	slli	a0, a6, 6
ffffffff80209f64: 33 e6 a7 00          	or	a2, a5, a0
ffffffff80209f68: 9d a8                	j	118
ffffffff80209f6a: 03 c6 17 00          	lbu	a2, 1(a5)
ffffffff80209f6e: 93 85 27 00          	addi	a1, a5, 2
ffffffff80209f72: 93 77 f6 03          	andi	a5, a2, 63
ffffffff80209f76: 13 06 f0 0d          	addi	a2, zero, 223
ffffffff80209f7a: 13 f8 f2 01          	andi	a6, t0, 31
ffffffff80209f7e: e3 71 56 fe          	bgeu	a2, t0, -30
ffffffff80209f82: 63 95 a5 00          	bne	a1, a0, 10
ffffffff80209f86: 81 45                	mv	a1, zero
ffffffff80209f88: aa 88                	add	a7, zero, a0
ffffffff80209f8a: 39 a0                	j	14
ffffffff80209f8c: 03 c6 05 00          	lbu	a2, 0(a1)
ffffffff80209f90: 93 88 15 00          	addi	a7, a1, 1
ffffffff80209f94: 93 75 f6 03          	andi	a1, a2, 63
ffffffff80209f98: 13 96 67 00          	slli	a2, a5, 6
ffffffff80209f9c: 13 03 00 0f          	addi	t1, zero, 240
ffffffff80209fa0: b3 e7 c5 00          	or	a5, a1, a2
ffffffff80209fa4: 63 e6 62 00          	bltu	t0, t1, 12
ffffffff80209fa8: 63 99 a8 00          	bne	a7, a0, 18
ffffffff80209fac: 01 45                	mv	a0, zero
ffffffff80209fae: 11 a8                	j	20
ffffffff80209fb0: 13 15 c8 00          	slli	a0, a6, 12
ffffffff80209fb4: 33 e6 a7 00          	or	a2, a5, a0
ffffffff80209fb8: 1d a0                	j	38
ffffffff80209fba: 03 c5 08 00          	lbu	a0, 0(a7)
ffffffff80209fbe: 13 75 f5 03          	andi	a0, a0, 63
ffffffff80209fc2: 93 15 28 01          	slli	a1, a6, 18
ffffffff80209fc6: 37 06 1c 00          	lui	a2, 448
ffffffff80209fca: f1 8d                	and	a1, a1, a2
ffffffff80209fcc: 13 96 67 00          	slli	a2, a5, 6
ffffffff80209fd0: d1 8d                	or	a1, a1, a2
ffffffff80209fd2: 33 e6 a5 00          	or	a2, a1, a0
ffffffff80209fd6: 37 05 11 00          	lui	a0, 272
ffffffff80209fda: e3 0d a6 f2          	beq	a2, a0, -198
ffffffff80209fde: b2 c2                	sw	a2, 68(sp)
ffffffff80209fe0: a8 00                	addi	a0, sp, 72
ffffffff80209fe2: 93 07 00 08          	addi	a5, zero, 128
ffffffff80209fe6: 85 45                	addi	a1, zero, 1
ffffffff80209fe8: 63 6a f6 00          	bltu	a2, a5, 20
ffffffff80209fec: 93 57 b6 00          	srli	a5, a2, 11
ffffffff80209ff0: 89 45                	addi	a1, zero, 2
ffffffff80209ff2: 89 c7                	beqz	a5, 10
ffffffff80209ff4: 41 82                	srli	a2, a2, 16
ffffffff80209ff6: 8d 45                	addi	a1, zero, 3
ffffffff80209ff8: 11 c2                	beqz	a2, 4
ffffffff80209ffa: 91 45                	addi	a1, zero, 4
ffffffff80209ffc: b6 95                	add	a1, a1, a3
ffffffff80209ffe: b6 e4                	sd	a3, 72(sp)
ffffffff8020a000: ae e8                	sd	a1, 80(sp)
ffffffff8020a002: 2c 18                	addi	a1, sp, 56
ffffffff8020a004: 2e e5                	sd	a1, 136(sp)

ffffffff8020a006 .LBB224_62:
ffffffff8020a006: 97 05 00 00          	auipc	a1, 0
ffffffff8020a00a: 93 85 25 57          	addi	a1, a1, 1394
ffffffff8020a00e: 2e e9                	sd	a1, 144(sp)
ffffffff8020a010: cc 00                	addi	a1, sp, 68
ffffffff8020a012: 2e ed                	sd	a1, 152(sp)

ffffffff8020a014 .LBB224_63:
ffffffff8020a014: 97 05 00 00          	auipc	a1, 0
ffffffff8020a018: 93 85 65 8d          	addi	a1, a1, -1834
ffffffff8020a01c: 2e f1                	sd	a1, 160(sp)
ffffffff8020a01e: 2a f5                	sd	a0, 168(sp)

ffffffff8020a020 .LBB224_64:
ffffffff8020a020: 17 e5 ff ff          	auipc	a0, 1048574
ffffffff8020a024: 13 05 e5 72          	addi	a0, a0, 1838
ffffffff8020a028: 2a f9                	sd	a0, 176(sp)
ffffffff8020a02a: 28 08                	addi	a0, sp, 24
ffffffff8020a02c: 2a fd                	sd	a0, 184(sp)

ffffffff8020a02e .LBB224_65:
ffffffff8020a02e: 17 05 00 00          	auipc	a0, 0
ffffffff8020a032: 13 05 85 58          	addi	a0, a0, 1416
ffffffff8020a036: aa e1                	sd	a0, 192(sp)
ffffffff8020a038: 2c 10                	addi	a1, sp, 40
ffffffff8020a03a: ae e5                	sd	a1, 200(sp)
ffffffff8020a03c: aa e9                	sd	a0, 208(sp)

ffffffff8020a03e .LBB224_66:
ffffffff8020a03e: 17 35 00 00          	auipc	a0, 3
ffffffff8020a042: 13 05 a5 73          	addi	a0, a0, 1850
ffffffff8020a046: aa ec                	sd	a0, 88(sp)
ffffffff8020a048: 15 45                	addi	a0, zero, 5
ffffffff8020a04a: 85 b5                	j	-416

ffffffff8020a04c _ZN4core7unicode9printable5check17h4beff69f6604437dE:
ffffffff8020a04c: 41 11                	addi	sp, sp, -16
ffffffff8020a04e: 06 e4                	sd	ra, 8(sp)
ffffffff8020a050: 29 ca                	beqz	a2, 82
ffffffff8020a052: 81 42                	mv	t0, zero
ffffffff8020a054: c1 68                	lui	a7, 16
ffffffff8020a056: 9b 88 08 f0          	addiw	a7, a7, -256
ffffffff8020a05a: b3 78 15 01          	and	a7, a0, a7
ffffffff8020a05e: 13 d3 88 00          	srli	t1, a7, 8
ffffffff8020a062: 06 06                	slli	a2, a2, 1
ffffffff8020a064: b3 83 c5 00          	add	t2, a1, a2
ffffffff8020a068: 13 7e f5 0f          	andi	t3, a0, 255
ffffffff8020a06c: 83 ce 05 00          	lbu	t4, 0(a1)
ffffffff8020a070: 03 c6 15 00          	lbu	a2, 1(a1)
ffffffff8020a074: 89 05                	addi	a1, a1, 2
ffffffff8020a076: b3 88 c2 00          	add	a7, t0, a2
ffffffff8020a07a: 63 9f 6e 00          	bne	t4, t1, 30
ffffffff8020a07e: 63 e4 58 0a          	bltu	a7, t0, 168
ffffffff8020a082: 63 6d 17 0b          	bltu	a4, a7, 186
ffffffff8020a086: b6 92                	add	t0, t0, a3
ffffffff8020a088: 11 ca                	beqz	a2, 20
ffffffff8020a08a: 83 ce 02 00          	lbu	t4, 0(t0)
ffffffff8020a08e: 85 02                	addi	t0, t0, 1
ffffffff8020a090: 7d 16                	addi	a2, a2, -1
ffffffff8020a092: e3 9b ce ff          	bne	t4, t3, -10
ffffffff8020a096: b9 a8                	j	94
ffffffff8020a098: 63 65 d3 01          	bltu	t1, t4, 10
ffffffff8020a09c: c6 82                	add	t0, zero, a7
ffffffff8020a09e: e3 97 75 fc          	bne	a1, t2, -50
ffffffff8020a0a2: 63 0e 08 04          	beqz	a6, 92
ffffffff8020a0a6: b3 85 07 01          	add	a1, a5, a6
ffffffff8020a0aa: 41 66                	lui	a2, 16
ffffffff8020a0ac: 7d 36                	addiw	a2, a2, -1
ffffffff8020a0ae: 69 8e                	and	a2, a2, a0
ffffffff8020a0b0: 05 45                	addi	a0, zero, 1
ffffffff8020a0b2: 83 86 07 00          	lb	a3, 0(a5)
ffffffff8020a0b6: 13 87 17 00          	addi	a4, a5, 1
ffffffff8020a0ba: 63 c9 06 00          	bltz	a3, 18
ffffffff8020a0be: 93 f6 f6 0f          	andi	a3, a3, 255
ffffffff8020a0c2: ba 87                	add	a5, zero, a4
ffffffff8020a0c4: 15 9e                	subw	a2, a2, a3
ffffffff8020a0c6: 63 5f 06 00          	bgez	a2, 30
ffffffff8020a0ca: 0d a0                	j	34
ffffffff8020a0cc: 63 0e b7 02          	beq	a4, a1, 60
ffffffff8020a0d0: 03 c7 17 00          	lbu	a4, 1(a5)
ffffffff8020a0d4: 93 f6 f6 07          	andi	a3, a3, 127
ffffffff8020a0d8: a2 06                	slli	a3, a3, 8
ffffffff8020a0da: 89 07                	addi	a5, a5, 2
ffffffff8020a0dc: d9 8e                	or	a3, a3, a4
ffffffff8020a0de: 15 9e                	subw	a2, a2, a3
ffffffff8020a0e0: 63 46 06 00          	bltz	a2, 12
ffffffff8020a0e4: 13 45 15 00          	xori	a0, a0, 1
ffffffff8020a0e8: e3 95 b7 fc          	bne	a5, a1, -54
ffffffff8020a0ec: 05 89                	andi	a0, a0, 1
ffffffff8020a0ee: a2 60                	ld	ra, 8(sp)
ffffffff8020a0f0: 41 01                	addi	sp, sp, 16
ffffffff8020a0f2: 82 80                	ret
ffffffff8020a0f4: 01 45                	mv	a0, zero
ffffffff8020a0f6: 05 89                	andi	a0, a0, 1
ffffffff8020a0f8: a2 60                	ld	ra, 8(sp)
ffffffff8020a0fa: 41 01                	addi	sp, sp, 16
ffffffff8020a0fc: 82 80                	ret
ffffffff8020a0fe: 05 45                	addi	a0, zero, 1
ffffffff8020a100: 05 89                	andi	a0, a0, 1
ffffffff8020a102: a2 60                	ld	ra, 8(sp)
ffffffff8020a104: 41 01                	addi	sp, sp, 16
ffffffff8020a106: 82 80                	ret

ffffffff8020a108 .LBB249_23:
ffffffff8020a108: 17 35 00 00          	auipc	a0, 3
ffffffff8020a10c: 13 05 05 1d          	addi	a0, a0, 464

ffffffff8020a110 .LBB249_24:
ffffffff8020a110: 17 36 00 00          	auipc	a2, 3
ffffffff8020a114: 13 06 06 6d          	addi	a2, a2, 1744
ffffffff8020a118: 93 05 b0 02          	addi	a1, zero, 43
ffffffff8020a11c: 97 e0 ff ff          	auipc	ra, 1048574
ffffffff8020a120: e7 80 c0 74          	jalr	1868(ra)
ffffffff8020a124: 00 00                	unimp	

ffffffff8020a126 .LBB249_25:
ffffffff8020a126: 17 36 00 00          	auipc	a2, 3
ffffffff8020a12a: 13 06 26 6a          	addi	a2, a2, 1698
ffffffff8020a12e: 16 85                	add	a0, zero, t0
ffffffff8020a130: c6 85                	add	a1, zero, a7
ffffffff8020a132: 97 00 00 00          	auipc	ra, 0
ffffffff8020a136: e7 80 20 c4          	jalr	-958(ra)
ffffffff8020a13a: 00 00                	unimp	

ffffffff8020a13c .LBB249_26:
ffffffff8020a13c: 17 36 00 00          	auipc	a2, 3
ffffffff8020a140: 13 06 c6 68          	addi	a2, a2, 1676
ffffffff8020a144: 46 85                	add	a0, zero, a7
ffffffff8020a146: ba 85                	add	a1, zero, a4
ffffffff8020a148: 97 00 00 00          	auipc	ra, 0
ffffffff8020a14c: e7 80 c0 be          	jalr	-1044(ra)
ffffffff8020a150: 00 00                	unimp	

ffffffff8020a152 _ZN4core3fmt3num52_$LT$impl$u20$core..fmt..Debug$u20$for$u20$usize$GT$3fmt17h2cbbcd02530bd107E:
ffffffff8020a152: 75 71                	addi	sp, sp, -144
ffffffff8020a154: 06 e5                	sd	ra, 136(sp)
ffffffff8020a156: 2e 88                	add	a6, zero, a1
ffffffff8020a158: 83 e5 05 03          	lwu	a1, 48(a1)
ffffffff8020a15c: 13 f6 05 01          	andi	a2, a1, 16
ffffffff8020a160: 11 ee                	bnez	a2, 28
ffffffff8020a162: 08 61                	ld	a0, 0(a0)
ffffffff8020a164: 93 f5 05 02          	andi	a1, a1, 32
ffffffff8020a168: b9 e1                	bnez	a1, 70
ffffffff8020a16a: 85 45                	addi	a1, zero, 1
ffffffff8020a16c: 42 86                	add	a2, zero, a6
ffffffff8020a16e: 97 00 00 00          	auipc	ra, 0
ffffffff8020a172: e7 80 80 24          	jalr	584(ra)
ffffffff8020a176: aa 60                	ld	ra, 136(sp)
ffffffff8020a178: 49 61                	addi	sp, sp, 144
ffffffff8020a17a: 82 80                	ret
ffffffff8020a17c: 08 61                	ld	a0, 0(a0)
ffffffff8020a17e: 81 45                	mv	a1, zero
ffffffff8020a180: 30 00                	addi	a2, sp, 8
ffffffff8020a182: a9 46                	addi	a3, zero, 10
ffffffff8020a184: 39 a0                	j	14
ffffffff8020a186: 93 87 77 05          	addi	a5, a5, 87
ffffffff8020a18a: a3 0f f7 06          	sb	a5, 127(a4)
ffffffff8020a18e: fd 15                	addi	a1, a1, -1
ffffffff8020a190: 31 c5                	beqz	a0, 76
ffffffff8020a192: 33 07 b6 00          	add	a4, a2, a1
ffffffff8020a196: 93 77 f5 00          	andi	a5, a0, 15
ffffffff8020a19a: 11 81                	srli	a0, a0, 4
ffffffff8020a19c: e3 f5 d7 fe          	bgeu	a5, a3, -22
ffffffff8020a1a0: 93 e7 07 03          	ori	a5, a5, 48
ffffffff8020a1a4: a3 0f f7 06          	sb	a5, 127(a4)
ffffffff8020a1a8: fd 15                	addi	a1, a1, -1
ffffffff8020a1aa: 65 f5                	bnez	a0, -24
ffffffff8020a1ac: 05 a8                	j	48
ffffffff8020a1ae: 81 45                	mv	a1, zero
ffffffff8020a1b0: 30 00                	addi	a2, sp, 8
ffffffff8020a1b2: a9 46                	addi	a3, zero, 10
ffffffff8020a1b4: 39 a0                	j	14
ffffffff8020a1b6: 93 87 77 03          	addi	a5, a5, 55
ffffffff8020a1ba: a3 0f f7 06          	sb	a5, 127(a4)
ffffffff8020a1be: fd 15                	addi	a1, a1, -1
ffffffff8020a1c0: 11 cd                	beqz	a0, 28
ffffffff8020a1c2: 33 07 b6 00          	add	a4, a2, a1
ffffffff8020a1c6: 93 77 f5 00          	andi	a5, a0, 15
ffffffff8020a1ca: 11 81                	srli	a0, a0, 4
ffffffff8020a1cc: e3 f5 d7 fe          	bgeu	a5, a3, -22
ffffffff8020a1d0: 93 e7 07 03          	ori	a5, a5, 48
ffffffff8020a1d4: a3 0f f7 06          	sb	a5, 127(a4)
ffffffff8020a1d8: fd 15                	addi	a1, a1, -1
ffffffff8020a1da: 65 f5                	bnez	a0, -24
ffffffff8020a1dc: 13 85 05 08          	addi	a0, a1, 128
ffffffff8020a1e0: 93 06 10 08          	addi	a3, zero, 129
ffffffff8020a1e4: 63 76 d5 02          	bgeu	a0, a3, 44
ffffffff8020a1e8: b3 07 b0 40          	neg	a5, a1
ffffffff8020a1ec: 33 05 b6 00          	add	a0, a2, a1
ffffffff8020a1f0: 13 07 05 08          	addi	a4, a0, 128

ffffffff8020a1f4 .LBB458_14:
ffffffff8020a1f4: 17 36 00 00          	auipc	a2, 3
ffffffff8020a1f8: 13 06 c6 21          	addi	a2, a2, 540
ffffffff8020a1fc: 85 45                	addi	a1, zero, 1
ffffffff8020a1fe: 89 46                	addi	a3, zero, 2
ffffffff8020a200: 42 85                	add	a0, zero, a6
ffffffff8020a202: 97 f0 ff ff          	auipc	ra, 1048575
ffffffff8020a206: e7 80 e0 13          	jalr	318(ra)
ffffffff8020a20a: aa 60                	ld	ra, 136(sp)
ffffffff8020a20c: 49 61                	addi	sp, sp, 144
ffffffff8020a20e: 82 80                	ret

ffffffff8020a210 .LBB458_15:
ffffffff8020a210: 17 36 00 00          	auipc	a2, 3
ffffffff8020a214: 13 06 86 1e          	addi	a2, a2, 488
ffffffff8020a218: 93 05 00 08          	addi	a1, zero, 128
ffffffff8020a21c: 97 00 00 00          	auipc	ra, 0
ffffffff8020a220: e7 80 80 b5          	jalr	-1192(ra)
ffffffff8020a224: 00 00                	unimp	

ffffffff8020a226 _ZN4core3fmt3num53_$LT$impl$u20$core..fmt..UpperHex$u20$for$u20$u32$GT$3fmt17h0c8e9a47c9cbfbc9E:
ffffffff8020a226: 75 71                	addi	sp, sp, -144
ffffffff8020a228: 06 e5                	sd	ra, 136(sp)
ffffffff8020a22a: 2e 88                	add	a6, zero, a1
ffffffff8020a22c: 81 45                	mv	a1, zero
ffffffff8020a22e: 03 67 05 00          	lwu	a4, 0(a0)
ffffffff8020a232: 93 08 81 00          	addi	a7, sp, 8
ffffffff8020a236: 37 05 00 10          	lui	a0, 65536
ffffffff8020a23a: 7d 35                	addiw	a0, a0, -1
ffffffff8020a23c: a9 42                	addi	t0, zero, 10
ffffffff8020a23e: 39 a0                	j	14
ffffffff8020a240: 13 06 76 03          	addi	a2, a2, 55
ffffffff8020a244: a3 8f c7 06          	sb	a2, 127(a5)
ffffffff8020a248: fd 15                	addi	a1, a1, -1
ffffffff8020a24a: 0d c3                	beqz	a4, 34
ffffffff8020a24c: b3 87 b8 00          	add	a5, a7, a1
ffffffff8020a250: 93 56 47 00          	srli	a3, a4, 4
ffffffff8020a254: 13 76 f7 00          	andi	a2, a4, 15
ffffffff8020a258: 33 f7 a6 00          	and	a4, a3, a0
ffffffff8020a25c: e3 72 56 fe          	bgeu	a2, t0, -28
ffffffff8020a260: 13 66 06 03          	ori	a2, a2, 48
ffffffff8020a264: a3 8f c7 06          	sb	a2, 127(a5)
ffffffff8020a268: fd 15                	addi	a1, a1, -1
ffffffff8020a26a: 6d f3                	bnez	a4, -30
ffffffff8020a26c: 13 85 05 08          	addi	a0, a1, 128
ffffffff8020a270: 13 06 10 08          	addi	a2, zero, 129
ffffffff8020a274: 63 76 c5 02          	bgeu	a0, a2, 44
ffffffff8020a278: b3 07 b0 40          	neg	a5, a1
ffffffff8020a27c: 33 85 b8 00          	add	a0, a7, a1
ffffffff8020a280: 13 07 05 08          	addi	a4, a0, 128

ffffffff8020a284 .LBB470_7:
ffffffff8020a284: 17 36 00 00          	auipc	a2, 3
ffffffff8020a288: 13 06 c6 18          	addi	a2, a2, 396
ffffffff8020a28c: 85 45                	addi	a1, zero, 1
ffffffff8020a28e: 89 46                	addi	a3, zero, 2
ffffffff8020a290: 42 85                	add	a0, zero, a6
ffffffff8020a292: 97 f0 ff ff          	auipc	ra, 1048575
ffffffff8020a296: e7 80 e0 0a          	jalr	174(ra)
ffffffff8020a29a: aa 60                	ld	ra, 136(sp)
ffffffff8020a29c: 49 61                	addi	sp, sp, 144
ffffffff8020a29e: 82 80                	ret

ffffffff8020a2a0 .LBB470_8:
ffffffff8020a2a0: 17 36 00 00          	auipc	a2, 3
ffffffff8020a2a4: 13 06 86 15          	addi	a2, a2, 344
ffffffff8020a2a8: 93 05 00 08          	addi	a1, zero, 128
ffffffff8020a2ac: 97 00 00 00          	auipc	ra, 0
ffffffff8020a2b0: e7 80 80 ac          	jalr	-1336(ra)
ffffffff8020a2b4: 00 00                	unimp	

ffffffff8020a2b6 _ZN4core3fmt3num55_$LT$impl$u20$core..fmt..LowerHex$u20$for$u20$usize$GT$3fmt17he358e3b3276f5d2eE:
ffffffff8020a2b6: 75 71                	addi	sp, sp, -144
ffffffff8020a2b8: 06 e5                	sd	ra, 136(sp)
ffffffff8020a2ba: 14 61                	ld	a3, 0(a0)
ffffffff8020a2bc: 2e 85                	add	a0, zero, a1
ffffffff8020a2be: 81 45                	mv	a1, zero
ffffffff8020a2c0: 13 08 81 00          	addi	a6, sp, 8
ffffffff8020a2c4: 29 47                	addi	a4, zero, 10
ffffffff8020a2c6: 39 a0                	j	14
ffffffff8020a2c8: 13 06 76 05          	addi	a2, a2, 87
ffffffff8020a2cc: a3 8f c7 06          	sb	a2, 127(a5)
ffffffff8020a2d0: fd 15                	addi	a1, a1, -1
ffffffff8020a2d2: 91 ce                	beqz	a3, 28
ffffffff8020a2d4: b3 07 b8 00          	add	a5, a6, a1
ffffffff8020a2d8: 13 f6 f6 00          	andi	a2, a3, 15
ffffffff8020a2dc: 91 82                	srli	a3, a3, 4
ffffffff8020a2de: e3 75 e6 fe          	bgeu	a2, a4, -22
ffffffff8020a2e2: 13 66 06 03          	ori	a2, a2, 48
ffffffff8020a2e6: a3 8f c7 06          	sb	a2, 127(a5)
ffffffff8020a2ea: fd 15                	addi	a1, a1, -1
ffffffff8020a2ec: e5 f6                	bnez	a3, -24
ffffffff8020a2ee: 93 86 05 08          	addi	a3, a1, 128
ffffffff8020a2f2: 13 06 10 08          	addi	a2, zero, 129
ffffffff8020a2f6: 63 f4 c6 02          	bgeu	a3, a2, 40
ffffffff8020a2fa: b3 07 b0 40          	neg	a5, a1
ffffffff8020a2fe: c2 95                	add	a1, a1, a6
ffffffff8020a300: 13 87 05 08          	addi	a4, a1, 128

ffffffff8020a304 .LBB473_7:
ffffffff8020a304: 17 36 00 00          	auipc	a2, 3
ffffffff8020a308: 13 06 c6 10          	addi	a2, a2, 268
ffffffff8020a30c: 85 45                	addi	a1, zero, 1
ffffffff8020a30e: 89 46                	addi	a3, zero, 2
ffffffff8020a310: 97 f0 ff ff          	auipc	ra, 1048575
ffffffff8020a314: e7 80 00 03          	jalr	48(ra)
ffffffff8020a318: aa 60                	ld	ra, 136(sp)
ffffffff8020a31a: 49 61                	addi	sp, sp, 144
ffffffff8020a31c: 82 80                	ret

ffffffff8020a31e .LBB473_8:
ffffffff8020a31e: 17 36 00 00          	auipc	a2, 3
ffffffff8020a322: 13 06 a6 0d          	addi	a2, a2, 218
ffffffff8020a326: 93 05 00 08          	addi	a1, zero, 128
ffffffff8020a32a: 36 85                	add	a0, zero, a3
ffffffff8020a32c: 97 00 00 00          	auipc	ra, 0
ffffffff8020a330: e7 80 80 a4          	jalr	-1464(ra)
ffffffff8020a334: 00 00                	unimp	

ffffffff8020a336 _ZN4core3fmt3num55_$LT$impl$u20$core..fmt..UpperHex$u20$for$u20$usize$GT$3fmt17h45db3ab4b50c26aeE:
ffffffff8020a336: 75 71                	addi	sp, sp, -144
ffffffff8020a338: 06 e5                	sd	ra, 136(sp)
ffffffff8020a33a: 14 61                	ld	a3, 0(a0)
ffffffff8020a33c: 2e 85                	add	a0, zero, a1
ffffffff8020a33e: 81 45                	mv	a1, zero
ffffffff8020a340: 13 08 81 00          	addi	a6, sp, 8
ffffffff8020a344: 29 47                	addi	a4, zero, 10
ffffffff8020a346: 39 a0                	j	14
ffffffff8020a348: 13 06 76 03          	addi	a2, a2, 55
ffffffff8020a34c: a3 8f c7 06          	sb	a2, 127(a5)
ffffffff8020a350: fd 15                	addi	a1, a1, -1
ffffffff8020a352: 91 ce                	beqz	a3, 28
ffffffff8020a354: b3 07 b8 00          	add	a5, a6, a1
ffffffff8020a358: 13 f6 f6 00          	andi	a2, a3, 15
ffffffff8020a35c: 91 82                	srli	a3, a3, 4
ffffffff8020a35e: e3 75 e6 fe          	bgeu	a2, a4, -22
ffffffff8020a362: 13 66 06 03          	ori	a2, a2, 48
ffffffff8020a366: a3 8f c7 06          	sb	a2, 127(a5)
ffffffff8020a36a: fd 15                	addi	a1, a1, -1
ffffffff8020a36c: e5 f6                	bnez	a3, -24
ffffffff8020a36e: 93 86 05 08          	addi	a3, a1, 128
ffffffff8020a372: 13 06 10 08          	addi	a2, zero, 129
ffffffff8020a376: 63 f4 c6 02          	bgeu	a3, a2, 40
ffffffff8020a37a: b3 07 b0 40          	neg	a5, a1
ffffffff8020a37e: c2 95                	add	a1, a1, a6
ffffffff8020a380: 13 87 05 08          	addi	a4, a1, 128

ffffffff8020a384 .LBB474_7:
ffffffff8020a384: 17 36 00 00          	auipc	a2, 3
ffffffff8020a388: 13 06 c6 08          	addi	a2, a2, 140
ffffffff8020a38c: 85 45                	addi	a1, zero, 1
ffffffff8020a38e: 89 46                	addi	a3, zero, 2
ffffffff8020a390: 97 f0 ff ff          	auipc	ra, 1048575
ffffffff8020a394: e7 80 00 fb          	jalr	-80(ra)
ffffffff8020a398: aa 60                	ld	ra, 136(sp)
ffffffff8020a39a: 49 61                	addi	sp, sp, 144
ffffffff8020a39c: 82 80                	ret

ffffffff8020a39e .LBB474_8:
ffffffff8020a39e: 17 36 00 00          	auipc	a2, 3
ffffffff8020a3a2: 13 06 a6 05          	addi	a2, a2, 90
ffffffff8020a3a6: 93 05 00 08          	addi	a1, zero, 128
ffffffff8020a3aa: 36 85                	add	a0, zero, a3
ffffffff8020a3ac: 97 00 00 00          	auipc	ra, 0
ffffffff8020a3b0: e7 80 80 9c          	jalr	-1592(ra)
ffffffff8020a3b4: 00 00                	unimp	

ffffffff8020a3b6 _ZN4core3fmt3num3imp7fmt_u6417h373d4d6e712c9b1fE:
ffffffff8020a3b6: 5d 71                	addi	sp, sp, -80
ffffffff8020a3b8: 86 e4                	sd	ra, 72(sp)
ffffffff8020a3ba: a2 e0                	sd	s0, 64(sp)
ffffffff8020a3bc: 26 fc                	sd	s1, 56(sp)
ffffffff8020a3be: 4a f8                	sd	s2, 48(sp)
ffffffff8020a3c0: 4e f4                	sd	s3, 40(sp)
ffffffff8020a3c2: 32 88                	add	a6, zero, a2
ffffffff8020a3c4: 13 56 45 00          	srli	a2, a0, 4
ffffffff8020a3c8: 13 07 70 02          	addi	a4, zero, 39
ffffffff8020a3cc: 93 06 10 27          	addi	a3, zero, 625

ffffffff8020a3d0 .LBB479_10:
ffffffff8020a3d0: 97 38 00 00          	auipc	a7, 3
ffffffff8020a3d4: 93 88 28 04          	addi	a7, a7, 66
ffffffff8020a3d8: 63 73 d6 02          	bgeu	a2, a3, 38
ffffffff8020a3dc: 13 06 30 06          	addi	a2, zero, 99
ffffffff8020a3e0: 63 4e a6 0c          	blt	a2, a0, 220
ffffffff8020a3e4: 29 46                	addi	a2, zero, 10
ffffffff8020a3e6: 63 59 c5 12          	bge	a0, a2, 306
ffffffff8020a3ea: 13 06 f7 ff          	addi	a2, a4, -1
ffffffff8020a3ee: 93 06 11 00          	addi	a3, sp, 1
ffffffff8020a3f2: b2 96                	add	a3, a3, a2
ffffffff8020a3f4: 13 05 05 03          	addi	a0, a0, 48
ffffffff8020a3f8: 23 80 a6 00          	sb	a0, 0(a3)
ffffffff8020a3fc: 2d aa                	j	314
ffffffff8020a3fe: 01 47                	mv	a4, zero
ffffffff8020a400: 37 36 1a 00          	lui	a2, 419
ffffffff8020a404: 1b 06 36 6e          	addiw	a2, a2, 1763
ffffffff8020a408: 3a 06                	slli	a2, a2, 14
ffffffff8020a40a: 13 06 76 ac          	addi	a2, a2, -1337
ffffffff8020a40e: 3a 06                	slli	a2, a2, 14
ffffffff8020a410: 13 06 36 43          	addi	a2, a2, 1075
ffffffff8020a414: 36 06                	slli	a2, a2, 13
ffffffff8020a416: 93 02 b6 94          	addi	t0, a2, -1717
ffffffff8020a41a: 09 66                	lui	a2, 2
ffffffff8020a41c: 9b 03 06 71          	addiw	t2, a2, 1808
ffffffff8020a420: 41 66                	lui	a2, 16
ffffffff8020a422: 9b 0e c6 ff          	addiw	t4, a2, -4
ffffffff8020a426: b7 f6 51 00          	lui	a3, 1311
ffffffff8020a42a: 9b 86 56 b8          	addiw	a3, a3, -1147
ffffffff8020a42e: b6 06                	slli	a3, a3, 13
ffffffff8020a430: 93 86 76 3d          	addi	a3, a3, 983
ffffffff8020a434: ba 06                	slli	a3, a3, 14
ffffffff8020a436: 93 86 f6 28          	addi	a3, a3, 655
ffffffff8020a43a: b2 06                	slli	a3, a3, 12
ffffffff8020a43c: 13 8f 36 5c          	addi	t5, a3, 1475
ffffffff8020a440: 13 03 40 06          	addi	t1, zero, 100
ffffffff8020a444: 9b 0f e6 ff          	addiw	t6, a2, -2
ffffffff8020a448: 13 0e 11 00          	addi	t3, sp, 1
ffffffff8020a44c: 37 e6 f5 05          	lui	a2, 24414
ffffffff8020a450: 1b 09 f6 0f          	addiw	s2, a2, 255
ffffffff8020a454: aa 87                	add	a5, zero, a0
ffffffff8020a456: 33 35 55 02          	<unknown>
ffffffff8020a45a: 2d 81                	srli	a0, a0, 11
ffffffff8020a45c: b3 06 75 02          	<unknown>
ffffffff8020a460: b3 86 d7 40          	sub	a3, a5, a3
ffffffff8020a464: 33 f4 d6 01          	and	s0, a3, t4
ffffffff8020a468: 09 80                	srli	s0, s0, 2
ffffffff8020a46a: 33 34 e4 03          	<unknown>
ffffffff8020a46e: 09 80                	srli	s0, s0, 2
ffffffff8020a470: 93 14 14 00          	slli	s1, s0, 1
ffffffff8020a474: 33 04 64 02          	<unknown>
ffffffff8020a478: 81 8e                	sub	a3, a3, s0
ffffffff8020a47a: 86 06                	slli	a3, a3, 1
ffffffff8020a47c: b3 f6 f6 01          	and	a3, a3, t6
ffffffff8020a480: 33 84 14 01          	add	s0, s1, a7
ffffffff8020a484: b3 04 ee 00          	add	s1, t3, a4
ffffffff8020a488: 83 49 04 00          	lbu	s3, 0(s0)
ffffffff8020a48c: 03 04 14 00          	lb	s0, 1(s0)
ffffffff8020a490: c6 96                	add	a3, a3, a7
ffffffff8020a492: 03 86 16 00          	lb	a2, 1(a3)
ffffffff8020a496: 83 c6 06 00          	lbu	a3, 0(a3)
ffffffff8020a49a: 23 82 84 02          	sb	s0, 36(s1)
ffffffff8020a49e: a3 81 34 03          	sb	s3, 35(s1)
ffffffff8020a4a2: 23 83 c4 02          	sb	a2, 38(s1)
ffffffff8020a4a6: a3 82 d4 02          	sb	a3, 37(s1)
ffffffff8020a4aa: 71 17                	addi	a4, a4, -4
ffffffff8020a4ac: e3 64 f9 fa          	bltu	s2, a5, -88
ffffffff8020a4b0: 13 07 77 02          	addi	a4, a4, 39
ffffffff8020a4b4: 13 06 30 06          	addi	a2, zero, 99
ffffffff8020a4b8: e3 56 a6 f2          	bge	a2, a0, -212
ffffffff8020a4bc: 41 66                	lui	a2, 16
ffffffff8020a4be: 9b 06 c6 ff          	addiw	a3, a2, -4
ffffffff8020a4c2: e9 8e                	and	a3, a3, a0
ffffffff8020a4c4: 89 82                	srli	a3, a3, 2
ffffffff8020a4c6: b7 f7 51 00          	lui	a5, 1311
ffffffff8020a4ca: 9b 87 57 b8          	addiw	a5, a5, -1147
ffffffff8020a4ce: b6 07                	slli	a5, a5, 13
ffffffff8020a4d0: 93 87 77 3d          	addi	a5, a5, 983
ffffffff8020a4d4: ba 07                	slli	a5, a5, 14
ffffffff8020a4d6: 93 87 f7 28          	addi	a5, a5, 655
ffffffff8020a4da: b2 07                	slli	a5, a5, 12
ffffffff8020a4dc: 93 87 37 5c          	addi	a5, a5, 1475
ffffffff8020a4e0: b3 b6 f6 02          	<unknown>
ffffffff8020a4e4: 89 82                	srli	a3, a3, 2
ffffffff8020a4e6: 93 07 40 06          	addi	a5, zero, 100
ffffffff8020a4ea: b3 87 f6 02          	<unknown>
ffffffff8020a4ee: 1d 8d                	sub	a0, a0, a5
ffffffff8020a4f0: 06 05                	slli	a0, a0, 1
ffffffff8020a4f2: 79 36                	addiw	a2, a2, -2
ffffffff8020a4f4: 71 8d                	and	a0, a0, a2
ffffffff8020a4f6: 79 17                	addi	a4, a4, -2
ffffffff8020a4f8: 46 95                	add	a0, a0, a7
ffffffff8020a4fa: 03 06 15 00          	lb	a2, 1(a0)
ffffffff8020a4fe: 03 45 05 00          	lbu	a0, 0(a0)
ffffffff8020a502: 93 07 11 00          	addi	a5, sp, 1
ffffffff8020a506: ba 97                	add	a5, a5, a4
ffffffff8020a508: a3 80 c7 00          	sb	a2, 1(a5)
ffffffff8020a50c: 23 80 a7 00          	sb	a0, 0(a5)
ffffffff8020a510: 36 85                	add	a0, zero, a3
ffffffff8020a512: 29 46                	addi	a2, zero, 10
ffffffff8020a514: e3 4b c5 ec          	blt	a0, a2, -298
ffffffff8020a518: 06 05                	slli	a0, a0, 1
ffffffff8020a51a: 13 06 e7 ff          	addi	a2, a4, -2
ffffffff8020a51e: 46 95                	add	a0, a0, a7
ffffffff8020a520: 83 06 15 00          	lb	a3, 1(a0)
ffffffff8020a524: 03 45 05 00          	lbu	a0, 0(a0)
ffffffff8020a528: 13 07 11 00          	addi	a4, sp, 1
ffffffff8020a52c: 32 97                	add	a4, a4, a2
ffffffff8020a52e: a3 00 d7 00          	sb	a3, 1(a4)
ffffffff8020a532: 23 00 a7 00          	sb	a0, 0(a4)
ffffffff8020a536: 13 05 11 00          	addi	a0, sp, 1
ffffffff8020a53a: 33 07 c5 00          	add	a4, a0, a2
ffffffff8020a53e: 13 05 70 02          	addi	a0, zero, 39
ffffffff8020a542: b3 07 c5 40          	sub	a5, a0, a2

ffffffff8020a546 .LBB479_11:
ffffffff8020a546: 17 36 00 00          	auipc	a2, 3
ffffffff8020a54a: 13 06 a6 d7          	addi	a2, a2, -646
ffffffff8020a54e: 42 85                	add	a0, zero, a6
ffffffff8020a550: 81 46                	mv	a3, zero
ffffffff8020a552: 97 f0 ff ff          	auipc	ra, 1048575
ffffffff8020a556: e7 80 e0 de          	jalr	-530(ra)
ffffffff8020a55a: a2 79                	ld	s3, 40(sp)
ffffffff8020a55c: 42 79                	ld	s2, 48(sp)
ffffffff8020a55e: e2 74                	ld	s1, 56(sp)
ffffffff8020a560: 06 64                	ld	s0, 64(sp)
ffffffff8020a562: a6 60                	ld	ra, 72(sp)
ffffffff8020a564: 61 61                	addi	sp, sp, 80
ffffffff8020a566: 82 80                	ret

ffffffff8020a568 _ZN4core3fmt3num3imp52_$LT$impl$u20$core..fmt..Display$u20$for$u20$u32$GT$3fmt17ha1dc7db1ae6e1ccdE:
ffffffff8020a568: 03 65 05 00          	lwu	a0, 0(a0)
ffffffff8020a56c: 2e 86                	add	a2, zero, a1
ffffffff8020a56e: 85 45                	addi	a1, zero, 1
ffffffff8020a570: 17 03 00 00          	auipc	t1, 0
ffffffff8020a574: 67 00 63 e4          	jr	-442(t1)

ffffffff8020a578 _ZN4core3fmt3num3imp54_$LT$impl$u20$core..fmt..Display$u20$for$u20$usize$GT$3fmt17hfdb2265e757676d6E:
ffffffff8020a578: 08 61                	ld	a0, 0(a0)
ffffffff8020a57a: 2e 86                	add	a2, zero, a1
ffffffff8020a57c: 85 45                	addi	a1, zero, 1
ffffffff8020a57e: 17 03 00 00          	auipc	t1, 0
ffffffff8020a582: 67 00 83 e3          	jr	-456(t1)

ffffffff8020a586 _ZN53_$LT$core..fmt..Error$u20$as$u20$core..fmt..Debug$GT$3fmt17h521c7eeed0830024E:
ffffffff8020a586: 90 75                	ld	a2, 40(a1)
ffffffff8020a588: 88 71                	ld	a0, 32(a1)
ffffffff8020a58a: 1c 6e                	ld	a5, 24(a2)

ffffffff8020a58c .LBB514_1:
ffffffff8020a58c: 97 45 00 00          	auipc	a1, 4
ffffffff8020a590: 93 85 45 84          	addi	a1, a1, -1980
ffffffff8020a594: 15 46                	addi	a2, zero, 5
ffffffff8020a596: 82 87                	jr	a5

ffffffff8020a598 _ZN42_$LT$$RF$T$u20$as$u20$core..fmt..Debug$GT$3fmt17h8e9e10d4c7625bb5E:
ffffffff8020a598: 97 36 00 00          	auipc	a3, 3
ffffffff8020a59c: 93 86 06 fc          	addi	a3, a3, -64
ffffffff8020a5a0: 09 46                	addi	a2, zero, 2
ffffffff8020a5a2: 2e 85                	add	a0, zero, a1
ffffffff8020a5a4: b6 85                	add	a1, zero, a3
ffffffff8020a5a6: 17 f3 ff ff          	auipc	t1, 1048575
ffffffff8020a5aa: 67 00 43 00          	jr	4(t1)

ffffffff8020a5ae _ZN42_$LT$$RF$T$u20$as$u20$core..fmt..Debug$GT$3fmt17hc4f9c2310c108c28E:
ffffffff8020a5ae: 10 65                	ld	a2, 8(a0)
ffffffff8020a5b0: 08 61                	ld	a0, 0(a0)
ffffffff8020a5b2: 1c 6e                	ld	a5, 24(a2)
ffffffff8020a5b4: 82 87                	jr	a5

ffffffff8020a5b6 _ZN44_$LT$$RF$T$u20$as$u20$core..fmt..Display$GT$3fmt17hb0118f6aeefbaeabE:
ffffffff8020a5b6: 14 61                	ld	a3, 0(a0)
ffffffff8020a5b8: 10 65                	ld	a2, 8(a0)
ffffffff8020a5ba: 2e 85                	add	a0, zero, a1
ffffffff8020a5bc: b6 85                	add	a1, zero, a3
ffffffff8020a5be: 17 f3 ff ff          	auipc	t1, 1048575
ffffffff8020a5c2: 67 00 c3 fe          	jr	-20(t1)

ffffffff8020a5c6 _ZN4core7unicode12unicode_data15grapheme_extend6lookup17h5925f327e5e33873E:
ffffffff8020a5c6: 41 11                	addi	sp, sp, -16
ffffffff8020a5c8: 06 e4                	sd	ra, 8(sp)
ffffffff8020a5ca: 81 46                	mv	a3, zero
ffffffff8020a5cc: 9b 05 05 00          	sext.w	a1, a0
ffffffff8020a5d0: 45 66                	lui	a2, 17
ffffffff8020a5d2: 1b 07 46 d2          	addiw	a4, a2, -732
ffffffff8020a5d6: 1b 16 b5 00          	slliw	a2, a0, 11
ffffffff8020a5da: 63 e3 e5 00          	bltu	a1, a4, 6
ffffffff8020a5de: bd 46                	addi	a3, zero, 15
ffffffff8020a5e0: 13 87 86 00          	addi	a4, a3, 8
ffffffff8020a5e4: 93 17 27 00          	slli	a5, a4, 2

ffffffff8020a5e8 .LBB634_27:
ffffffff8020a5e8: 97 35 00 00          	auipc	a1, 3
ffffffff8020a5ec: 93 85 05 7f          	addi	a1, a1, 2032
ffffffff8020a5f0: ae 97                	add	a5, a5, a1
ffffffff8020a5f2: 9c 43                	lw	a5, 0(a5)
ffffffff8020a5f4: 9b 97 b7 00          	slliw	a5, a5, 11
ffffffff8020a5f8: 63 63 f6 00          	bltu	a2, a5, 6
ffffffff8020a5fc: ba 86                	add	a3, zero, a4
ffffffff8020a5fe: 13 87 46 00          	addi	a4, a3, 4
ffffffff8020a602: 93 17 27 00          	slli	a5, a4, 2
ffffffff8020a606: ae 97                	add	a5, a5, a1
ffffffff8020a608: 9c 43                	lw	a5, 0(a5)
ffffffff8020a60a: 9b 97 b7 00          	slliw	a5, a5, 11
ffffffff8020a60e: 63 63 f6 00          	bltu	a2, a5, 6
ffffffff8020a612: ba 86                	add	a3, zero, a4
ffffffff8020a614: 13 87 26 00          	addi	a4, a3, 2
ffffffff8020a618: 93 17 27 00          	slli	a5, a4, 2
ffffffff8020a61c: ae 97                	add	a5, a5, a1
ffffffff8020a61e: 9c 43                	lw	a5, 0(a5)
ffffffff8020a620: 9b 97 b7 00          	slliw	a5, a5, 11
ffffffff8020a624: 63 63 f6 00          	bltu	a2, a5, 6
ffffffff8020a628: ba 86                	add	a3, zero, a4
ffffffff8020a62a: 13 87 16 00          	addi	a4, a3, 1
ffffffff8020a62e: 93 17 27 00          	slli	a5, a4, 2
ffffffff8020a632: ae 97                	add	a5, a5, a1
ffffffff8020a634: 9c 43                	lw	a5, 0(a5)
ffffffff8020a636: 9b 97 b7 00          	slliw	a5, a5, 11
ffffffff8020a63a: 63 63 f6 00          	bltu	a2, a5, 6
ffffffff8020a63e: ba 86                	add	a3, zero, a4
ffffffff8020a640: 13 97 26 00          	slli	a4, a3, 2
ffffffff8020a644: 2e 97                	add	a4, a4, a1
ffffffff8020a646: 18 43                	lw	a4, 0(a4)
ffffffff8020a648: 1b 17 b7 00          	slliw	a4, a4, 11
ffffffff8020a64c: b3 37 c7 00          	sltu	a5, a4, a2
ffffffff8020a650: 39 8e                	xor	a2, a2, a4
ffffffff8020a652: 13 36 16 00          	seqz	a2, a2
ffffffff8020a656: 3e 96                	add	a2, a2, a5
ffffffff8020a658: 33 07 d6 00          	add	a4, a2, a3
ffffffff8020a65c: f9 46                	addi	a3, zero, 30
ffffffff8020a65e: 63 e0 e6 0a          	bltu	a3, a4, 160
ffffffff8020a662: 93 17 27 00          	slli	a5, a4, 2
ffffffff8020a666: 13 06 10 2b          	addi	a2, zero, 689
ffffffff8020a66a: 63 07 d7 00          	beq	a4, a3, 14
ffffffff8020a66e: 33 86 f5 00          	add	a2, a1, a5
ffffffff8020a672: 03 66 46 00          	lwu	a2, 4(a2)
ffffffff8020a676: 55 82                	srli	a2, a2, 21
ffffffff8020a678: 93 06 f7 ff          	addi	a3, a4, -1
ffffffff8020a67c: 63 74 d7 00          	bgeu	a4, a3, 8
ffffffff8020a680: 01 47                	mv	a4, zero
ffffffff8020a682: 21 a8                	j	24
ffffffff8020a684: 7d 47                	addi	a4, zero, 31
ffffffff8020a686: 63 f7 e6 08          	bgeu	a3, a4, 142
ffffffff8020a68a: 8a 06                	slli	a3, a3, 2
ffffffff8020a68c: ae 96                	add	a3, a3, a1
ffffffff8020a68e: 83 e6 06 00          	lwu	a3, 0(a3)
ffffffff8020a692: 37 07 20 00          	lui	a4, 512
ffffffff8020a696: 7d 37                	addiw	a4, a4, -1
ffffffff8020a698: 75 8f                	and	a4, a4, a3
ffffffff8020a69a: be 95                	add	a1, a1, a5
ffffffff8020a69c: 83 e5 05 00          	lwu	a1, 0(a1)
ffffffff8020a6a0: 93 d6 55 01          	srli	a3, a1, 21
ffffffff8020a6a4: 93 85 16 00          	addi	a1, a3, 1
ffffffff8020a6a8: 63 0a b6 02          	beq	a2, a1, 52
ffffffff8020a6ac: 81 45                	mv	a1, zero
ffffffff8020a6ae: 3b 07 e5 40          	subw	a4, a0, a4
ffffffff8020a6b2: 13 05 f6 ff          	addi	a0, a2, -1
ffffffff8020a6b6: 13 08 00 2b          	addi	a6, zero, 688

ffffffff8020a6ba .LBB634_28:
ffffffff8020a6ba: 97 37 00 00          	auipc	a5, 3
ffffffff8020a6be: 93 87 a7 79          	addi	a5, a5, 1946
ffffffff8020a6c2: 63 62 d8 02          	bltu	a6, a3, 36
ffffffff8020a6c6: 33 86 f6 00          	add	a2, a3, a5
ffffffff8020a6ca: 03 46 06 00          	lbu	a2, 0(a2)
ffffffff8020a6ce: b1 9d                	addw	a1, a1, a2
ffffffff8020a6d0: 63 66 b7 00          	bltu	a4, a1, 12
ffffffff8020a6d4: 85 06                	addi	a3, a3, 1
ffffffff8020a6d6: e3 16 d5 fe          	bne	a0, a3, -20
ffffffff8020a6da: aa 86                	add	a3, zero, a0
ffffffff8020a6dc: 13 f5 16 00          	andi	a0, a3, 1
ffffffff8020a6e0: a2 60                	ld	ra, 8(sp)
ffffffff8020a6e2: 41 01                	addi	sp, sp, 16
ffffffff8020a6e4: 82 80                	ret

ffffffff8020a6e6 .LBB634_29:
ffffffff8020a6e6: 17 36 00 00          	auipc	a2, 3
ffffffff8020a6ea: 13 06 a6 69          	addi	a2, a2, 1690
ffffffff8020a6ee: 93 05 10 2b          	addi	a1, zero, 689
ffffffff8020a6f2: 36 85                	add	a0, zero, a3
ffffffff8020a6f4: 97 e0 ff ff          	auipc	ra, 1048574
ffffffff8020a6f8: e7 80 00 1a          	jalr	416(ra)
ffffffff8020a6fc: 00 00                	unimp	

ffffffff8020a6fe .LBB634_30:
ffffffff8020a6fe: 17 36 00 00          	auipc	a2, 3
ffffffff8020a702: 13 06 a6 66          	addi	a2, a2, 1642
ffffffff8020a706: fd 45                	addi	a1, zero, 31
ffffffff8020a708: 3a 85                	add	a0, zero, a4
ffffffff8020a70a: 97 e0 ff ff          	auipc	ra, 1048574
ffffffff8020a70e: e7 80 a0 18          	jalr	394(ra)
ffffffff8020a712: 00 00                	unimp	

ffffffff8020a714 .LBB634_31:
ffffffff8020a714: 17 36 00 00          	auipc	a2, 3
ffffffff8020a718: 13 06 46 68          	addi	a2, a2, 1668
ffffffff8020a71c: fd 45                	addi	a1, zero, 31
ffffffff8020a71e: 36 85                	add	a0, zero, a3
ffffffff8020a720: 97 e0 ff ff          	auipc	ra, 1048574
ffffffff8020a724: e7 80 40 17          	jalr	372(ra)
ffffffff8020a728: 00 00                	unimp	

ffffffff8020a72a _ZN67_$LT$core..alloc..layout..LayoutErr$u20$as$u20$core..fmt..Debug$GT$3fmt17haa29398e86e3204dE:
ffffffff8020a72a: 79 71                	addi	sp, sp, -48
ffffffff8020a72c: 06 f4                	sd	ra, 40(sp)
ffffffff8020a72e: 22 f0                	sd	s0, 32(sp)
ffffffff8020a730: 26 ec                	sd	s1, 24(sp)
ffffffff8020a732: 2e 84                	add	s0, zero, a1
ffffffff8020a734: 8c 75                	ld	a1, 40(a1)
ffffffff8020a736: 14 70                	ld	a3, 32(s0)
ffffffff8020a738: 98 6d                	ld	a4, 24(a1)
ffffffff8020a73a: aa 84                	add	s1, zero, a0

ffffffff8020a73c .LBB645_8:
ffffffff8020a73c: 97 45 00 00          	auipc	a1, 4
ffffffff8020a740: 93 85 95 9c          	addi	a1, a1, -1591
ffffffff8020a744: 25 46                	addi	a2, zero, 9
ffffffff8020a746: 36 85                	add	a0, zero, a3
ffffffff8020a748: 02 97                	jalr	a4
ffffffff8020a74a: 22 e0                	sd	s0, 0(sp)
ffffffff8020a74c: 23 04 a1 00          	sb	a0, 8(sp)
ffffffff8020a750: a3 04 01 00          	sb	zero, 9(sp)
ffffffff8020a754: 26 e8                	sd	s1, 16(sp)

ffffffff8020a756 .LBB645_9:
ffffffff8020a756: 97 45 00 00          	auipc	a1, 4
ffffffff8020a75a: 93 85 85 9b          	addi	a1, a1, -1608

ffffffff8020a75e .LBB645_10:
ffffffff8020a75e: 17 37 00 00          	auipc	a4, 3
ffffffff8020a762: 13 07 27 65          	addi	a4, a4, 1618
ffffffff8020a766: 0a 85                	add	a0, zero, sp
ffffffff8020a768: 14 08                	addi	a3, sp, 16
ffffffff8020a76a: 1d 46                	addi	a2, zero, 7
ffffffff8020a76c: 97 e0 ff ff          	auipc	ra, 1048574
ffffffff8020a770: e7 80 c0 34          	jalr	844(ra)
ffffffff8020a774: 03 45 91 00          	lbu	a0, 9(sp)
ffffffff8020a778: 83 45 81 00          	lbu	a1, 8(sp)
ffffffff8020a77c: 1d c9                	beqz	a0, 54
ffffffff8020a77e: 05 45                	addi	a0, zero, 1
ffffffff8020a780: 95 e5                	bnez	a1, 44
ffffffff8020a782: 02 65                	ld	a0, 0(sp)
ffffffff8020a784: 0c 75                	ld	a1, 40(a0)
ffffffff8020a786: 03 46 05 03          	lbu	a2, 48(a0)
ffffffff8020a78a: 08 71                	ld	a0, 32(a0)
ffffffff8020a78c: 94 6d                	ld	a3, 24(a1)
ffffffff8020a78e: 93 75 46 00          	andi	a1, a2, 4
ffffffff8020a792: 99 e5                	bnez	a1, 14

ffffffff8020a794 .LBB645_11:
ffffffff8020a794: 97 35 00 00          	auipc	a1, 3
ffffffff8020a798: 93 85 f5 c3          	addi	a1, a1, -961
ffffffff8020a79c: 09 46                	addi	a2, zero, 2
ffffffff8020a79e: 31 a0                	j	12

ffffffff8020a7a0 .LBB645_12:
ffffffff8020a7a0: 97 35 00 00          	auipc	a1, 3
ffffffff8020a7a4: 93 85 25 c3          	addi	a1, a1, -974
ffffffff8020a7a8: 05 46                	addi	a2, zero, 1
ffffffff8020a7aa: 82 96                	jalr	a3
ffffffff8020a7ac: 23 04 a1 00          	sb	a0, 8(sp)
ffffffff8020a7b0: aa 85                	add	a1, zero, a0
ffffffff8020a7b2: 33 35 b0 00          	snez	a0, a1
ffffffff8020a7b6: e2 64                	ld	s1, 24(sp)
ffffffff8020a7b8: 02 74                	ld	s0, 32(sp)
ffffffff8020a7ba: a2 70                	ld	ra, 40(sp)
ffffffff8020a7bc: 45 61                	addi	sp, sp, 48
ffffffff8020a7be: 82 80                	ret

ffffffff8020a7c0 memcpy:
ffffffff8020a7c0: 11 ca                	beqz	a2, 20
ffffffff8020a7c2: aa 86                	add	a3, zero, a0
ffffffff8020a7c4: 03 87 05 00          	lb	a4, 0(a1)
ffffffff8020a7c8: 23 80 e6 00          	sb	a4, 0(a3)
ffffffff8020a7cc: 7d 16                	addi	a2, a2, -1
ffffffff8020a7ce: 85 06                	addi	a3, a3, 1
ffffffff8020a7d0: 85 05                	addi	a1, a1, 1
ffffffff8020a7d2: 6d fa                	bnez	a2, -14
ffffffff8020a7d4: 82 80                	ret

ffffffff8020a7d6 memset:
ffffffff8020a7d6: 19 c6                	beqz	a2, 14
ffffffff8020a7d8: aa 86                	add	a3, zero, a0
ffffffff8020a7da: 23 80 b6 00          	sb	a1, 0(a3)
ffffffff8020a7de: 7d 16                	addi	a2, a2, -1
ffffffff8020a7e0: 85 06                	addi	a3, a3, 1
ffffffff8020a7e2: 65 fe                	bnez	a2, -8
ffffffff8020a7e4: 82 80                	ret

ffffffff8020a7e6 memcmp:
ffffffff8020a7e6: 19 ca                	beqz	a2, 22
ffffffff8020a7e8: 83 46 05 00          	lbu	a3, 0(a0)
ffffffff8020a7ec: 03 c7 05 00          	lbu	a4, 0(a1)
ffffffff8020a7f0: 63 98 e6 00          	bne	a3, a4, 16
ffffffff8020a7f4: 7d 16                	addi	a2, a2, -1
ffffffff8020a7f6: 85 05                	addi	a1, a1, 1
ffffffff8020a7f8: 05 05                	addi	a0, a0, 1
ffffffff8020a7fa: 7d f6                	bnez	a2, -18
ffffffff8020a7fc: 01 45                	mv	a0, zero
ffffffff8020a7fe: 82 80                	ret
ffffffff8020a800: 33 85 e6 40          	sub	a0, a3, a4
ffffffff8020a804: 82 80                	ret
